 TestFrame

 Timestamp is 4a446be5 (Fri Jun 26 08:34:13 2009)

 Preferred load address is 00400000

 Start         Length     Name                   Class
 0001:00000000 0004489aH .text                   CODE
 0001:000448a0 00003487H .text$x                 CODE
 0001:00047d27 00000044H .text$yc                CODE
 0001:00047d6b 00000064H .text$yd                CODE
 0002:00000000 0000019cH .idata$5                DATA
 0002:0000019c 00000004H .CRT$XCA                DATA
 0002:000001a0 0000000cH .CRT$XCC                DATA
 0002:000001ac 00000004H .CRT$XCU                DATA
 0002:000001b0 00000004H .CRT$XCZ                DATA
 0002:000001b4 00000004H .CRT$XIA                DATA
 0002:000001b8 00000014H .CRT$XIC                DATA
 0002:000001cc 00000004H .CRT$XID                DATA
 0002:000001d0 00000004H .CRT$XIY                DATA
 0002:000001d4 00000004H .CRT$XIZ                DATA
 0002:000001d8 00000004H .CRT$XPA                DATA
 0002:000001dc 00000004H .CRT$XPX                DATA
 0002:000001e0 00000004H .CRT$XPXA               DATA
 0002:000001e4 00000004H .CRT$XPZ                DATA
 0002:000001e8 00000004H .CRT$XTA                DATA
 0002:000001ec 00000004H .CRT$XTB                DATA
 0002:000001f0 00000004H .CRT$XTZ                DATA
 0002:00000200 00003448H .rdata                  DATA
 0002:00003648 00000055H .rdata$debug            DATA
 0002:000036a0 00001404H .rdata$r                DATA
 0002:00004ab0 00000448H .rdata$sxdata           DATA
 0002:00004ef8 00000004H .rtc$IAA                DATA
 0002:00004efc 00000004H .rtc$IZZ                DATA
 0002:00004f00 00000004H .rtc$TAA                DATA
 0002:00004f04 00000004H .rtc$TZZ                DATA
 0002:00004f08 0000465cH .xdata$x                DATA
 0002:00009564 00000050H .idata$2                DATA
 0002:000095b4 00000014H .idata$3                DATA
 0002:000095c8 0000019cH .idata$4                DATA
 0002:00009764 000006b8H .idata$6                DATA
 0002:00009e1c 00000000H .edata                  DATA
 0003:00000000 00002210H .data                   DATA
 0003:00002220 00001ff0H .bss                    DATA
 0004:00000000 00000058H .rsrc$01                DATA
 0004:00000060 000003c8H .rsrc$02                DATA

  Address         Publics by Value              Rva+Base       Lib:Object

 0000:00000000       __except_list              00000000     <absolute>
 0000:00000112       ___safe_se_handler_count   00000112     <absolute>
 0000:00000000       ___ImageBase               00400000     <linker-defined>
 0001:00000000       ??0bad_alloc@std@@QAE@PBD@Z 00401000 f i IniFile.obj
 0001:00000020       ??1bad_alloc@std@@UAE@XZ   00401020 f i IniFile.obj
 0001:00000030       ??_Ebad_alloc@std@@UAEPAXI@Z 00401030 f i IniFile.obj
 0001:00000030       ??_Gbad_alloc@std@@UAEPAXI@Z 00401030 f i IniFile.obj
 0001:00000060       ??2@YAPAXIPAX@Z            00401060 f i IniFile.obj
 0001:00000070       ??3@YAXPAX0@Z              00401070 f i IniFile.obj
 0001:00000080       ?assign@?$char_traits@D@std@@SAXAADABD@Z 00401080 f i IniFile.obj
 0001:00000090       ?compare@?$char_traits@D@std@@SAHPBD0I@Z 00401090 f i IniFile.obj
 0001:00000120       ?length@?$char_traits@D@std@@SAIPBD@Z 00401120 f i IniFile.obj
 0001:00000140       ?_Copy_s@?$char_traits@D@std@@SAPADPADIPBDI@Z 00401140 f i IniFile.obj
 0001:00000170       ?find@?$char_traits@D@std@@SAPBDPBDIABD@Z 00401170 f i IniFile.obj
 0001:00000190       ?_Move_s@?$char_traits@D@std@@SAPADPADIPBDI@Z 00401190 f i IniFile.obj
 0001:000001c0       ?assign@?$char_traits@D@std@@SAPADPADID@Z 004011c0 f i IniFile.obj
 0001:000001e0       ?to_char_type@?$char_traits@D@std@@SADABH@Z 004011e0 f i IniFile.obj
 0001:000001f0       ?to_int_type@?$char_traits@D@std@@SAHABD@Z 004011f0 f i IniFile.obj
 0001:00000200       ?eq_int_type@?$char_traits@D@std@@SA_NABH0@Z 00401200 f i IniFile.obj
 0001:00000220       ?eof@?$char_traits@D@std@@SAHXZ 00401220 f i IniFile.obj
 0001:00000230       ??0_Iterator_base@std@@QAE@XZ 00401230 f i IniFile.obj
 0001:00000240       ?_Getctype@_Locinfo@std@@QBE?AU_Ctypevec@@XZ 00401240 f i IniFile.obj
 0001:00000270       ??0id@locale@std@@QAE@I@Z  00401270 f i IniFile.obj
 0001:00000280       ??Bid@locale@std@@QAEIXZ   00401280 f i IniFile.obj
 0001:000002c0       ?_Incref@facet@locale@std@@QAEXXZ 004012c0 f i IniFile.obj
 0001:000002f0       ?_Decref@facet@locale@std@@QAEPAV123@XZ 004012f0 f i IniFile.obj
 0001:00000330       ?_Register@facet@locale@std@@QAEXXZ 00401330 f i IniFile.obj
 0001:00000340       ??1facet@locale@std@@UAE@XZ 00401340 f i IniFile.obj
 0001:00000350       ??0facet@locale@std@@IAE@I@Z 00401350 f i IniFile.obj
 0001:00000370       ??0locale@std@@QAE@XZ      00401370 f i IniFile.obj
 0001:000003b0       ??0locale@std@@QAE@ABV01@@Z 004013b0 f i IniFile.obj
 0001:000003f0       ??1locale@std@@QAE@XZ      004013f0 f i IniFile.obj
 0001:00000440       ?_Getfacet@locale@std@@QBEPBVfacet@12@I@Z 00401440 f i IniFile.obj
 0001:00000480       ??_Gfacet@locale@std@@UAEPAXI@Z 00401480 f i IniFile.obj
 0001:00000480       ??_Efacet@locale@std@@UAEPAXI@Z 00401480 f i IniFile.obj
 0001:000004a0       ??0codecvt_base@std@@QAE@I@Z 004014a0 f i IniFile.obj
 0001:000004c0       ?always_noconv@codecvt_base@std@@QBE_NXZ 004014c0 f i IniFile.obj
 0001:000004d0       ??1codecvt_base@std@@UAE@XZ 004014d0 f i IniFile.obj
 0001:000004e0       ?do_always_noconv@codecvt_base@std@@MBE_NXZ 004014e0 f i IniFile.obj
 0001:000004f0       ?do_max_length@codecvt_base@std@@MBEHXZ 004014f0 f i IniFile.obj
 0001:00000500       ?do_encoding@codecvt_base@std@@MBEHXZ 00401500 f i IniFile.obj
 0001:00000510       ??_Gcodecvt_base@std@@UAEPAXI@Z 00401510 f i IniFile.obj
 0001:00000510       ??_Ecodecvt_base@std@@UAEPAXI@Z 00401510 f i IniFile.obj
 0001:00000530       ??0ctype_base@std@@QAE@I@Z 00401530 f i IniFile.obj
 0001:00000550       ??1ctype_base@std@@UAE@XZ  00401550 f i IniFile.obj
 0001:00000560       ??_Ectype_base@std@@UAEPAXI@Z 00401560 f i IniFile.obj
 0001:00000560       ??_Gctype_base@std@@UAEPAXI@Z 00401560 f i IniFile.obj
 0001:00000580       ?is@?$ctype@D@std@@QBE_NFD@Z 00401580 f i IniFile.obj
 0001:000005a0       ?toupper@?$ctype@D@std@@QBEDD@Z 004015a0 f i IniFile.obj
 0001:000005b0       ?widen@?$ctype@D@std@@QBEDD@Z 004015b0 f i IniFile.obj
 0001:000005c0       ?_Init@?$ctype@D@std@@IAEXABV_Locinfo@2@@Z 004015c0 f i IniFile.obj
 0001:00000600       ?_Tidy@?$ctype@D@std@@IAEXXZ 00401600 f i IniFile.obj
 0001:00000630       ?rdstate@ios_base@std@@QBEHXZ 00401630 f i IniFile.obj
 0001:00000640       ?good@ios_base@std@@QBE_NXZ 00401640 f i IniFile.obj
 0001:00000650       ?fail@ios_base@std@@QBE_NXZ 00401650 f i IniFile.obj
 0001:00000660       ?flags@ios_base@std@@QBEHXZ 00401660 f i IniFile.obj
 0001:00000670       ?getloc@ios_base@std@@QBE?AVlocale@2@XZ 00401670 f i IniFile.obj
 0001:000006b0       ??1ios_base@std@@UAE@XZ    004016b0 f i IniFile.obj
 0001:000006c0       ??0ios_base@std@@IAE@XZ    004016c0 f i IniFile.obj
 0001:000006d0       ??_Eios_base@std@@UAEPAXI@Z 004016d0 f i IniFile.obj
 0001:000006d0       ??_Gios_base@std@@UAEPAXI@Z 004016d0 f i IniFile.obj
 0001:00000700       ?length@?$basic_string@DU?$char_traits@D@std@@V?$allocator@D@2@@std@@QBEIXZ 00401700 f i IniFile.obj
 0001:00000710       ?size@?$basic_string@DU?$char_traits@D@std@@V?$allocator@D@2@@std@@QBEIXZ 00401710 f i IniFile.obj
 0001:00000720       ?empty@?$basic_string@DU?$char_traits@D@std@@V?$allocator@D@2@@std@@QBE_NXZ 00401720 f i IniFile.obj
 0001:00000730       ??1?$basic_ios@DU?$char_traits@D@std@@@std@@UAE@XZ 00401730 f i IniFile.obj
 0001:00000740       ?rdbuf@?$basic_ios@DU?$char_traits@D@std@@@std@@QBEPAV?$basic_streambuf@DU?$char_traits@D@std@@@2@XZ 00401740 f i IniFile.obj
 0001:00000750       ??1?$basic_istream@DU?$char_traits@D@std@@@std@@UAE@XZ 00401750 f i IniFile.obj
 0001:00000760       ??Bsentry@?$basic_istream@DU?$char_traits@D@std@@@std@@QBE_NXZ 00401760 f i IniFile.obj
 0001:00000770       ??8const_iterator@?$_Tree@V?$_Tmap_traits@U?$pair@V?$basic_string@DU?$char_traits@D@std@@V?$allocator@D@2@@std@@V12@@std@@V?$basic_string@DU?$char_traits@D@std@@V?$allocator@D@2@@2@U?$less@U?$pair@V?$basic_string@DU?$char_traits@D@std@@V?$allocator@D@2@@std@@V12@@std@@@2@V?$allocator@U?$pair@$$CBU?$pair@V?$basic_string@DU?$char_traits@D@std@@V?$allocator@D@2@@std@@V12@@std@@V?$basic_string@DU?$char_traits@D@std@@V?$allocator@D@2@@2@@std@@@2@$0A@@std@@@std@@QBE_NABV012@@Z 00401770 f i IniFile.obj
 0001:000007a0       ??9const_iterator@?$_Tree@V?$_Tmap_traits@U?$pair@V?$basic_string@DU?$char_traits@D@std@@V?$allocator@D@2@@std@@V12@@std@@V?$basic_string@DU?$char_traits@D@std@@V?$allocator@D@2@@2@U?$less@U?$pair@V?$basic_string@DU?$char_traits@D@std@@V?$allocator@D@2@@std@@V12@@std@@@2@V?$allocator@U?$pair@$$CBU?$pair@V?$basic_string@DU?$char_traits@D@std@@V?$allocator@D@2@@std@@V12@@std@@V?$basic_string@DU?$char_traits@D@std@@V?$allocator@D@2@@2@@std@@@2@$0A@@std@@@std@@QBE_NABV012@@Z 004017a0 f i IniFile.obj
 0001:000007d0       ??_Glocale@std@@QAEPAXI@Z  004017d0 f i IniFile.obj
 0001:00000840       ??_D?$basic_istream@DU?$char_traits@D@std@@@std@@QAEXXZ 00401840 f i IniFile.obj
 0001:00000860       ?_Myptr@?$basic_string@DU?$char_traits@D@std@@V?$allocator@D@2@@std@@IAEPADXZ 00401860 f i IniFile.obj
 0001:00000870       ?_Myptr@?$basic_string@DU?$char_traits@D@std@@V?$allocator@D@2@@std@@IBEPBDXZ 00401870 f i IniFile.obj
 0001:00000880       ??0?$allocator@D@std@@QAE@XZ 00401880 f i IniFile.obj
 0001:00000890       ??0?$allocator@D@std@@QAE@ABV01@@Z 00401890 f i IniFile.obj
 0001:000008a0       ??0?$basic_ios@DU?$char_traits@D@std@@@std@@IAE@XZ 004018a0 f i IniFile.obj
 0001:000008b0       ??_G?$basic_ios@DU?$char_traits@D@std@@@std@@UAEPAXI@Z 004018b0 f i IniFile.obj
 0001:000008b0       ??_E?$basic_ios@DU?$char_traits@D@std@@@std@@UAEPAXI@Z 004018b0 f i IniFile.obj
 0001:000008e0       ?pubsync@?$basic_streambuf@DU?$char_traits@D@std@@@std@@QAEHXZ 004018e0 f i IniFile.obj
 0001:000008f0       ?_Unlock@?$basic_streambuf@DU?$char_traits@D@std@@@std@@QAEXXZ 004018f0 f i IniFile.obj
 0001:00000900       ?gptr@?$basic_streambuf@DU?$char_traits@D@std@@@std@@IBEPADXZ 00401900 f i IniFile.obj
 0001:00000910       ?setg@?$basic_streambuf@DU?$char_traits@D@std@@@std@@IAEXPAD00@Z 00401910 f i IniFile.obj
 0001:00000930       ?_Gninc@?$basic_streambuf@DU?$char_traits@D@std@@@std@@IAEPADXZ 00401930 f i IniFile.obj
 0001:00000950       ?_Gnpreinc@?$basic_streambuf@DU?$char_traits@D@std@@@std@@IAEPADXZ 00401950 f i IniFile.obj
 0001:00000970       ?_Gnavail@?$basic_streambuf@DU?$char_traits@D@std@@@std@@IBEHXZ 00401970 f i IniFile.obj
 0001:00000990       ?is_open@?$basic_filebuf@DU?$char_traits@D@std@@@std@@QBE_NXZ 00401990 f i IniFile.obj
 0001:000009a0       ?_Isnil@?$_Tree@V?$_Tmap_traits@U?$pair@V?$basic_string@DU?$char_traits@D@std@@V?$allocator@D@2@@std@@V12@@std@@V?$basic_string@DU?$char_traits@D@std@@V?$allocator@D@2@@2@U?$less@U?$pair@V?$basic_string@DU?$char_traits@D@std@@V?$allocator@D@2@@std@@V12@@std@@@2@V?$allocator@U?$pair@$$CBU?$pair@V?$basic_string@DU?$char_traits@D@std@@V?$allocator@D@2@@std@@V12@@std@@V?$basic_string@DU?$char_traits@D@std@@V?$allocator@D@2@@2@@std@@@2@$0A@@std@@@std@@KAAADPAU_Node@?$_Tree_nod@V?$_Tmap_traits@U?$pair@V?$basic_string@DU?$char_traits@D@std@@V?$allocator@D@2@@std@@V12@@std@@V?$basic_string@DU?$char_traits@D@std@@V?$allocator@D@2@@2@U?$less@U?$pair@V?$basic_string@DU?$char_traits@D@std@@V?$allocator@D@2@@std@@V12@@std@@@2@V?$allocator@U?$pair@$$CBU?$pair@V?$basic_string@DU?$char_traits@D@std@@V?$allocator@D@2@@std@@V12@@std@@V?$basic_string@DU?$char_traits@D@std@@V?$allocator@D@2@@2@@std@@@2@$0A@@std@@@2@@Z 004019a0 f i IniFile.obj
 0001:000009b0       ?_Left@?$_Tree@V?$_Tmap_traits@U?$pair@V?$basic_string@DU?$char_traits@D@std@@V?$allocator@D@2@@std@@V12@@std@@V?$basic_string@DU?$char_traits@D@std@@V?$allocator@D@2@@2@U?$less@U?$pair@V?$basic_string@DU?$char_traits@D@std@@V?$allocator@D@2@@std@@V12@@std@@@2@V?$allocator@U?$pair@$$CBU?$pair@V?$basic_string@DU?$char_traits@D@std@@V?$allocator@D@2@@std@@V12@@std@@V?$basic_string@DU?$char_traits@D@std@@V?$allocator@D@2@@2@@std@@@2@$0A@@std@@@std@@KAAAPAU_Node@?$_Tree_nod@V?$_Tmap_traits@U?$pair@V?$basic_string@DU?$char_traits@D@std@@V?$allocator@D@2@@std@@V12@@std@@V?$basic_string@DU?$char_traits@D@std@@V?$allocator@D@2@@2@U?$less@U?$pair@V?$basic_string@DU?$char_traits@D@std@@V?$allocator@D@2@@std@@V12@@std@@@2@V?$allocator@U?$pair@$$CBU?$pair@V?$basic_string@DU?$char_traits@D@std@@V?$allocator@D@2@@std@@V12@@std@@V?$basic_string@DU?$char_traits@D@std@@V?$allocator@D@2@@2@@std@@@2@$0A@@std@@@2@PAU342@@Z 004019b0 f i IniFile.obj
 0001:000009c0       ?_Right@?$_Tree@V?$_Tmap_traits@U?$pair@V?$basic_string@DU?$char_traits@D@std@@V?$allocator@D@2@@std@@V12@@std@@V?$basic_string@DU?$char_traits@D@std@@V?$allocator@D@2@@2@U?$less@U?$pair@V?$basic_string@DU?$char_traits@D@std@@V?$allocator@D@2@@std@@V12@@std@@@2@V?$allocator@U?$pair@$$CBU?$pair@V?$basic_string@DU?$char_traits@D@std@@V?$allocator@D@2@@std@@V12@@std@@V?$basic_string@DU?$char_traits@D@std@@V?$allocator@D@2@@2@@std@@@2@$0A@@std@@@std@@KAAAPAU_Node@?$_Tree_nod@V?$_Tmap_traits@U?$pair@V?$basic_string@DU?$char_traits@D@std@@V?$allocator@D@2@@std@@V12@@std@@V?$basic_string@DU?$char_traits@D@std@@V?$allocator@D@2@@2@U?$less@U?$pair@V?$basic_string@DU?$char_traits@D@std@@V?$allocator@D@2@@std@@V12@@std@@@2@V?$allocator@U?$pair@$$CBU?$pair@V?$basic_string@DU?$char_traits@D@std@@V?$allocator@D@2@@std@@V12@@std@@V?$basic_string@DU?$char_traits@D@std@@V?$allocator@D@2@@2@@std@@@2@$0A@@std@@@2@PAU342@@Z 004019c0 f i IniFile.obj
 0001:000009d0       ?_Kfn@?$_Tmap_traits@U?$pair@V?$basic_string@DU?$char_traits@D@std@@V?$allocator@D@2@@std@@V12@@std@@V?$basic_string@DU?$char_traits@D@std@@V?$allocator@D@2@@2@U?$less@U?$pair@V?$basic_string@DU?$char_traits@D@std@@V?$allocator@D@2@@std@@V12@@std@@@2@V?$allocator@U?$pair@$$CBU?$pair@V?$basic_string@DU?$char_traits@D@std@@V?$allocator@D@2@@std@@V12@@std@@V?$basic_string@DU?$char_traits@D@std@@V?$allocator@D@2@@2@@std@@@2@$0A@@std@@SAABU?$pair@V?$basic_string@DU?$char_traits@D@std@@V?$allocator@D@2@@std@@V12@@2@ABU?$pair@$$CBU?$pair@V?$basic_string@DU?$char_traits@D@std@@V?$allocator@D@2@@std@@V12@@std@@V?$basic_string@DU?$char_traits@D@std@@V?$allocator@D@2@@2@@2@@Z 004019d0 f i IniFile.obj
 0001:000009e0       ??0?$allocator@U?$pair@$$CBU?$pair@V?$basic_string@DU?$char_traits@D@std@@V?$allocator@D@2@@std@@V12@@std@@V?$basic_string@DU?$char_traits@D@std@@V?$allocator@D@2@@2@@std@@@std@@QAE@XZ 004019e0 f i IniFile.obj
 0001:000009f0       ?_Mynode@const_iterator@?$_Tree@V?$_Tmap_traits@U?$pair@V?$basic_string@DU?$char_traits@D@std@@V?$allocator@D@2@@std@@V12@@std@@V?$basic_string@DU?$char_traits@D@std@@V?$allocator@D@2@@2@U?$less@U?$pair@V?$basic_string@DU?$char_traits@D@std@@V?$allocator@D@2@@std@@V12@@std@@@2@V?$allocator@U?$pair@$$CBU?$pair@V?$basic_string@DU?$char_traits@D@std@@V?$allocator@D@2@@std@@V12@@std@@V?$basic_string@DU?$char_traits@D@std@@V?$allocator@D@2@@2@@std@@@2@$0A@@std@@@std@@QBEPAU_Node@?$_Tree_nod@V?$_Tmap_traits@U?$pair@V?$basic_string@DU?$char_traits@D@std@@V?$allocator@D@2@@std@@V12@@std@@V?$basic_string@DU?$char_traits@D@std@@V?$allocator@D@2@@2@U?$less@U?$pair@V?$basic_string@DU?$char_traits@D@std@@V?$allocator@D@2@@std@@V12@@std@@@2@V?$allocator@U?$pair@$$CBU?$pair@V?$basic_string@DU?$char_traits@D@std@@V?$allocator@D@2@@std@@V12@@std@@V?$basic_string@DU?$char_traits@D@std@@V?$allocator@D@2@@2@@std@@@2@$0A@@std@@@3@XZ 004019f0 f i IniFile.obj
 0001:00000a00       ??0?$pair@Viterator@?$_Tree@V?$_Tmap_traits@U?$pair@V?$basic_string@DU?$char_traits@D@std@@V?$allocator@D@2@@std@@V12@@std@@V?$basic_string@DU?$char_traits@D@std@@V?$allocator@D@2@@2@U?$less@U?$pair@V?$basic_string@DU?$char_traits@D@std@@V?$allocator@D@2@@std@@V12@@std@@@2@V?$allocator@U?$pair@$$CBU?$pair@V?$basic_string@DU?$char_traits@D@std@@V?$allocator@D@2@@std@@V12@@std@@V?$basic_string@DU?$char_traits@D@std@@V?$allocator@D@2@@2@@std@@@2@$0A@@std@@@std@@_N@std@@QAE@ABViterator@?$_Tree@V?$_Tmap_traits@U?$pair@V?$basic_string@DU?$char_traits@D@std@@V?$allocator@D@2@@std@@V12@@std@@V?$basic_string@DU?$char_traits@D@std@@V?$allocator@D@2@@2@U?$less@U?$pair@V?$basic_string@DU?$char_traits@D@std@@V?$allocator@D@2@@std@@V12@@std@@@2@V?$allocator@U?$pair@$$CBU?$pair@V?$basic_string@DU?$char_traits@D@std@@V?$allocator@D@2@@std@@V12@@std@@V?$basic_string@DU?$char_traits@D@std@@V?$allocator@D@2@@2@@std@@@2@$0A@@std@@@1@AB_N@Z 00401a00 f i IniFile.obj
 0001:00000a20       ?_Chassign@?$basic_string@DU?$char_traits@D@std@@V?$allocator@D@2@@std@@IAEXIID@Z 00401a20 f i IniFile.obj
 0001:00000a80       ?_Eos@?$basic_string@DU?$char_traits@D@std@@V?$allocator@D@2@@std@@IAEXI@Z 00401a80 f i IniFile.obj
 0001:00000aa0       ?deallocate@?$allocator@D@std@@QAEXPADI@Z 00401aa0 f i IniFile.obj
 0001:00000ab0       ?tie@?$basic_ios@DU?$char_traits@D@std@@@std@@QBEPAV?$basic_ostream@DU?$char_traits@D@std@@@2@XZ 00401ab0 f i IniFile.obj
 0001:00000ac0       ?getloc@?$basic_streambuf@DU?$char_traits@D@std@@@std@@QBE?AVlocale@2@XZ 00401ac0 f i IniFile.obj
 0001:00000b00       ?_Lock@?$basic_streambuf@DU?$char_traits@D@std@@@std@@QAEXXZ 00401b00 f i IniFile.obj
 0001:00000b10       ?_Init@?$basic_streambuf@DU?$char_traits@D@std@@@std@@IAEXPAPAD0PAH001@Z 00401b10 f i IniFile.obj
 0001:00000b40       ?_Color@?$_Tree@V?$_Tmap_traits@U?$pair@V?$basic_string@DU?$char_traits@D@std@@V?$allocator@D@2@@std@@V12@@std@@V?$basic_string@DU?$char_traits@D@std@@V?$allocator@D@2@@2@U?$less@U?$pair@V?$basic_string@DU?$char_traits@D@std@@V?$allocator@D@2@@std@@V12@@std@@@2@V?$allocator@U?$pair@$$CBU?$pair@V?$basic_string@DU?$char_traits@D@std@@V?$allocator@D@2@@std@@V12@@std@@V?$basic_string@DU?$char_traits@D@std@@V?$allocator@D@2@@2@@std@@@2@$0A@@std@@@std@@KAAADPAU_Node@?$_Tree_nod@V?$_Tmap_traits@U?$pair@V?$basic_string@DU?$char_traits@D@std@@V?$allocator@D@2@@std@@V12@@std@@V?$basic_string@DU?$char_traits@D@std@@V?$allocator@D@2@@2@U?$less@U?$pair@V?$basic_string@DU?$char_traits@D@std@@V?$allocator@D@2@@std@@V12@@std@@@2@V?$allocator@U?$pair@$$CBU?$pair@V?$basic_string@DU?$char_traits@D@std@@V?$allocator@D@2@@std@@V12@@std@@V?$basic_string@DU?$char_traits@D@std@@V?$allocator@D@2@@2@@std@@@2@$0A@@std@@@2@@Z 00401b40 f i IniFile.obj
 0001:00000b50       ?_Parent@?$_Tree@V?$_Tmap_traits@U?$pair@V?$basic_string@DU?$char_traits@D@std@@V?$allocator@D@2@@std@@V12@@std@@V?$basic_string@DU?$char_traits@D@std@@V?$allocator@D@2@@2@U?$less@U?$pair@V?$basic_string@DU?$char_traits@D@std@@V?$allocator@D@2@@std@@V12@@std@@@2@V?$allocator@U?$pair@$$CBU?$pair@V?$basic_string@DU?$char_traits@D@std@@V?$allocator@D@2@@std@@V12@@std@@V?$basic_string@DU?$char_traits@D@std@@V?$allocator@D@2@@2@@std@@@2@$0A@@std@@@std@@KAAAPAU_Node@?$_Tree_nod@V?$_Tmap_traits@U?$pair@V?$basic_string@DU?$char_traits@D@std@@V?$allocator@D@2@@std@@V12@@std@@V?$basic_string@DU?$char_traits@D@std@@V?$allocator@D@2@@2@U?$less@U?$pair@V?$basic_string@DU?$char_traits@D@std@@V?$allocator@D@2@@std@@V12@@std@@@2@V?$allocator@U?$pair@$$CBU?$pair@V?$basic_string@DU?$char_traits@D@std@@V?$allocator@D@2@@std@@V12@@std@@V?$basic_string@DU?$char_traits@D@std@@V?$allocator@D@2@@2@@std@@@2@$0A@@std@@@2@PAU342@@Z 00401b50 f i IniFile.obj
 0001:00000b60       ?_Myval@?$_Tree@V?$_Tmap_traits@U?$pair@V?$basic_string@DU?$char_traits@D@std@@V?$allocator@D@2@@std@@V12@@std@@V?$basic_string@DU?$char_traits@D@std@@V?$allocator@D@2@@2@U?$less@U?$pair@V?$basic_string@DU?$char_traits@D@std@@V?$allocator@D@2@@std@@V12@@std@@@2@V?$allocator@U?$pair@$$CBU?$pair@V?$basic_string@DU?$char_traits@D@std@@V?$allocator@D@2@@std@@V12@@std@@V?$basic_string@DU?$char_traits@D@std@@V?$allocator@D@2@@2@@std@@@2@$0A@@std@@@std@@KAAAU?$pair@$$CBU?$pair@V?$basic_string@DU?$char_traits@D@std@@V?$allocator@D@2@@std@@V12@@std@@V?$basic_string@DU?$char_traits@D@std@@V?$allocator@D@2@@2@@2@PAU_Node@?$_Tree_nod@V?$_Tmap_traits@U?$pair@V?$basic_string@DU?$char_traits@D@std@@V?$allocator@D@2@@std@@V12@@std@@V?$basic_string@DU?$char_traits@D@std@@V?$allocator@D@2@@2@U?$less@U?$pair@V?$basic_string@DU?$char_traits@D@std@@V?$allocator@D@2@@std@@V12@@std@@@2@V?$allocator@U?$pair@$$CBU?$pair@V?$basic_string@DU?$char_traits@D@std@@V?$allocator@D@2@@std@@V12@@std@@V?$basic_string@DU?$char_traits@D@std@@V?$allocator@D@2@@2@@std@@@2@$0A@@std@@@2@@Z 00401b60 f i IniFile.obj
 0001:00000b70       ?_Lmost@?$_Tree@V?$_Tmap_traits@U?$pair@V?$basic_string@DU?$char_traits@D@std@@V?$allocator@D@2@@std@@V12@@std@@V?$basic_string@DU?$char_traits@D@std@@V?$allocator@D@2@@2@U?$less@U?$pair@V?$basic_string@DU?$char_traits@D@std@@V?$allocator@D@2@@std@@V12@@std@@@2@V?$allocator@U?$pair@$$CBU?$pair@V?$basic_string@DU?$char_traits@D@std@@V?$allocator@D@2@@std@@V12@@std@@V?$basic_string@DU?$char_traits@D@std@@V?$allocator@D@2@@2@@std@@@2@$0A@@std@@@std@@IBEAAPAU_Node@?$_Tree_nod@V?$_Tmap_traits@U?$pair@V?$basic_string@DU?$char_traits@D@std@@V?$allocator@D@2@@std@@V12@@std@@V?$basic_string@DU?$char_traits@D@std@@V?$allocator@D@2@@2@U?$less@U?$pair@V?$basic_string@DU?$char_traits@D@std@@V?$allocator@D@2@@std@@V12@@std@@@2@V?$allocator@U?$pair@$$CBU?$pair@V?$basic_string@DU?$char_traits@D@std@@V?$allocator@D@2@@std@@V12@@std@@V?$basic_string@DU?$char_traits@D@std@@V?$allocator@D@2@@2@@std@@@2@$0A@@std@@@2@XZ 00401b70 f i IniFile.obj
 0001:00000b80       ?_Rmost@?$_Tree@V?$_Tmap_traits@U?$pair@V?$basic_string@DU?$char_traits@D@std@@V?$allocator@D@2@@std@@V12@@std@@V?$basic_string@DU?$char_traits@D@std@@V?$allocator@D@2@@2@U?$less@U?$pair@V?$basic_string@DU?$char_traits@D@std@@V?$allocator@D@2@@std@@V12@@std@@@2@V?$allocator@U?$pair@$$CBU?$pair@V?$basic_string@DU?$char_traits@D@std@@V?$allocator@D@2@@std@@V12@@std@@V?$basic_string@DU?$char_traits@D@std@@V?$allocator@D@2@@2@@std@@@2@$0A@@std@@@std@@IBEAAPAU_Node@?$_Tree_nod@V?$_Tmap_traits@U?$pair@V?$basic_string@DU?$char_traits@D@std@@V?$allocator@D@2@@std@@V12@@std@@V?$basic_string@DU?$char_traits@D@std@@V?$allocator@D@2@@2@U?$less@U?$pair@V?$basic_string@DU?$char_traits@D@std@@V?$allocator@D@2@@std@@V12@@std@@@2@V?$allocator@U?$pair@$$CBU?$pair@V?$basic_string@DU?$char_traits@D@std@@V?$allocator@D@2@@std@@V12@@std@@V?$basic_string@DU?$char_traits@D@std@@V?$allocator@D@2@@2@@std@@@2@$0A@@std@@@2@XZ 00401b80 f i IniFile.obj
 0001:00000b90       ??0?$allocator@U?$pair@$$CBU?$pair@V?$basic_string@DU?$char_traits@D@std@@V?$allocator@D@2@@std@@V12@@std@@V?$basic_string@DU?$char_traits@D@std@@V?$allocator@D@2@@2@@std@@@std@@QAE@ABV01@@Z 00401b90 f i IniFile.obj
 0001:00000ba0       ?deallocate@?$allocator@U_Node@?$_Tree_nod@V?$_Tmap_traits@U?$pair@V?$basic_string@DU?$char_traits@D@std@@V?$allocator@D@2@@std@@V12@@std@@V?$basic_string@DU?$char_traits@D@std@@V?$allocator@D@2@@2@U?$less@U?$pair@V?$basic_string@DU?$char_traits@D@std@@V?$allocator@D@2@@std@@V12@@std@@@2@V?$allocator@U?$pair@$$CBU?$pair@V?$basic_string@DU?$char_traits@D@std@@V?$allocator@D@2@@std@@V12@@std@@V?$basic_string@DU?$char_traits@D@std@@V?$allocator@D@2@@2@@std@@@2@$0A@@std@@@std@@@std@@QAEXPAU_Node@?$_Tree_nod@V?$_Tmap_traits@U?$pair@V?$basic_string@DU?$char_traits@D@std@@V?$allocator@D@2@@std@@V12@@std@@V?$basic_string@DU?$char_traits@D@std@@V?$allocator@D@2@@2@U?$less@U?$pair@V?$basic_string@DU?$char_traits@D@std@@V?$allocator@D@2@@std@@V12@@std@@@2@V?$allocator@U?$pair@$$CBU?$pair@V?$basic_string@DU?$char_traits@D@std@@V?$allocator@D@2@@std@@V12@@std@@V?$basic_string@DU?$char_traits@D@std@@V?$allocator@D@2@@2@@std@@@2@$0A@@std@@@2@I@Z 00401ba0 f i IniFile.obj
 0001:00000bb0       ??Dconst_iterator@?$_Tree@V?$_Tmap_traits@U?$pair@V?$basic_string@DU?$char_traits@D@std@@V?$allocator@D@2@@std@@V12@@std@@V?$basic_string@DU?$char_traits@D@std@@V?$allocator@D@2@@2@U?$less@U?$pair@V?$basic_string@DU?$char_traits@D@std@@V?$allocator@D@2@@std@@V12@@std@@@2@V?$allocator@U?$pair@$$CBU?$pair@V?$basic_string@DU?$char_traits@D@std@@V?$allocator@D@2@@std@@V12@@std@@V?$basic_string@DU?$char_traits@D@std@@V?$allocator@D@2@@2@@std@@@2@$0A@@std@@@std@@QBEABU?$pair@$$CBU?$pair@V?$basic_string@DU?$char_traits@D@std@@V?$allocator@D@2@@std@@V12@@std@@V?$basic_string@DU?$char_traits@D@std@@V?$allocator@D@2@@2@@2@XZ 00401bb0 f i IniFile.obj
 0001:00000be0       ??D?$_String_const_iterator@DU?$char_traits@D@std@@V?$allocator@D@2@@std@@QBEABDXZ 00401be0 f i IniFile.obj
 0001:00000c20       ?unshift@?$codecvt@DDH@std@@QBEHAAHPAD1AAPAD@Z 00401c20 f i IniFile.obj
 0001:00000c30       ??0?$_Bidit@U?$pair@$$CBU?$pair@V?$basic_string@DU?$char_traits@D@std@@V?$allocator@D@2@@std@@V12@@std@@V?$basic_string@DU?$char_traits@D@std@@V?$allocator@D@2@@2@@std@@HPBU12@ABU12@@std@@QAE@XZ 00401c30 f i IniFile.obj
 0001:00000c40       ?_Inside@?$basic_string@DU?$char_traits@D@std@@V?$allocator@D@2@@std@@IAE_NPBD@Z 00401c40 f i IniFile.obj
 0001:00000c80       ?setp@?$basic_streambuf@DU?$char_traits@D@std@@@std@@IAEXPAD0@Z 00401c80 f i IniFile.obj
 0001:00000ca0       ?max_size@?$allocator@U?$pair@$$CBU?$pair@V?$basic_string@DU?$char_traits@D@std@@V?$allocator@D@2@@std@@V12@@std@@V?$basic_string@DU?$char_traits@D@std@@V?$allocator@D@2@@2@@std@@@std@@QBEIXZ 00401ca0 f i IniFile.obj
 0001:00000cb0       ??0?$_Ranit_base@DHPBDABDU_Iterator_base@std@@@std@@QAE@XZ 00401cb0 f i IniFile.obj
 0001:00000cc0       ?max_size@?$allocator@D@std@@QBEIXZ 00401cc0 f i IniFile.obj
 0001:00000cd0       ?_Max@?$_Tree@V?$_Tmap_traits@U?$pair@V?$basic_string@DU?$char_traits@D@std@@V?$allocator@D@2@@std@@V12@@std@@V?$basic_string@DU?$char_traits@D@std@@V?$allocator@D@2@@2@U?$less@U?$pair@V?$basic_string@DU?$char_traits@D@std@@V?$allocator@D@2@@std@@V12@@std@@@2@V?$allocator@U?$pair@$$CBU?$pair@V?$basic_string@DU?$char_traits@D@std@@V?$allocator@D@2@@std@@V12@@std@@V?$basic_string@DU?$char_traits@D@std@@V?$allocator@D@2@@2@@std@@@2@$0A@@std@@@std@@KAPAU_Node@?$_Tree_nod@V?$_Tmap_traits@U?$pair@V?$basic_string@DU?$char_traits@D@std@@V?$allocator@D@2@@std@@V12@@std@@V?$basic_string@DU?$char_traits@D@std@@V?$allocator@D@2@@2@U?$less@U?$pair@V?$basic_string@DU?$char_traits@D@std@@V?$allocator@D@2@@std@@V12@@std@@@2@V?$allocator@U?$pair@$$CBU?$pair@V?$basic_string@DU?$char_traits@D@std@@V?$allocator@D@2@@std@@V12@@std@@V?$basic_string@DU?$char_traits@D@std@@V?$allocator@D@2@@2@@std@@@2@$0A@@std@@@2@PAU342@@Z 00401cd0 f i IniFile.obj
 0001:00000cf0       ?_Min@?$_Tree@V?$_Tmap_traits@U?$pair@V?$basic_string@DU?$char_traits@D@std@@V?$allocator@D@2@@std@@V12@@std@@V?$basic_string@DU?$char_traits@D@std@@V?$allocator@D@2@@2@U?$less@U?$pair@V?$basic_string@DU?$char_traits@D@std@@V?$allocator@D@2@@std@@V12@@std@@@2@V?$allocator@U?$pair@$$CBU?$pair@V?$basic_string@DU?$char_traits@D@std@@V?$allocator@D@2@@std@@V12@@std@@V?$basic_string@DU?$char_traits@D@std@@V?$allocator@D@2@@2@@std@@@2@$0A@@std@@@std@@KAPAU_Node@?$_Tree_nod@V?$_Tmap_traits@U?$pair@V?$basic_string@DU?$char_traits@D@std@@V?$allocator@D@2@@std@@V12@@std@@V?$basic_string@DU?$char_traits@D@std@@V?$allocator@D@2@@2@U?$less@U?$pair@V?$basic_string@DU?$char_traits@D@std@@V?$allocator@D@2@@std@@V12@@std@@@2@V?$allocator@U?$pair@$$CBU?$pair@V?$basic_string@DU?$char_traits@D@std@@V?$allocator@D@2@@std@@V12@@std@@V?$basic_string@DU?$char_traits@D@std@@V?$allocator@D@2@@2@@std@@@2@$0A@@std@@@2@PAU342@@Z 00401cf0 f i IniFile.obj
 0001:00000d10       ??0?$_Tmap_traits@U?$pair@V?$basic_string@DU?$char_traits@D@std@@V?$allocator@D@2@@std@@V12@@std@@V?$basic_string@DU?$char_traits@D@std@@V?$allocator@D@2@@2@U?$less@U?$pair@V?$basic_string@DU?$char_traits@D@std@@V?$allocator@D@2@@std@@V12@@std@@@2@V?$allocator@U?$pair@$$CBU?$pair@V?$basic_string@DU?$char_traits@D@std@@V?$allocator@D@2@@std@@V12@@std@@V?$basic_string@DU?$char_traits@D@std@@V?$allocator@D@2@@2@@std@@@2@$0A@@std@@QAE@U?$less@U?$pair@V?$basic_string@DU?$char_traits@D@std@@V?$allocator@D@2@@std@@V12@@std@@@1@@Z 00401d10 f i IniFile.obj
 0001:00000d20       ?_Inc@const_iterator@?$_Tree@V?$_Tmap_traits@U?$pair@V?$basic_string@DU?$char_traits@D@std@@V?$allocator@D@2@@std@@V12@@std@@V?$basic_string@DU?$char_traits@D@std@@V?$allocator@D@2@@2@U?$less@U?$pair@V?$basic_string@DU?$char_traits@D@std@@V?$allocator@D@2@@std@@V12@@std@@@2@V?$allocator@U?$pair@$$CBU?$pair@V?$basic_string@DU?$char_traits@D@std@@V?$allocator@D@2@@std@@V12@@std@@V?$basic_string@DU?$char_traits@D@std@@V?$allocator@D@2@@2@@std@@@2@$0A@@std@@@std@@QAEXXZ 00401d20 f i IniFile.obj
 0001:00000d90       ??$_Destroy@PAU_Node@?$_Tree_nod@V?$_Tmap_traits@U?$pair@V?$basic_string@DU?$char_traits@D@std@@V?$allocator@D@2@@std@@V12@@std@@V?$basic_string@DU?$char_traits@D@std@@V?$allocator@D@2@@2@U?$less@U?$pair@V?$basic_string@DU?$char_traits@D@std@@V?$allocator@D@2@@std@@V12@@std@@@2@V?$allocator@U?$pair@$$CBU?$pair@V?$basic_string@DU?$char_traits@D@std@@V?$allocator@D@2@@std@@V12@@std@@V?$basic_string@DU?$char_traits@D@std@@V?$allocator@D@2@@2@@std@@@2@$0A@@std@@@std@@@std@@YAXPAPAU_Node@?$_Tree_nod@V?$_Tmap_traits@U?$pair@V?$basic_string@DU?$char_traits@D@std@@V?$allocator@D@2@@std@@V12@@std@@V?$basic_string@DU?$char_traits@D@std@@V?$allocator@D@2@@2@U?$less@U?$pair@V?$basic_string@DU?$char_traits@D@std@@V?$allocator@D@2@@std@@V12@@std@@@2@V?$allocator@U?$pair@$$CBU?$pair@V?$basic_string@DU?$char_traits@D@std@@V?$allocator@D@2@@std@@V12@@std@@V?$basic_string@DU?$char_traits@D@std@@V?$allocator@D@2@@2@@std@@@2@$0A@@std@@@0@@Z 00401d90 f i IniFile.obj
 0001:00000da0       ??$swap@D@std@@YAXAAD0@Z   00401da0 f i IniFile.obj
 0001:00000dc0       ??$?0U?$pair@$$CBU?$pair@V?$basic_string@DU?$char_traits@D@std@@V?$allocator@D@2@@std@@V12@@std@@V?$basic_string@DU?$char_traits@D@std@@V?$allocator@D@2@@2@@std@@@?$allocator@PAU_Node@?$_Tree_nod@V?$_Tmap_traits@U?$pair@V?$basic_string@DU?$char_traits@D@std@@V?$allocator@D@2@@std@@V12@@std@@V?$basic_string@DU?$char_traits@D@std@@V?$allocator@D@2@@2@U?$less@U?$pair@V?$basic_string@DU?$char_traits@D@std@@V?$allocator@D@2@@std@@V12@@std@@@2@V?$allocator@U?$pair@$$CBU?$pair@V?$basic_string@DU?$char_traits@D@std@@V?$allocator@D@2@@std@@V12@@std@@V?$basic_string@DU?$char_traits@D@std@@V?$allocator@D@2@@2@@std@@@2@$0A@@std@@@std@@@std@@QAE@ABV?$allocator@U?$pair@$$CBU?$pair@V?$basic_string@DU?$char_traits@D@std@@V?$allocator@D@2@@std@@V12@@std@@V?$basic_string@DU?$char_traits@D@std@@V?$allocator@D@2@@2@@std@@@1@@Z 00401dc0 f i IniFile.obj
 0001:00000dd0       ??$_Allocate@U_Node@?$_Tree_nod@V?$_Tmap_traits@U?$pair@V?$basic_string@DU?$char_traits@D@std@@V?$allocator@D@2@@std@@V12@@std@@V?$basic_string@DU?$char_traits@D@std@@V?$allocator@D@2@@2@U?$less@U?$pair@V?$basic_string@DU?$char_traits@D@std@@V?$allocator@D@2@@std@@V12@@std@@@2@V?$allocator@U?$pair@$$CBU?$pair@V?$basic_string@DU?$char_traits@D@std@@V?$allocator@D@2@@std@@V12@@std@@V?$basic_string@DU?$char_traits@D@std@@V?$allocator@D@2@@2@@std@@@2@$0A@@std@@@std@@@std@@YAPAU_Node@?$_Tree_nod@V?$_Tmap_traits@U?$pair@V?$basic_string@DU?$char_traits@D@std@@V?$allocator@D@2@@std@@V12@@std@@V?$basic_string@DU?$char_traits@D@std@@V?$allocator@D@2@@2@U?$less@U?$pair@V?$basic_string@DU?$char_traits@D@std@@V?$allocator@D@2@@std@@V12@@std@@@2@V?$allocator@U?$pair@$$CBU?$pair@V?$basic_string@DU?$char_traits@D@std@@V?$allocator@D@2@@std@@V12@@std@@V?$basic_string@DU?$char_traits@D@std@@V?$allocator@D@2@@2@@std@@@2@$0A@@std@@@0@IPAU120@@Z 00401dd0 f i IniFile.obj
 0001:00000e30       ??$_Allocate@D@std@@YAPADIPAD@Z 00401e30 f i IniFile.obj
 0001:00000e90       ??$?0U?$pair@$$CBU?$pair@V?$basic_string@DU?$char_traits@D@std@@V?$allocator@D@2@@std@@V12@@std@@V?$basic_string@DU?$char_traits@D@std@@V?$allocator@D@2@@2@@std@@@?$allocator@U_Node@?$_Tree_nod@V?$_Tmap_traits@U?$pair@V?$basic_string@DU?$char_traits@D@std@@V?$allocator@D@2@@std@@V12@@std@@V?$basic_string@DU?$char_traits@D@std@@V?$allocator@D@2@@2@U?$less@U?$pair@V?$basic_string@DU?$char_traits@D@std@@V?$allocator@D@2@@std@@V12@@std@@@2@V?$allocator@U?$pair@$$CBU?$pair@V?$basic_string@DU?$char_traits@D@std@@V?$allocator@D@2@@std@@V12@@std@@V?$basic_string@DU?$char_traits@D@std@@V?$allocator@D@2@@2@@std@@@2@$0A@@std@@@std@@@std@@QAE@ABV?$allocator@U?$pair@$$CBU?$pair@V?$basic_string@DU?$char_traits@D@std@@V?$allocator@D@2@@std@@V12@@std@@V?$basic_string@DU?$char_traits@D@std@@V?$allocator@D@2@@2@@std@@@1@@Z 00401e90 f i IniFile.obj
 0001:00000ea0       ??$_Construct@PAU_Node@?$_Tree_nod@V?$_Tmap_traits@U?$pair@V?$basic_string@DU?$char_traits@D@std@@V?$allocator@D@2@@std@@V12@@std@@V?$basic_string@DU?$char_traits@D@std@@V?$allocator@D@2@@2@U?$less@U?$pair@V?$basic_string@DU?$char_traits@D@std@@V?$allocator@D@2@@std@@V12@@std@@@2@V?$allocator@U?$pair@$$CBU?$pair@V?$basic_string@DU?$char_traits@D@std@@V?$allocator@D@2@@std@@V12@@std@@V?$basic_string@DU?$char_traits@D@std@@V?$allocator@D@2@@2@@std@@@2@$0A@@std@@@std@@PAU123@@std@@YAXPAPAU_Node@?$_Tree_nod@V?$_Tmap_traits@U?$pair@V?$basic_string@DU?$char_traits@D@std@@V?$allocator@D@2@@std@@V12@@std@@V?$basic_string@DU?$char_traits@D@std@@V?$allocator@D@2@@2@U?$less@U?$pair@V?$basic_string@DU?$char_traits@D@std@@V?$allocator@D@2@@std@@V12@@std@@@2@V?$allocator@U?$pair@$$CBU?$pair@V?$basic_string@DU?$char_traits@D@std@@V?$allocator@D@2@@std@@V12@@std@@V?$basic_string@DU?$char_traits@D@std@@V?$allocator@D@2@@2@@std@@@2@$0A@@std@@@0@ABQAU120@@Z 00401ea0 f i IniFile.obj
 0001:00000ec0       ??0bad_alloc@std@@QAE@ABV01@@Z 00401ec0 f i IniFile.obj
 0001:00000ee0       ?_Init@?$codecvt@DDH@std@@IAEXABV_Locinfo@2@@Z 00401ee0 f i IniFile.obj
 0001:00000ef0       ??$_Char_traits_cat@U?$char_traits@D@std@@@std@@YA?AU_Secure_char_traits_tag@0@XZ 00401ef0 f i IniFile.obj
 0001:00000f00       ??$copy_s@U?$char_traits@D@std@@@_Traits_helper@std@@YAPADPADIPBDIU_Secure_char_traits_tag@1@@Z 00401f00 f i IniFile.obj
 0001:00000f30       ??$move_s@U?$char_traits@D@std@@@_Traits_helper@std@@YAPADPADIPBDIU_Secure_char_traits_tag@1@@Z 00401f30 f i IniFile.obj
 0001:00000f60       ??A?$basic_string@DU?$char_traits@D@std@@V?$allocator@D@2@@std@@QAEAADI@Z 00401f60 f i IniFile.obj
 0001:00000f90       ??A?$basic_string@DU?$char_traits@D@std@@V?$allocator@D@2@@std@@QBEABDI@Z 00401f90 f i IniFile.obj
 0001:00000fc0       ?c_str@?$basic_string@DU?$char_traits@D@std@@V?$allocator@D@2@@std@@QBEPBDXZ 00401fc0 f i IniFile.obj
 0001:00000fd0       ??1_Sentry_base@?$basic_istream@DU?$char_traits@D@std@@@std@@QAE@XZ 00401fd0 f i IniFile.obj
 0001:00000ff0       ??1?$basic_streambuf@DU?$char_traits@D@std@@@std@@UAE@XZ 00401ff0 f i IniFile.obj
 0001:00001070       ?overflow@?$basic_streambuf@DU?$char_traits@D@std@@@std@@MAEHH@Z 00402070 f i IniFile.obj
 0001:00001080       ?pbackfail@?$basic_streambuf@DU?$char_traits@D@std@@@std@@MAEHH@Z 00402080 f i IniFile.obj
 0001:00001090       ?showmanyc@?$basic_streambuf@DU?$char_traits@D@std@@@std@@MAEHXZ 00402090 f i IniFile.obj
 0001:000010a0       ?underflow@?$basic_streambuf@DU?$char_traits@D@std@@@std@@MAEHXZ 004020a0 f i IniFile.obj
 0001:000010b0       ?xsgetn@?$basic_streambuf@DU?$char_traits@D@std@@@std@@MAEHPADH@Z 004020b0 f i IniFile.obj
 0001:000010d0       ?setbuf@?$basic_streambuf@DU?$char_traits@D@std@@@std@@MAEPAV12@PADH@Z 004020d0 f i IniFile.obj
 0001:000010e0       ?sync@?$basic_streambuf@DU?$char_traits@D@std@@@std@@MAEHXZ 004020e0 f i IniFile.obj
 0001:000010f0       ?imbue@?$basic_streambuf@DU?$char_traits@D@std@@@std@@MAEXABVlocale@2@@Z 004020f0 f i IniFile.obj
 0001:00001100       ?pptr@?$basic_streambuf@DU?$char_traits@D@std@@@std@@IBEPADXZ 00402100 f i IniFile.obj
 0001:00001110       ?gbump@?$basic_streambuf@DU?$char_traits@D@std@@@std@@IAEXH@Z 00402110 f i IniFile.obj
 0001:00001130       ?pbump@?$basic_streambuf@DU?$char_traits@D@std@@@std@@IAEXH@Z 00402130 f i IniFile.obj
 0001:00001150       ?_Pnavail@?$basic_streambuf@DU?$char_traits@D@std@@@std@@IBEHXZ 00402150 f i IniFile.obj
 0001:00001170       ??0?$fpos@H@std@@QAE@J@Z   00402170 f i IniFile.obj
 0001:00001190       ?sgetc@?$basic_streambuf@DU?$char_traits@D@std@@@std@@QAEHXZ 00402190 f i IniFile.obj
 0001:000011b0       ?uflow@?$basic_streambuf@DU?$char_traits@D@std@@@std@@MAEHXZ 004021b0 f i IniFile.obj
 0001:000011e0       ?seekoff@?$basic_streambuf@DU?$char_traits@D@std@@@std@@MAE?AV?$fpos@H@2@JHH@Z 004021e0 f i IniFile.obj
 0001:00001200       ?seekpos@?$basic_streambuf@DU?$char_traits@D@std@@@std@@MAE?AV?$fpos@H@2@V32@H@Z 00402200 f i IniFile.obj
 0001:00001220       ?is_open@?$basic_ifstream@DU?$char_traits@D@std@@@std@@QBE_NXZ 00402220 f i IniFile.obj
 0001:00001230       ??_G?$basic_istream@DU?$char_traits@D@std@@@std@@UAEPAXI@Z 00402230 f i IniFile.obj
 0001:00001230       ??_E?$basic_istream@DU?$char_traits@D@std@@@std@@UAEPAXI@Z 00402230 f i IniFile.obj
 0001:00001270       ??_G?$basic_streambuf@DU?$char_traits@D@std@@@std@@UAEPAXI@Z 00402270 f i IniFile.obj
 0001:00001270       ??_E?$basic_streambuf@DU?$char_traits@D@std@@@std@@UAEPAXI@Z 00402270 f i IniFile.obj
 0001:00001290       ?find@?$basic_string@DU?$char_traits@D@std@@V?$allocator@D@2@@std@@QBEIPBDII@Z 00402290 f i IniFile.obj
 0001:00001350       ?compare@?$basic_string@DU?$char_traits@D@std@@V?$allocator@D@2@@std@@QBEHIIPBDI@Z 00402350 f i IniFile.obj
 0001:000013c0       ??0?$_String_val@DV?$allocator@D@std@@@std@@IAE@V?$allocator@D@1@@Z 004023c0 f i IniFile.obj
 0001:000013d0       ??0_Sentry_base@?$basic_istream@DU?$char_traits@D@std@@@std@@QAE@AAV12@@Z 004023d0 f i IniFile.obj
 0001:00001400       ?sbumpc@?$basic_streambuf@DU?$char_traits@D@std@@@std@@QAEHXZ 00402400 f i IniFile.obj
 0001:00001430       ?_Key@?$_Tree@V?$_Tmap_traits@U?$pair@V?$basic_string@DU?$char_traits@D@std@@V?$allocator@D@2@@std@@V12@@std@@V?$basic_string@DU?$char_traits@D@std@@V?$allocator@D@2@@2@U?$less@U?$pair@V?$basic_string@DU?$char_traits@D@std@@V?$allocator@D@2@@std@@V12@@std@@@2@V?$allocator@U?$pair@$$CBU?$pair@V?$basic_string@DU?$char_traits@D@std@@V?$allocator@D@2@@std@@V12@@std@@V?$basic_string@DU?$char_traits@D@std@@V?$allocator@D@2@@2@@std@@@2@$0A@@std@@@std@@KAABU?$pair@V?$basic_string@DU?$char_traits@D@std@@V?$allocator@D@2@@std@@V12@@2@PAU_Node@?$_Tree_nod@V?$_Tmap_traits@U?$pair@V?$basic_string@DU?$char_traits@D@std@@V?$allocator@D@2@@std@@V12@@std@@V?$basic_string@DU?$char_traits@D@std@@V?$allocator@D@2@@2@U?$less@U?$pair@V?$basic_string@DU?$char_traits@D@std@@V?$allocator@D@2@@std@@V12@@std@@@2@V?$allocator@U?$pair@$$CBU?$pair@V?$basic_string@DU?$char_traits@D@std@@V?$allocator@D@2@@std@@V12@@std@@V?$basic_string@DU?$char_traits@D@std@@V?$allocator@D@2@@2@@std@@@2@$0A@@std@@@2@@Z 00402430 f i IniFile.obj
 0001:00001440       ?_Root@?$_Tree@V?$_Tmap_traits@U?$pair@V?$basic_string@DU?$char_traits@D@std@@V?$allocator@D@2@@std@@V12@@std@@V?$basic_string@DU?$char_traits@D@std@@V?$allocator@D@2@@2@U?$less@U?$pair@V?$basic_string@DU?$char_traits@D@std@@V?$allocator@D@2@@std@@V12@@std@@@2@V?$allocator@U?$pair@$$CBU?$pair@V?$basic_string@DU?$char_traits@D@std@@V?$allocator@D@2@@std@@V12@@std@@V?$basic_string@DU?$char_traits@D@std@@V?$allocator@D@2@@2@@std@@@2@$0A@@std@@@std@@IBEAAPAU_Node@?$_Tree_nod@V?$_Tmap_traits@U?$pair@V?$basic_string@DU?$char_traits@D@std@@V?$allocator@D@2@@std@@V12@@std@@V?$basic_string@DU?$char_traits@D@std@@V?$allocator@D@2@@2@U?$less@U?$pair@V?$basic_string@DU?$char_traits@D@std@@V?$allocator@D@2@@std@@V12@@std@@@2@V?$allocator@U?$pair@$$CBU?$pair@V?$basic_string@DU?$char_traits@D@std@@V?$allocator@D@2@@std@@V12@@std@@V?$basic_string@DU?$char_traits@D@std@@V?$allocator@D@2@@2@@std@@@2@$0A@@std@@@2@XZ 00402440 f i IniFile.obj
 0001:00001450       ??Diterator@?$_Tree@V?$_Tmap_traits@U?$pair@V?$basic_string@DU?$char_traits@D@std@@V?$allocator@D@2@@std@@V12@@std@@V?$basic_string@DU?$char_traits@D@std@@V?$allocator@D@2@@2@U?$less@U?$pair@V?$basic_string@DU?$char_traits@D@std@@V?$allocator@D@2@@std@@V12@@std@@@2@V?$allocator@U?$pair@$$CBU?$pair@V?$basic_string@DU?$char_traits@D@std@@V?$allocator@D@2@@std@@V12@@std@@V?$basic_string@DU?$char_traits@D@std@@V?$allocator@D@2@@2@@std@@@2@$0A@@std@@@std@@QBEAAU?$pair@$$CBU?$pair@V?$basic_string@DU?$char_traits@D@std@@V?$allocator@D@2@@std@@V12@@std@@V?$basic_string@DU?$char_traits@D@std@@V?$allocator@D@2@@2@@2@XZ 00402450 f i IniFile.obj
 0001:00001480       ??D?$_String_iterator@DU?$char_traits@D@std@@V?$allocator@D@2@@std@@QBEAADXZ 00402480 f i IniFile.obj
 0001:000014c0       ?_Init@?$basic_streambuf@DU?$char_traits@D@std@@@std@@IAEXXZ 004024c0 f i IniFile.obj
 0001:00001520       ?max_size@?$_Tree@V?$_Tmap_traits@U?$pair@V?$basic_string@DU?$char_traits@D@std@@V?$allocator@D@2@@std@@V12@@std@@V?$basic_string@DU?$char_traits@D@std@@V?$allocator@D@2@@2@U?$less@U?$pair@V?$basic_string@DU?$char_traits@D@std@@V?$allocator@D@2@@std@@V12@@std@@@2@V?$allocator@U?$pair@$$CBU?$pair@V?$basic_string@DU?$char_traits@D@std@@V?$allocator@D@2@@std@@V12@@std@@V?$basic_string@DU?$char_traits@D@std@@V?$allocator@D@2@@2@@std@@@2@$0A@@std@@@std@@QBEIXZ 00402520 f i IniFile.obj
 0001:00001530       ?_Lrotate@?$_Tree@V?$_Tmap_traits@U?$pair@V?$basic_string@DU?$char_traits@D@std@@V?$allocator@D@2@@std@@V12@@std@@V?$basic_string@DU?$char_traits@D@std@@V?$allocator@D@2@@2@U?$less@U?$pair@V?$basic_string@DU?$char_traits@D@std@@V?$allocator@D@2@@std@@V12@@std@@@2@V?$allocator@U?$pair@$$CBU?$pair@V?$basic_string@DU?$char_traits@D@std@@V?$allocator@D@2@@std@@V12@@std@@V?$basic_string@DU?$char_traits@D@std@@V?$allocator@D@2@@2@@std@@@2@$0A@@std@@@std@@IAEXPAU_Node@?$_Tree_nod@V?$_Tmap_traits@U?$pair@V?$basic_string@DU?$char_traits@D@std@@V?$allocator@D@2@@std@@V12@@std@@V?$basic_string@DU?$char_traits@D@std@@V?$allocator@D@2@@2@U?$less@U?$pair@V?$basic_string@DU?$char_traits@D@std@@V?$allocator@D@2@@std@@V12@@std@@@2@V?$allocator@U?$pair@$$CBU?$pair@V?$basic_string@DU?$char_traits@D@std@@V?$allocator@D@2@@std@@V12@@std@@V?$basic_string@DU?$char_traits@D@std@@V?$allocator@D@2@@2@@std@@@2@$0A@@std@@@2@@Z 00402530 f i IniFile.obj
 0001:00001580       ?_Rrotate@?$_Tree@V?$_Tmap_traits@U?$pair@V?$basic_string@DU?$char_traits@D@std@@V?$allocator@D@2@@std@@V12@@std@@V?$basic_string@DU?$char_traits@D@std@@V?$allocator@D@2@@2@U?$less@U?$pair@V?$basic_string@DU?$char_traits@D@std@@V?$allocator@D@2@@std@@V12@@std@@@2@V?$allocator@U?$pair@$$CBU?$pair@V?$basic_string@DU?$char_traits@D@std@@V?$allocator@D@2@@std@@V12@@std@@V?$basic_string@DU?$char_traits@D@std@@V?$allocator@D@2@@2@@std@@@2@$0A@@std@@@std@@IAEXPAU_Node@?$_Tree_nod@V?$_Tmap_traits@U?$pair@V?$basic_string@DU?$char_traits@D@std@@V?$allocator@D@2@@std@@V12@@std@@V?$basic_string@DU?$char_traits@D@std@@V?$allocator@D@2@@2@U?$less@U?$pair@V?$basic_string@DU?$char_traits@D@std@@V?$allocator@D@2@@std@@V12@@std@@@2@V?$allocator@U?$pair@$$CBU?$pair@V?$basic_string@DU?$char_traits@D@std@@V?$allocator@D@2@@std@@V12@@std@@V?$basic_string@DU?$char_traits@D@std@@V?$allocator@D@2@@2@@std@@@2@$0A@@std@@@2@@Z 00402580 f i IniFile.obj
 0001:000015e0       ?destroy@?$allocator@PAU_Node@?$_Tree_nod@V?$_Tmap_traits@U?$pair@V?$basic_string@DU?$char_traits@D@std@@V?$allocator@D@2@@std@@V12@@std@@V?$basic_string@DU?$char_traits@D@std@@V?$allocator@D@2@@2@U?$less@U?$pair@V?$basic_string@DU?$char_traits@D@std@@V?$allocator@D@2@@std@@V12@@std@@@2@V?$allocator@U?$pair@$$CBU?$pair@V?$basic_string@DU?$char_traits@D@std@@V?$allocator@D@2@@std@@V12@@std@@V?$basic_string@DU?$char_traits@D@std@@V?$allocator@D@2@@2@@std@@@2@$0A@@std@@@std@@@std@@QAEXPAPAU_Node@?$_Tree_nod@V?$_Tmap_traits@U?$pair@V?$basic_string@DU?$char_traits@D@std@@V?$allocator@D@2@@std@@V12@@std@@V?$basic_string@DU?$char_traits@D@std@@V?$allocator@D@2@@2@U?$less@U?$pair@V?$basic_string@DU?$char_traits@D@std@@V?$allocator@D@2@@std@@V12@@std@@@2@V?$allocator@U?$pair@$$CBU?$pair@V?$basic_string@DU?$char_traits@D@std@@V?$allocator@D@2@@std@@V12@@std@@V?$basic_string@DU?$char_traits@D@std@@V?$allocator@D@2@@2@@std@@@2@$0A@@std@@@2@@Z 004025e0 f i IniFile.obj
 0001:000015f0       ??0const_iterator@?$_Tree@V?$_Tmap_traits@U?$pair@V?$basic_string@DU?$char_traits@D@std@@V?$allocator@D@2@@std@@V12@@std@@V?$basic_string@DU?$char_traits@D@std@@V?$allocator@D@2@@2@U?$less@U?$pair@V?$basic_string@DU?$char_traits@D@std@@V?$allocator@D@2@@std@@V12@@std@@@2@V?$allocator@U?$pair@$$CBU?$pair@V?$basic_string@DU?$char_traits@D@std@@V?$allocator@D@2@@std@@V12@@std@@V?$basic_string@DU?$char_traits@D@std@@V?$allocator@D@2@@2@@std@@@2@$0A@@std@@@std@@QAE@PAU_Node@?$_Tree_nod@V?$_Tmap_traits@U?$pair@V?$basic_string@DU?$char_traits@D@std@@V?$allocator@D@2@@std@@V12@@std@@V?$basic_string@DU?$char_traits@D@std@@V?$allocator@D@2@@2@U?$less@U?$pair@V?$basic_string@DU?$char_traits@D@std@@V?$allocator@D@2@@std@@V12@@std@@@2@V?$allocator@U?$pair@$$CBU?$pair@V?$basic_string@DU?$char_traits@D@std@@V?$allocator@D@2@@std@@V12@@std@@V?$basic_string@DU?$char_traits@D@std@@V?$allocator@D@2@@2@@std@@@2@$0A@@std@@@2@PBV12@@Z 004025f0 f i IniFile.obj
 0001:00001620       ?max_size@?$basic_string@DU?$char_traits@D@std@@V?$allocator@D@2@@std@@QBEIXZ 00402620 f i IniFile.obj
 0001:00001630       ?allocate@?$allocator@U_Node@?$_Tree_nod@V?$_Tmap_traits@U?$pair@V?$basic_string@DU?$char_traits@D@std@@V?$allocator@D@2@@std@@V12@@std@@V?$basic_string@DU?$char_traits@D@std@@V?$allocator@D@2@@2@U?$less@U?$pair@V?$basic_string@DU?$char_traits@D@std@@V?$allocator@D@2@@std@@V12@@std@@@2@V?$allocator@U?$pair@$$CBU?$pair@V?$basic_string@DU?$char_traits@D@std@@V?$allocator@D@2@@std@@V12@@std@@V?$basic_string@DU?$char_traits@D@std@@V?$allocator@D@2@@2@@std@@@2@$0A@@std@@@std@@@std@@QAEPAU_Node@?$_Tree_nod@V?$_Tmap_traits@U?$pair@V?$basic_string@DU?$char_traits@D@std@@V?$allocator@D@2@@std@@V12@@std@@V?$basic_string@DU?$char_traits@D@std@@V?$allocator@D@2@@2@U?$less@U?$pair@V?$basic_string@DU?$char_traits@D@std@@V?$allocator@D@2@@std@@V12@@std@@@2@V?$allocator@U?$pair@$$CBU?$pair@V?$basic_string@DU?$char_traits@D@std@@V?$allocator@D@2@@std@@V12@@std@@V?$basic_string@DU?$char_traits@D@std@@V?$allocator@D@2@@2@@std@@@2@$0A@@std@@@2@I@Z 00402630 f i IniFile.obj
 0001:00001650       ?_Dec@const_iterator@?$_Tree@V?$_Tmap_traits@U?$pair@V?$basic_string@DU?$char_traits@D@std@@V?$allocator@D@2@@std@@V12@@std@@V?$basic_string@DU?$char_traits@D@std@@V?$allocator@D@2@@2@U?$less@U?$pair@V?$basic_string@DU?$char_traits@D@std@@V?$allocator@D@2@@std@@V12@@std@@@2@V?$allocator@U?$pair@$$CBU?$pair@V?$basic_string@DU?$char_traits@D@std@@V?$allocator@D@2@@std@@V12@@std@@V?$basic_string@DU?$char_traits@D@std@@V?$allocator@D@2@@2@@std@@@2@$0A@@std@@@std@@QAEXXZ 00402650 f i IniFile.obj
 0001:000016e0       ??0?$_String_const_iterator@DU?$char_traits@D@std@@V?$allocator@D@2@@std@@QAE@PBDPBU_Container_base@1@@Z 004026e0 f i IniFile.obj
 0001:00001740       ?allocate@?$allocator@D@std@@QAEPADI@Z 00402740 f i IniFile.obj
 0001:00001760       ??0?$_Tree_nod@V?$_Tmap_traits@U?$pair@V?$basic_string@DU?$char_traits@D@std@@V?$allocator@D@2@@std@@V12@@std@@V?$basic_string@DU?$char_traits@D@std@@V?$allocator@D@2@@2@U?$less@U?$pair@V?$basic_string@DU?$char_traits@D@std@@V?$allocator@D@2@@std@@V12@@std@@@2@V?$allocator@U?$pair@$$CBU?$pair@V?$basic_string@DU?$char_traits@D@std@@V?$allocator@D@2@@std@@V12@@std@@V?$basic_string@DU?$char_traits@D@std@@V?$allocator@D@2@@2@@std@@@2@$0A@@std@@@std@@IAE@ABU?$less@U?$pair@V?$basic_string@DU?$char_traits@D@std@@V?$allocator@D@2@@std@@V12@@std@@@1@V?$allocator@U?$pair@$$CBU?$pair@V?$basic_string@DU?$char_traits@D@std@@V?$allocator@D@2@@std@@V12@@std@@V?$basic_string@DU?$char_traits@D@std@@V?$allocator@D@2@@2@@std@@@1@@Z 00402760 f i IniFile.obj
 0001:00001770       ?construct@?$allocator@PAU_Node@?$_Tree_nod@V?$_Tmap_traits@U?$pair@V?$basic_string@DU?$char_traits@D@std@@V?$allocator@D@2@@std@@V12@@std@@V?$basic_string@DU?$char_traits@D@std@@V?$allocator@D@2@@2@U?$less@U?$pair@V?$basic_string@DU?$char_traits@D@std@@V?$allocator@D@2@@std@@V12@@std@@@2@V?$allocator@U?$pair@$$CBU?$pair@V?$basic_string@DU?$char_traits@D@std@@V?$allocator@D@2@@std@@V12@@std@@V?$basic_string@DU?$char_traits@D@std@@V?$allocator@D@2@@2@@std@@@2@$0A@@std@@@std@@@std@@QAEXPAPAU_Node@?$_Tree_nod@V?$_Tmap_traits@U?$pair@V?$basic_string@DU?$char_traits@D@std@@V?$allocator@D@2@@std@@V12@@std@@V?$basic_string@DU?$char_traits@D@std@@V?$allocator@D@2@@2@U?$less@U?$pair@V?$basic_string@DU?$char_traits@D@std@@V?$allocator@D@2@@std@@V12@@std@@@2@V?$allocator@U?$pair@$$CBU?$pair@V?$basic_string@DU?$char_traits@D@std@@V?$allocator@D@2@@std@@V12@@std@@V?$basic_string@DU?$char_traits@D@std@@V?$allocator@D@2@@2@@std@@@2@$0A@@std@@@2@ABQAU342@@Z 00402770 f i IniFile.obj
 0001:00001790       ??Econst_iterator@?$_Tree@V?$_Tmap_traits@U?$pair@V?$basic_string@DU?$char_traits@D@std@@V?$allocator@D@2@@std@@V12@@std@@V?$basic_string@DU?$char_traits@D@std@@V?$allocator@D@2@@2@U?$less@U?$pair@V?$basic_string@DU?$char_traits@D@std@@V?$allocator@D@2@@std@@V12@@std@@@2@V?$allocator@U?$pair@$$CBU?$pair@V?$basic_string@DU?$char_traits@D@std@@V?$allocator@D@2@@std@@V12@@std@@V?$basic_string@DU?$char_traits@D@std@@V?$allocator@D@2@@2@@std@@@2@$0A@@std@@@std@@QAEAAV012@XZ 00402790 f i IniFile.obj
 0001:000017a0       ??$copy_s@U?$char_traits@D@std@@@_Traits_helper@std@@YAPADPADIPBDI@Z 004027a0 f i IniFile.obj
 0001:000017d0       ??$move_s@U?$char_traits@D@std@@@_Traits_helper@std@@YAPADPADIPBDI@Z 004027d0 f i IniFile.obj
 0001:00001800       ??1sentry@?$basic_istream@DU?$char_traits@D@std@@@std@@QAE@XZ 00402800 f i IniFile.obj
 0001:00001820       ?find@?$basic_string@DU?$char_traits@D@std@@V?$allocator@D@2@@std@@QBEIDI@Z 00402820 f i IniFile.obj
 0001:00001840       ?compare@?$basic_string@DU?$char_traits@D@std@@V?$allocator@D@2@@std@@QBEHABV12@@Z 00402840 f i IniFile.obj
 0001:00001880       ?compare@?$basic_string@DU?$char_traits@D@std@@V?$allocator@D@2@@std@@QBEHPBD@Z 00402880 f i IniFile.obj
 0001:000018b0       ?snextc@?$basic_streambuf@DU?$char_traits@D@std@@@std@@QAEHXZ 004028b0 f i IniFile.obj
 0001:00001930       ?_Xsgetn_s@?$basic_streambuf@DU?$char_traits@D@std@@@std@@MAEHPADIH@Z 00402930 f i IniFile.obj
 0001:000019d0       ?xsputn@?$basic_streambuf@DU?$char_traits@D@std@@@std@@MAEHPBDH@Z 004029d0 f i IniFile.obj
 0001:00001a70       ??Citerator@?$_Tree@V?$_Tmap_traits@U?$pair@V?$basic_string@DU?$char_traits@D@std@@V?$allocator@D@2@@std@@V12@@std@@V?$basic_string@DU?$char_traits@D@std@@V?$allocator@D@2@@2@U?$less@U?$pair@V?$basic_string@DU?$char_traits@D@std@@V?$allocator@D@2@@std@@V12@@std@@@2@V?$allocator@U?$pair@$$CBU?$pair@V?$basic_string@DU?$char_traits@D@std@@V?$allocator@D@2@@std@@V12@@std@@V?$basic_string@DU?$char_traits@D@std@@V?$allocator@D@2@@2@@std@@@2@$0A@@std@@@std@@QBEPAU?$pair@$$CBU?$pair@V?$basic_string@DU?$char_traits@D@std@@V?$allocator@D@2@@std@@V12@@std@@V?$basic_string@DU?$char_traits@D@std@@V?$allocator@D@2@@2@@2@XZ 00402a70 f i IniFile.obj
 0001:00001aa0       ?erase@?$basic_string@DU?$char_traits@D@std@@V?$allocator@D@2@@std@@QAEAAV12@II@Z 00402aa0 f i IniFile.obj
 0001:00001b30       ?_Tidy@?$basic_string@DU?$char_traits@D@std@@V?$allocator@D@2@@std@@IAEX_NI@Z 00402b30 f i IniFile.obj
 0001:00001b80       ?_Init@?$basic_filebuf@DU?$char_traits@D@std@@@std@@IAEXPAU_iobuf@@W4_Initfl@12@@Z 00402b80 f i IniFile.obj
 0001:00001bd0       ?_Initcvt@?$basic_filebuf@DU?$char_traits@D@std@@@std@@IAEXPAV?$codecvt@DDH@2@@Z 00402bd0 f i IniFile.obj
 0001:00001c00       ??0iterator@?$_Tree@V?$_Tmap_traits@U?$pair@V?$basic_string@DU?$char_traits@D@std@@V?$allocator@D@2@@std@@V12@@std@@V?$basic_string@DU?$char_traits@D@std@@V?$allocator@D@2@@2@U?$less@U?$pair@V?$basic_string@DU?$char_traits@D@std@@V?$allocator@D@2@@std@@V12@@std@@@2@V?$allocator@U?$pair@$$CBU?$pair@V?$basic_string@DU?$char_traits@D@std@@V?$allocator@D@2@@std@@V12@@std@@V?$basic_string@DU?$char_traits@D@std@@V?$allocator@D@2@@2@@std@@@2@$0A@@std@@@std@@QAE@PAU_Node@?$_Tree_nod@V?$_Tmap_traits@U?$pair@V?$basic_string@DU?$char_traits@D@std@@V?$allocator@D@2@@std@@V12@@std@@V?$basic_string@DU?$char_traits@D@std@@V?$allocator@D@2@@2@U?$less@U?$pair@V?$basic_string@DU?$char_traits@D@std@@V?$allocator@D@2@@std@@V12@@std@@@2@V?$allocator@U?$pair@$$CBU?$pair@V?$basic_string@DU?$char_traits@D@std@@V?$allocator@D@2@@std@@V12@@std@@V?$basic_string@DU?$char_traits@D@std@@V?$allocator@D@2@@2@@std@@@2@$0A@@std@@@2@PBV12@@Z 00402c00 f i IniFile.obj
 0001:00001c30       ??0?$basic_streambuf@DU?$char_traits@D@std@@@std@@IAE@XZ 00402c30 f i IniFile.obj
 0001:00001ce0       ??Fconst_iterator@?$_Tree@V?$_Tmap_traits@U?$pair@V?$basic_string@DU?$char_traits@D@std@@V?$allocator@D@2@@std@@V12@@std@@V?$basic_string@DU?$char_traits@D@std@@V?$allocator@D@2@@2@U?$less@U?$pair@V?$basic_string@DU?$char_traits@D@std@@V?$allocator@D@2@@std@@V12@@std@@@2@V?$allocator@U?$pair@$$CBU?$pair@V?$basic_string@DU?$char_traits@D@std@@V?$allocator@D@2@@std@@V12@@std@@V?$basic_string@DU?$char_traits@D@std@@V?$allocator@D@2@@2@@std@@@2@$0A@@std@@@std@@QAEAAV012@XZ 00402ce0 f i IniFile.obj
 0001:00001cf0       ??0?$_String_iterator@DU?$char_traits@D@std@@V?$allocator@D@2@@std@@QAE@PADPBU_Container_base@1@@Z 00402cf0 f i IniFile.obj
 0001:00001d10       ?_Copy@?$basic_string@DU?$char_traits@D@std@@V?$allocator@D@2@@std@@IAEXII@Z 00402d10 f i IniFile.obj
 0001:00001e60       ?_Buynode@?$_Tree@V?$_Tmap_traits@U?$pair@V?$basic_string@DU?$char_traits@D@std@@V?$allocator@D@2@@std@@V12@@std@@V?$basic_string@DU?$char_traits@D@std@@V?$allocator@D@2@@2@U?$less@U?$pair@V?$basic_string@DU?$char_traits@D@std@@V?$allocator@D@2@@std@@V12@@std@@@2@V?$allocator@U?$pair@$$CBU?$pair@V?$basic_string@DU?$char_traits@D@std@@V?$allocator@D@2@@std@@V12@@std@@V?$basic_string@DU?$char_traits@D@std@@V?$allocator@D@2@@2@@std@@@2@$0A@@std@@@std@@IAEPAU_Node@?$_Tree_nod@V?$_Tmap_traits@U?$pair@V?$basic_string@DU?$char_traits@D@std@@V?$allocator@D@2@@std@@V12@@std@@V?$basic_string@DU?$char_traits@D@std@@V?$allocator@D@2@@2@U?$less@U?$pair@V?$basic_string@DU?$char_traits@D@std@@V?$allocator@D@2@@std@@V12@@std@@@2@V?$allocator@U?$pair@$$CBU?$pair@V?$basic_string@DU?$char_traits@D@std@@V?$allocator@D@2@@std@@V12@@std@@V?$basic_string@DU?$char_traits@D@std@@V?$allocator@D@2@@2@@std@@@2@$0A@@std@@@2@XZ 00402e60 f i IniFile.obj
 0001:00001ea0       ??0?$_Tree_ptr@V?$_Tmap_traits@U?$pair@V?$basic_string@DU?$char_traits@D@std@@V?$allocator@D@2@@std@@V12@@std@@V?$basic_string@DU?$char_traits@D@std@@V?$allocator@D@2@@2@U?$less@U?$pair@V?$basic_string@DU?$char_traits@D@std@@V?$allocator@D@2@@std@@V12@@std@@@2@V?$allocator@U?$pair@$$CBU?$pair@V?$basic_string@DU?$char_traits@D@std@@V?$allocator@D@2@@std@@V12@@std@@V?$basic_string@DU?$char_traits@D@std@@V?$allocator@D@2@@2@@std@@@2@$0A@@std@@@std@@IAE@ABU?$less@U?$pair@V?$basic_string@DU?$char_traits@D@std@@V?$allocator@D@2@@std@@V12@@std@@@1@V?$allocator@U?$pair@$$CBU?$pair@V?$basic_string@DU?$char_traits@D@std@@V?$allocator@D@2@@std@@V12@@std@@V?$basic_string@DU?$char_traits@D@std@@V?$allocator@D@2@@2@@std@@@1@@Z 00402ea0 f i IniFile.obj
 0001:00001eb0       ??Eiterator@?$_Tree@V?$_Tmap_traits@U?$pair@V?$basic_string@DU?$char_traits@D@std@@V?$allocator@D@2@@std@@V12@@std@@V?$basic_string@DU?$char_traits@D@std@@V?$allocator@D@2@@2@U?$less@U?$pair@V?$basic_string@DU?$char_traits@D@std@@V?$allocator@D@2@@std@@V12@@std@@@2@V?$allocator@U?$pair@$$CBU?$pair@V?$basic_string@DU?$char_traits@D@std@@V?$allocator@D@2@@std@@V12@@std@@V?$basic_string@DU?$char_traits@D@std@@V?$allocator@D@2@@2@@std@@@2@$0A@@std@@@std@@QAEAAV012@XZ 00402eb0 f i IniFile.obj
 0001:00001ec0       ??$?MDU?$char_traits@D@std@@V?$allocator@D@1@@std@@YA_NABV?$basic_string@DU?$char_traits@D@std@@V?$allocator@D@2@@0@0@Z 00402ec0 f i IniFile.obj
 0001:00001ef0       ??0?$basic_string@DU?$char_traits@D@std@@V?$allocator@D@2@@std@@QAE@XZ 00402ef0 f i IniFile.obj
 0001:00001f10       ??1?$basic_string@DU?$char_traits@D@std@@V?$allocator@D@2@@std@@QAE@XZ 00402f10 f i IniFile.obj
 0001:00001f40       ?end@?$_Tree@V?$_Tmap_traits@U?$pair@V?$basic_string@DU?$char_traits@D@std@@V?$allocator@D@2@@std@@V12@@std@@V?$basic_string@DU?$char_traits@D@std@@V?$allocator@D@2@@2@U?$less@U?$pair@V?$basic_string@DU?$char_traits@D@std@@V?$allocator@D@2@@std@@V12@@std@@@2@V?$allocator@U?$pair@$$CBU?$pair@V?$basic_string@DU?$char_traits@D@std@@V?$allocator@D@2@@std@@V12@@std@@V?$basic_string@DU?$char_traits@D@std@@V?$allocator@D@2@@2@@std@@@2@$0A@@std@@@std@@QAE?AViterator@12@XZ 00402f40 f i IniFile.obj
 0001:00001f50       ?begin@?$basic_string@DU?$char_traits@D@std@@V?$allocator@D@2@@std@@QAE?AV?$_String_iterator@DU?$char_traits@D@std@@V?$allocator@D@2@@2@XZ 00402f50 f i IniFile.obj
 0001:00001f90       ??0?$basic_filebuf@DU?$char_traits@D@std@@@std@@QAE@PAU_iobuf@@@Z 00402f90 f i IniFile.obj
 0001:00001ff0       ?not_eof@?$char_traits@D@std@@SAHABH@Z 00402ff0 f i IniFile.obj
 0001:00002010       ??$_Fgetc@D@std@@YA_NAADPAU_iobuf@@@Z 00403010 f i IniFile.obj
 0001:00002030       ??$_Fputc@D@std@@YA_NDPAU_iobuf@@@Z 00403030 f i IniFile.obj
 0001:00002050       ??$_Ungetc@D@std@@YA_NABDPAU_iobuf@@@Z 00403050 f i IniFile.obj
 0001:00002070       ?sync@?$basic_filebuf@DU?$char_traits@D@std@@@std@@MAEHXZ 00403070 f i IniFile.obj
 0001:000020a0       ?eback@?$basic_streambuf@DU?$char_traits@D@std@@@std@@IBEPADXZ 004030a0 f i IniFile.obj
 0001:000020b0       ?egptr@?$basic_streambuf@DU?$char_traits@D@std@@@std@@IBEPADXZ 004030b0 f i IniFile.obj
 0001:000020c0       ?epptr@?$basic_streambuf@DU?$char_traits@D@std@@@std@@IBEPADXZ 004030c0 f i IniFile.obj
 0001:000020d0       ?_Gndec@?$basic_streambuf@DU?$char_traits@D@std@@@std@@IAEPADXZ 004030d0 f i IniFile.obj
 0001:000020f0       ?_Pninc@?$basic_streambuf@DU?$char_traits@D@std@@@std@@IAEPADXZ 004030f0 f i IniFile.obj
 0001:00002110       ??0?$fpos@H@std@@QAE@H_J@Z 00403110 f i IniFile.obj
 0001:00002130       ?state@?$fpos@H@std@@QBEHXZ 00403130 f i IniFile.obj
 0001:00002140       ?seekpos@?$fpos@H@std@@QBE_JXZ 00403140 f i IniFile.obj
 0001:00002150       ??B?$fpos@H@std@@QBEJXZ    00403150 f i IniFile.obj
 0001:00002160       ?in@?$codecvt@DDH@std@@QBEHAAHPBD1AAPBDPAD3AAPAD@Z 00403160 f i IniFile.obj
 0001:00002170       ?out@?$codecvt@DDH@std@@QBEHAAHPBD1AAPBDPAD3AAPAD@Z 00403170 f i IniFile.obj
 0001:00002180       ?pbackfail@?$basic_filebuf@DU?$char_traits@D@std@@@std@@MAEHH@Z 00403180 f i IniFile.obj
 0001:000021f0       ?underflow@?$basic_filebuf@DU?$char_traits@D@std@@@std@@MAEHXZ 004031f0 f i IniFile.obj
 0001:00002240       ?setbuf@?$basic_filebuf@DU?$char_traits@D@std@@@std@@MAEPAV?$basic_streambuf@DU?$char_traits@D@std@@@2@PADH@Z 00403240 f i IniFile.obj
 0001:000022d0       ?begin@?$_Tree@V?$_Tmap_traits@U?$pair@V?$basic_string@DU?$char_traits@D@std@@V?$allocator@D@2@@std@@V12@@std@@V?$basic_string@DU?$char_traits@D@std@@V?$allocator@D@2@@2@U?$less@U?$pair@V?$basic_string@DU?$char_traits@D@std@@V?$allocator@D@2@@std@@V12@@std@@@2@V?$allocator@U?$pair@$$CBU?$pair@V?$basic_string@DU?$char_traits@D@std@@V?$allocator@D@2@@std@@V12@@std@@V?$basic_string@DU?$char_traits@D@std@@V?$allocator@D@2@@2@@std@@@2@$0A@@std@@@std@@QAE?AViterator@12@XZ 004032d0 f i IniFile.obj
 0001:000022f0       ??Fiterator@?$_Tree@V?$_Tmap_traits@U?$pair@V?$basic_string@DU?$char_traits@D@std@@V?$allocator@D@2@@std@@V12@@std@@V?$basic_string@DU?$char_traits@D@std@@V?$allocator@D@2@@2@U?$less@U?$pair@V?$basic_string@DU?$char_traits@D@std@@V?$allocator@D@2@@std@@V12@@std@@@2@V?$allocator@U?$pair@$$CBU?$pair@V?$basic_string@DU?$char_traits@D@std@@V?$allocator@D@2@@std@@V12@@std@@V?$basic_string@DU?$char_traits@D@std@@V?$allocator@D@2@@2@@std@@@2@$0A@@std@@@std@@QAEAAV012@XZ 004032f0 f i IniFile.obj
 0001:00002300       ?_Grow@?$basic_string@DU?$char_traits@D@std@@V?$allocator@D@2@@std@@IAE_NI_N@Z 00403300 f i IniFile.obj
 0001:000023c0       ?_Init@?$_Tree@V?$_Tmap_traits@U?$pair@V?$basic_string@DU?$char_traits@D@std@@V?$allocator@D@2@@std@@V12@@std@@V?$basic_string@DU?$char_traits@D@std@@V?$allocator@D@2@@2@U?$less@U?$pair@V?$basic_string@DU?$char_traits@D@std@@V?$allocator@D@2@@std@@V12@@std@@@2@V?$allocator@U?$pair@$$CBU?$pair@V?$basic_string@DU?$char_traits@D@std@@V?$allocator@D@2@@std@@V12@@std@@V?$basic_string@DU?$char_traits@D@std@@V?$allocator@D@2@@2@@std@@@2@$0A@@std@@@std@@IAEXXZ 004033c0 f i IniFile.obj
 0001:000023f0       ??0?$_Tree_val@V?$_Tmap_traits@U?$pair@V?$basic_string@DU?$char_traits@D@std@@V?$allocator@D@2@@std@@V12@@std@@V?$basic_string@DU?$char_traits@D@std@@V?$allocator@D@2@@2@U?$less@U?$pair@V?$basic_string@DU?$char_traits@D@std@@V?$allocator@D@2@@std@@V12@@std@@@2@V?$allocator@U?$pair@$$CBU?$pair@V?$basic_string@DU?$char_traits@D@std@@V?$allocator@D@2@@std@@V12@@std@@V?$basic_string@DU?$char_traits@D@std@@V?$allocator@D@2@@2@@std@@@2@$0A@@std@@@std@@IAE@ABU?$less@U?$pair@V?$basic_string@DU?$char_traits@D@std@@V?$allocator@D@2@@std@@V12@@std@@@1@V?$allocator@U?$pair@$$CBU?$pair@V?$basic_string@DU?$char_traits@D@std@@V?$allocator@D@2@@std@@V12@@std@@V?$basic_string@DU?$char_traits@D@std@@V?$allocator@D@2@@2@@std@@@1@@Z 004033f0 f i IniFile.obj
 0001:00002400       ??Eiterator@?$_Tree@V?$_Tmap_traits@U?$pair@V?$basic_string@DU?$char_traits@D@std@@V?$allocator@D@2@@std@@V12@@std@@V?$basic_string@DU?$char_traits@D@std@@V?$allocator@D@2@@2@U?$less@U?$pair@V?$basic_string@DU?$char_traits@D@std@@V?$allocator@D@2@@std@@V12@@std@@@2@V?$allocator@U?$pair@$$CBU?$pair@V?$basic_string@DU?$char_traits@D@std@@V?$allocator@D@2@@std@@V12@@std@@V?$basic_string@DU?$char_traits@D@std@@V?$allocator@D@2@@2@@std@@@2@$0A@@std@@@std@@QAE?AV012@H@Z 00403400 f i IniFile.obj
 0001:00002420       ??$?MV?$basic_string@DU?$char_traits@D@std@@V?$allocator@D@2@@std@@V01@@std@@YA_NABU?$pair@V?$basic_string@DU?$char_traits@D@std@@V?$allocator@D@2@@std@@V12@@0@0@Z 00403420 f i IniFile.obj
 0001:000024b0       ??1logic_error@std@@UAE@XZ 004034b0 f i IniFile.obj
 0001:000024f0       ?what@logic_error@std@@UBEPBDXZ 004034f0 f i IniFile.obj
 0001:00002500       ??_Glogic_error@std@@UAEPAXI@Z 00403500 f i IniFile.obj
 0001:00002500       ??_Elogic_error@std@@UAEPAXI@Z 00403500 f i IniFile.obj
 0001:00002550       ??1runtime_error@std@@UAE@XZ 00403550 f i IniFile.obj
 0001:00002590       ?what@runtime_error@std@@UBEPBDXZ 00403590 f i IniFile.obj
 0001:000025a0       ??_Eruntime_error@std@@UAEPAXI@Z 004035a0 f i IniFile.obj
 0001:000025a0       ??_Gruntime_error@std@@UAEPAXI@Z 004035a0 f i IniFile.obj
 0001:000025f0       ??1_Locinfo@std@@QAE@XZ    004035f0 f i IniFile.obj
 0001:000026d0       ??1?$pair@V?$basic_string@DU?$char_traits@D@std@@V?$allocator@D@2@@std@@V12@@std@@QAE@XZ 004036d0 f i IniFile.obj
 0001:00002720       ??1?$pair@$$CBU?$pair@V?$basic_string@DU?$char_traits@D@std@@V?$allocator@D@2@@std@@V12@@std@@V?$basic_string@DU?$char_traits@D@std@@V?$allocator@D@2@@2@@std@@QAE@XZ 00403720 f i IniFile.obj
 0001:00002790       ?append@?$basic_string@DU?$char_traits@D@std@@V?$allocator@D@2@@std@@QAEAAV12@ID@Z 00403790 f i IniFile.obj
 0001:00002840       ?assign@?$basic_string@DU?$char_traits@D@std@@V?$allocator@D@2@@std@@QAEAAV12@ABV12@II@Z 00403840 f i IniFile.obj
 0001:00002920       ??0?$_Tree@V?$_Tmap_traits@U?$pair@V?$basic_string@DU?$char_traits@D@std@@V?$allocator@D@2@@std@@V12@@std@@V?$basic_string@DU?$char_traits@D@std@@V?$allocator@D@2@@2@U?$less@U?$pair@V?$basic_string@DU?$char_traits@D@std@@V?$allocator@D@2@@std@@V12@@std@@@2@V?$allocator@U?$pair@$$CBU?$pair@V?$basic_string@DU?$char_traits@D@std@@V?$allocator@D@2@@std@@V12@@std@@V?$basic_string@DU?$char_traits@D@std@@V?$allocator@D@2@@2@@std@@@2@$0A@@std@@@std@@QAE@ABU?$less@U?$pair@V?$basic_string@DU?$char_traits@D@std@@V?$allocator@D@2@@std@@V12@@std@@@1@ABV?$allocator@U?$pair@$$CBU?$pair@V?$basic_string@DU?$char_traits@D@std@@V?$allocator@D@2@@std@@V12@@std@@V?$basic_string@DU?$char_traits@D@std@@V?$allocator@D@2@@2@@std@@@1@@Z 00403920 f i IniFile.obj
 0001:00002950       ??R?$less@U?$pair@V?$basic_string@DU?$char_traits@D@std@@V?$allocator@D@2@@std@@V12@@std@@@std@@QBE_NABU?$pair@V?$basic_string@DU?$char_traits@D@std@@V?$allocator@D@2@@std@@V12@@1@0@Z 00403950 f i IniFile.obj
 0001:00002970       ?assign@?$basic_string@DU?$char_traits@D@std@@V?$allocator@D@2@@std@@QAEAAV12@PBDI@Z 00403970 f i IniFile.obj
 0001:00002a40       ?assign@?$basic_string@DU?$char_traits@D@std@@V?$allocator@D@2@@std@@QAEAAV12@ID@Z 00403a40 f i IniFile.obj
 0001:00002ad0       ?_Lbound@?$_Tree@V?$_Tmap_traits@U?$pair@V?$basic_string@DU?$char_traits@D@std@@V?$allocator@D@2@@std@@V12@@std@@V?$basic_string@DU?$char_traits@D@std@@V?$allocator@D@2@@2@U?$less@U?$pair@V?$basic_string@DU?$char_traits@D@std@@V?$allocator@D@2@@std@@V12@@std@@@2@V?$allocator@U?$pair@$$CBU?$pair@V?$basic_string@DU?$char_traits@D@std@@V?$allocator@D@2@@std@@V12@@std@@V?$basic_string@DU?$char_traits@D@std@@V?$allocator@D@2@@2@@std@@@2@$0A@@std@@@std@@IBEPAU_Node@?$_Tree_nod@V?$_Tmap_traits@U?$pair@V?$basic_string@DU?$char_traits@D@std@@V?$allocator@D@2@@std@@V12@@std@@V?$basic_string@DU?$char_traits@D@std@@V?$allocator@D@2@@2@U?$less@U?$pair@V?$basic_string@DU?$char_traits@D@std@@V?$allocator@D@2@@std@@V12@@std@@@2@V?$allocator@U?$pair@$$CBU?$pair@V?$basic_string@DU?$char_traits@D@std@@V?$allocator@D@2@@std@@V12@@std@@V?$basic_string@DU?$char_traits@D@std@@V?$allocator@D@2@@2@@std@@@2@$0A@@std@@@2@ABU?$pair@V?$basic_string@DU?$char_traits@D@std@@V?$allocator@D@2@@std@@V12@@2@@Z 00403ad0 f i IniFile.obj
 0001:00002b10       ??1_Node@?$_Tree_nod@V?$_Tmap_traits@U?$pair@V?$basic_string@DU?$char_traits@D@std@@V?$allocator@D@2@@std@@V12@@std@@V?$basic_string@DU?$char_traits@D@std@@V?$allocator@D@2@@2@U?$less@U?$pair@V?$basic_string@DU?$char_traits@D@std@@V?$allocator@D@2@@std@@V12@@std@@@2@V?$allocator@U?$pair@$$CBU?$pair@V?$basic_string@DU?$char_traits@D@std@@V?$allocator@D@2@@std@@V12@@std@@V?$basic_string@DU?$char_traits@D@std@@V?$allocator@D@2@@2@@std@@@2@$0A@@std@@@std@@QAE@XZ 00403b10 f i IniFile.obj
 0001:00002b20       ??Y?$basic_string@DU?$char_traits@D@std@@V?$allocator@D@2@@std@@QAEAAV01@D@Z 00403b20 f i IniFile.obj
 0001:00002b30       ??0?$basic_string@DU?$char_traits@D@std@@V?$allocator@D@2@@std@@QAE@ABV01@@Z 00403b30 f i IniFile.obj
 0001:00002b60       ?uflow@?$basic_filebuf@DU?$char_traits@D@std@@@std@@MAEHXZ 00403b60 f i IniFile.obj
 0001:00002ec0       ??0?$pair@V?$basic_string@DU?$char_traits@D@std@@V?$allocator@D@2@@std@@V12@@std@@QAE@ABV?$basic_string@DU?$char_traits@D@std@@V?$allocator@D@2@@1@0@Z 00403ec0 f i IniFile.obj
 0001:00002f40       ??0?$pair@V?$basic_string@DU?$char_traits@D@std@@V?$allocator@D@2@@std@@V12@@std@@QAE@ABU01@@Z 00403f40 f i IniFile.obj
 0001:00002fc0       ??0?$basic_string@DU?$char_traits@D@std@@V?$allocator@D@2@@std@@QAE@ABV01@II@Z 00403fc0 f i IniFile.obj
 0001:00002ff0       ??0?$basic_string@DU?$char_traits@D@std@@V?$allocator@D@2@@std@@QAE@ID@Z 00403ff0 f i IniFile.obj
 0001:00003020       ?assign@?$basic_string@DU?$char_traits@D@std@@V?$allocator@D@2@@std@@QAEAAV12@ABV12@@Z 00404020 f i IniFile.obj
 0001:00003040       ?assign@?$basic_string@DU?$char_traits@D@std@@V?$allocator@D@2@@std@@QAEAAV12@PBD@Z 00404040 f i IniFile.obj
 0001:00003070       ?_Endwrite@?$basic_filebuf@DU?$char_traits@D@std@@@std@@IAE_NXZ 00404070 f i IniFile.obj
 0001:00003390       ?lower_bound@?$_Tree@V?$_Tmap_traits@U?$pair@V?$basic_string@DU?$char_traits@D@std@@V?$allocator@D@2@@std@@V12@@std@@V?$basic_string@DU?$char_traits@D@std@@V?$allocator@D@2@@2@U?$less@U?$pair@V?$basic_string@DU?$char_traits@D@std@@V?$allocator@D@2@@std@@V12@@std@@@2@V?$allocator@U?$pair@$$CBU?$pair@V?$basic_string@DU?$char_traits@D@std@@V?$allocator@D@2@@std@@V12@@std@@V?$basic_string@DU?$char_traits@D@std@@V?$allocator@D@2@@2@@std@@@2@$0A@@std@@@std@@QAE?AViterator@12@ABU?$pair@V?$basic_string@DU?$char_traits@D@std@@V?$allocator@D@2@@std@@V12@@2@@Z 00404390 f i IniFile.obj
 0001:000033c0       ??0?$pair@$$CBU?$pair@V?$basic_string@DU?$char_traits@D@std@@V?$allocator@D@2@@std@@V12@@std@@V?$basic_string@DU?$char_traits@D@std@@V?$allocator@D@2@@2@@std@@QAE@ABU01@@Z 004043c0 f i IniFile.obj
 0001:00003430       ??_G_Node@?$_Tree_nod@V?$_Tmap_traits@U?$pair@V?$basic_string@DU?$char_traits@D@std@@V?$allocator@D@2@@std@@V12@@std@@V?$basic_string@DU?$char_traits@D@std@@V?$allocator@D@2@@2@U?$less@U?$pair@V?$basic_string@DU?$char_traits@D@std@@V?$allocator@D@2@@std@@V12@@std@@@2@V?$allocator@U?$pair@$$CBU?$pair@V?$basic_string@DU?$char_traits@D@std@@V?$allocator@D@2@@std@@V12@@std@@V?$basic_string@DU?$char_traits@D@std@@V?$allocator@D@2@@2@@std@@@2@$0A@@std@@@std@@QAEPAXI@Z 00404430 f i IniFile.obj
 0001:00003460       ??0logic_error@std@@QAE@ABV?$basic_string@DU?$char_traits@D@std@@V?$allocator@D@2@@1@@Z 00404460 f i IniFile.obj
 0001:000034d0       ??0length_error@std@@QAE@ABV?$basic_string@DU?$char_traits@D@std@@V?$allocator@D@2@@1@@Z 004044d0 f i IniFile.obj
 0001:000034f0       ??1length_error@std@@UAE@XZ 004044f0 f i IniFile.obj
 0001:00003530       ??_Glength_error@std@@UAEPAXI@Z 00404530 f i IniFile.obj
 0001:00003530       ??_Elength_error@std@@UAEPAXI@Z 00404530 f i IniFile.obj
 0001:00003580       ??0out_of_range@std@@QAE@ABV?$basic_string@DU?$char_traits@D@std@@V?$allocator@D@2@@1@@Z 00404580 f i IniFile.obj
 0001:000035a0       ??1out_of_range@std@@UAE@XZ 004045a0 f i IniFile.obj
 0001:000035e0       ??_Gout_of_range@std@@UAEPAXI@Z 004045e0 f i IniFile.obj
 0001:000035e0       ??_Eout_of_range@std@@UAEPAXI@Z 004045e0 f i IniFile.obj
 0001:00003630       ??0runtime_error@std@@QAE@ABV?$basic_string@DU?$char_traits@D@std@@V?$allocator@D@2@@1@@Z 00404630 f i IniFile.obj
 0001:000036a0       ?_Getname@_Locinfo@std@@QBE?AV?$basic_string@DU?$char_traits@D@std@@V?$allocator@D@2@@2@XZ 004046a0 f i IniFile.obj
 0001:000036d0       ??0_Locimp@locale@std@@AAE@ABV012@@Z 004046d0 f i IniFile.obj
 0001:00003770       ??1_Locimp@locale@std@@MAE@XZ 00404770 f i IniFile.obj
 0001:000037f0       ??_G_Locimp@locale@std@@MAEPAXI@Z 004047f0 f i IniFile.obj
 0001:000037f0       ??_E_Locimp@locale@std@@MAEPAXI@Z 004047f0 f i IniFile.obj
 0001:00003810       ??0failure@ios_base@std@@QAE@ABV?$basic_string@DU?$char_traits@D@std@@V?$allocator@D@2@@2@@Z 00404810 f i IniFile.obj
 0001:00003830       ??1failure@ios_base@std@@UAE@XZ 00404830 f i IniFile.obj
 0001:00003870       ??_Efailure@ios_base@std@@UAEPAXI@Z 00404870 f i IniFile.obj
 0001:00003870       ??_Gfailure@ios_base@std@@UAEPAXI@Z 00404870 f i IniFile.obj
 0001:000038c0       ??0?$basic_string@DU?$char_traits@D@std@@V?$allocator@D@2@@std@@QAE@PBD@Z 004048c0 f i IniFile.obj
 0001:00003900       ??4?$basic_string@DU?$char_traits@D@std@@V?$allocator@D@2@@std@@QAEAAV01@ABV01@@Z 00404900 f i IniFile.obj
 0001:00003920       ?substr@?$basic_string@DU?$char_traits@D@std@@V?$allocator@D@2@@std@@QBE?AV12@II@Z 00404920 f i IniFile.obj
 0001:00003960       ?overflow@?$basic_filebuf@DU?$char_traits@D@std@@@std@@MAEHH@Z 00404960 f i IniFile.obj
 0001:00003d30       ?seekoff@?$basic_filebuf@DU?$char_traits@D@std@@@std@@MAE?AV?$fpos@H@2@JHH@Z 00404d30 f i IniFile.obj
 0001:00003e10       ?seekpos@?$basic_filebuf@DU?$char_traits@D@std@@@std@@MAE?AV?$fpos@H@2@V32@H@Z 00404e10 f i IniFile.obj
 0001:00003f00       ?find@?$_Tree@V?$_Tmap_traits@U?$pair@V?$basic_string@DU?$char_traits@D@std@@V?$allocator@D@2@@std@@V12@@std@@V?$basic_string@DU?$char_traits@D@std@@V?$allocator@D@2@@2@U?$less@U?$pair@V?$basic_string@DU?$char_traits@D@std@@V?$allocator@D@2@@std@@V12@@std@@@2@V?$allocator@U?$pair@$$CBU?$pair@V?$basic_string@DU?$char_traits@D@std@@V?$allocator@D@2@@std@@V12@@std@@V?$basic_string@DU?$char_traits@D@std@@V?$allocator@D@2@@2@@std@@@2@$0A@@std@@@std@@QAE?AViterator@12@ABU?$pair@V?$basic_string@DU?$char_traits@D@std@@V?$allocator@D@2@@std@@V12@@2@@Z 00404f00 f i IniFile.obj
 0001:00003f70       ??0?$pair@$$CBU?$pair@V?$basic_string@DU?$char_traits@D@std@@V?$allocator@D@2@@std@@V12@@std@@V?$basic_string@DU?$char_traits@D@std@@V?$allocator@D@2@@2@@std@@QAE@ABU?$pair@V?$basic_string@DU?$char_traits@D@std@@V?$allocator@D@2@@std@@V12@@1@ABV?$basic_string@DU?$char_traits@D@std@@V?$allocator@D@2@@1@@Z 00404f70 f i IniFile.obj
 0001:00003fe0       ?close@?$basic_filebuf@DU?$char_traits@D@std@@@std@@QAEPAV12@XZ 00404fe0 f i IniFile.obj
 0001:00004030       ??0_Node@?$_Tree_nod@V?$_Tmap_traits@U?$pair@V?$basic_string@DU?$char_traits@D@std@@V?$allocator@D@2@@std@@V12@@std@@V?$basic_string@DU?$char_traits@D@std@@V?$allocator@D@2@@2@U?$less@U?$pair@V?$basic_string@DU?$char_traits@D@std@@V?$allocator@D@2@@std@@V12@@std@@@2@V?$allocator@U?$pair@$$CBU?$pair@V?$basic_string@DU?$char_traits@D@std@@V?$allocator@D@2@@std@@V12@@std@@V?$basic_string@DU?$char_traits@D@std@@V?$allocator@D@2@@2@@std@@@2@$0A@@std@@@std@@QAE@PAU012@00ABU?$pair@$$CBU?$pair@V?$basic_string@DU?$char_traits@D@std@@V?$allocator@D@2@@std@@V12@@std@@V?$basic_string@DU?$char_traits@D@std@@V?$allocator@D@2@@2@@2@D@Z 00405030 f i IniFile.obj
 0001:00004070       ??$_Destroy@U_Node@?$_Tree_nod@V?$_Tmap_traits@U?$pair@V?$basic_string@DU?$char_traits@D@std@@V?$allocator@D@2@@std@@V12@@std@@V?$basic_string@DU?$char_traits@D@std@@V?$allocator@D@2@@2@U?$less@U?$pair@V?$basic_string@DU?$char_traits@D@std@@V?$allocator@D@2@@std@@V12@@std@@@2@V?$allocator@U?$pair@$$CBU?$pair@V?$basic_string@DU?$char_traits@D@std@@V?$allocator@D@2@@std@@V12@@std@@V?$basic_string@DU?$char_traits@D@std@@V?$allocator@D@2@@2@@std@@@2@$0A@@std@@@std@@@std@@YAXPAU_Node@?$_Tree_nod@V?$_Tmap_traits@U?$pair@V?$basic_string@DU?$char_traits@D@std@@V?$allocator@D@2@@std@@V12@@std@@V?$basic_string@DU?$char_traits@D@std@@V?$allocator@D@2@@2@U?$less@U?$pair@V?$basic_string@DU?$char_traits@D@std@@V?$allocator@D@2@@std@@V12@@std@@@2@V?$allocator@U?$pair@$$CBU?$pair@V?$basic_string@DU?$char_traits@D@std@@V?$allocator@D@2@@std@@V12@@std@@V?$basic_string@DU?$char_traits@D@std@@V?$allocator@D@2@@2@@std@@@2@$0A@@std@@@0@@Z 00405070 f i IniFile.obj
 0001:00004080       ??0_Locinfo@std@@QAE@PBD@Z 00405080 f i IniFile.obj
 0001:00004150       ??0runtime_error@std@@QAE@ABV01@@Z 00405150 f i IniFile.obj
 0001:000041d0       ??0_Locinfo@std@@QAE@HPBD@Z 004051d0 f i IniFile.obj
 0001:000042a0       ?_Addcats@_Locinfo@std@@QAEAAV12@HPBD@Z 004052a0 f i IniFile.obj
 0001:00004340       ??0_Locimp@locale@std@@AAE@_N@Z 00405340 f i IniFile.obj
 0001:000043c0       ??0locale@std@@QAE@ABV01@0H@Z 004053c0 f i IniFile.obj
 0001:000044e0       ??0locale@std@@QAE@PBDH@Z  004054e0 f i IniFile.obj
 0001:00004650       ??0?$ctype@D@std@@QAE@PBF_NI@Z 00405650 f i IniFile.obj
 0001:00004750       ?do_tolower@?$ctype@D@std@@MBEDD@Z 00405750 f i IniFile.obj
 0001:00004770       ?do_tolower@?$ctype@D@std@@MBEPBDPADPBD@Z 00405770 f i IniFile.obj
 0001:000047a0       ?do_toupper@?$ctype@D@std@@MBEDD@Z 004057a0 f i IniFile.obj
 0001:000047c0       ?do_toupper@?$ctype@D@std@@MBEPBDPADPBD@Z 004057c0 f i IniFile.obj
 0001:000047f0       ?do_widen@?$ctype@D@std@@MBEDD@Z 004057f0 f i IniFile.obj
 0001:00004800       ?do_widen@?$ctype@D@std@@MBEPBDPBD0PAD@Z 00405800 f i IniFile.obj
 0001:00004830       ?_Do_widen_s@?$ctype@D@std@@MBEPBDPBD0PADI@Z 00405830 f i IniFile.obj
 0001:00004870       ?do_narrow@?$ctype@D@std@@MBEDDD@Z 00405870 f i IniFile.obj
 0001:00004880       ?do_narrow@?$ctype@D@std@@MBEPBDPBD0DPAD@Z 00405880 f i IniFile.obj
 0001:000048b0       ?_Do_narrow_s@?$ctype@D@std@@MBEPBDPBD0DPADI@Z 004058b0 f i IniFile.obj
 0001:000048f0       ??1?$ctype@D@std@@MAE@XZ   004058f0 f i IniFile.obj
 0001:00004930       ??_G?$ctype@D@std@@MAEPAXI@Z 00405930 f i IniFile.obj
 0001:00004930       ??_E?$ctype@D@std@@MAEPAXI@Z 00405930 f i IniFile.obj
 0001:00004980       ?_Getcat@?$ctype@D@std@@SAIPAPBVfacet@locale@2@@Z 00405980 f i IniFile.obj
 0001:00004a00       ?clear@ios_base@std@@QAEXH_N@Z 00405a00 f i IniFile.obj
 0001:00004b30       ??0failure@ios_base@std@@QAE@ABV012@@Z 00405b30 f i IniFile.obj
 0001:00004b50       ?clear@ios_base@std@@QAEXH@Z 00405b50 f i IniFile.obj
 0001:00004b60       ?_Init@ios_base@std@@IAEXXZ 00405b60 f i IniFile.obj
 0001:00004be0       ??1?$basic_filebuf@DU?$char_traits@D@std@@@std@@UAE@XZ 00405be0 f i IniFile.obj
 0001:00004c50       ??_E?$basic_filebuf@DU?$char_traits@D@std@@@std@@UAEPAXI@Z 00405c50 f i IniFile.obj
 0001:00004c50       ??_G?$basic_filebuf@DU?$char_traits@D@std@@@std@@UAEPAXI@Z 00405c50 f i IniFile.obj
 0001:00004c70       ?clear@?$basic_ios@DU?$char_traits@D@std@@@std@@QAEXH_N@Z 00405c70 f i IniFile.obj
 0001:00004c90       ?_Buynode@?$_Tree@V?$_Tmap_traits@U?$pair@V?$basic_string@DU?$char_traits@D@std@@V?$allocator@D@2@@std@@V12@@std@@V?$basic_string@DU?$char_traits@D@std@@V?$allocator@D@2@@2@U?$less@U?$pair@V?$basic_string@DU?$char_traits@D@std@@V?$allocator@D@2@@std@@V12@@std@@@2@V?$allocator@U?$pair@$$CBU?$pair@V?$basic_string@DU?$char_traits@D@std@@V?$allocator@D@2@@std@@V12@@std@@V?$basic_string@DU?$char_traits@D@std@@V?$allocator@D@2@@2@@std@@@2@$0A@@std@@@std@@IAEPAU_Node@?$_Tree_nod@V?$_Tmap_traits@U?$pair@V?$basic_string@DU?$char_traits@D@std@@V?$allocator@D@2@@std@@V12@@std@@V?$basic_string@DU?$char_traits@D@std@@V?$allocator@D@2@@2@U?$less@U?$pair@V?$basic_string@DU?$char_traits@D@std@@V?$allocator@D@2@@std@@V12@@std@@@2@V?$allocator@U?$pair@$$CBU?$pair@V?$basic_string@DU?$char_traits@D@std@@V?$allocator@D@2@@std@@V12@@std@@V?$basic_string@DU?$char_traits@D@std@@V?$allocator@D@2@@2@@std@@@2@$0A@@std@@@2@PAU342@00ABU?$pair@$$CBU?$pair@V?$basic_string@DU?$char_traits@D@std@@V?$allocator@D@2@@std@@V12@@std@@V?$basic_string@DU?$char_traits@D@std@@V?$allocator@D@2@@2@@2@D@Z 00405c90 f i IniFile.obj
 0001:00004d30       ?destroy@?$allocator@U_Node@?$_Tree_nod@V?$_Tmap_traits@U?$pair@V?$basic_string@DU?$char_traits@D@std@@V?$allocator@D@2@@std@@V12@@std@@V?$basic_string@DU?$char_traits@D@std@@V?$allocator@D@2@@2@U?$less@U?$pair@V?$basic_string@DU?$char_traits@D@std@@V?$allocator@D@2@@std@@V12@@std@@@2@V?$allocator@U?$pair@$$CBU?$pair@V?$basic_string@DU?$char_traits@D@std@@V?$allocator@D@2@@std@@V12@@std@@V?$basic_string@DU?$char_traits@D@std@@V?$allocator@D@2@@2@@std@@@2@$0A@@std@@@std@@@std@@QAEXPAU_Node@?$_Tree_nod@V?$_Tmap_traits@U?$pair@V?$basic_string@DU?$char_traits@D@std@@V?$allocator@D@2@@std@@V12@@std@@V?$basic_string@DU?$char_traits@D@std@@V?$allocator@D@2@@2@U?$less@U?$pair@V?$basic_string@DU?$char_traits@D@std@@V?$allocator@D@2@@std@@V12@@std@@@2@V?$allocator@U?$pair@$$CBU?$pair@V?$basic_string@DU?$char_traits@D@std@@V?$allocator@D@2@@std@@V12@@std@@V?$basic_string@DU?$char_traits@D@std@@V?$allocator@D@2@@2@@std@@@2@$0A@@std@@@2@@Z 00405d30 f i IniFile.obj
 0001:00004d40       ??$use_facet@V?$ctype@D@std@@@std@@YAABV?$ctype@D@0@ABVlocale@0@@Z 00405d40 f i IniFile.obj
 0001:00004e70       ??$toupper@D@std@@YADDABVlocale@0@@Z 00405e70 f i IniFile.obj
 0001:00004e90       ??0?$codecvt@DDH@std@@QAE@I@Z 00405e90 f i IniFile.obj
 0001:00004f20       ??1?$codecvt@DDH@std@@MAE@XZ 00405f20 f i IniFile.obj
 0001:00004f30       ?do_in@?$codecvt@DDH@std@@MBEHAAHPBD1AAPBDPAD3AAPAD@Z 00405f30 f i IniFile.obj
 0001:00004f50       ?do_out@?$codecvt@DDH@std@@MBEHAAHPBD1AAPBDPAD3AAPAD@Z 00405f50 f i IniFile.obj
 0001:00004f70       ?do_unshift@?$codecvt@DDH@std@@MBEHAAHPAD1AAPAD@Z 00405f70 f i IniFile.obj
 0001:00004f90       ?do_length@?$codecvt@DDH@std@@MBEHABHPBD1I@Z 00405f90 f i IniFile.obj
 0001:00004fb0       ??_G?$codecvt@DDH@std@@MAEPAXI@Z 00405fb0 f i IniFile.obj
 0001:00004fb0       ??_E?$codecvt@DDH@std@@MAEPAXI@Z 00405fb0 f i IniFile.obj
 0001:00004fd0       ?ToUpper@IniFile@@AAE?AV?$basic_string@DU?$char_traits@D@std@@V?$allocator@D@2@@std@@ABV23@@Z 00405fd0 f   IniFile.obj
 0001:000051d0       ?setstate@?$basic_ios@DU?$char_traits@D@std@@@std@@QAEXH_N@Z 004061d0 f i IniFile.obj
 0001:00005200       ??1?$basic_ifstream@DU?$char_traits@D@std@@@std@@UAE@XZ 00406200 f i IniFile.obj
 0001:00005270       ?close@?$basic_ifstream@DU?$char_traits@D@std@@@std@@QAEXXZ 00406270 f i IniFile.obj
 0001:000052a0       ?_Insert@?$_Tree@V?$_Tmap_traits@U?$pair@V?$basic_string@DU?$char_traits@D@std@@V?$allocator@D@2@@std@@V12@@std@@V?$basic_string@DU?$char_traits@D@std@@V?$allocator@D@2@@2@U?$less@U?$pair@V?$basic_string@DU?$char_traits@D@std@@V?$allocator@D@2@@std@@V12@@std@@@2@V?$allocator@U?$pair@$$CBU?$pair@V?$basic_string@DU?$char_traits@D@std@@V?$allocator@D@2@@std@@V12@@std@@V?$basic_string@DU?$char_traits@D@std@@V?$allocator@D@2@@2@@std@@@2@$0A@@std@@@std@@IAE?AViterator@12@_NPAU_Node@?$_Tree_nod@V?$_Tmap_traits@U?$pair@V?$basic_string@DU?$char_traits@D@std@@V?$allocator@D@2@@std@@V12@@std@@V?$basic_string@DU?$char_traits@D@std@@V?$allocator@D@2@@2@U?$less@U?$pair@V?$basic_string@DU?$char_traits@D@std@@V?$allocator@D@2@@std@@V12@@std@@@2@V?$allocator@U?$pair@$$CBU?$pair@V?$basic_string@DU?$char_traits@D@std@@V?$allocator@D@2@@std@@V12@@std@@V?$basic_string@DU?$char_traits@D@std@@V?$allocator@D@2@@2@@std@@@2@$0A@@std@@@2@ABU?$pair@$$CBU?$pair@V?$basic_string@DU?$char_traits@D@std@@V?$allocator@D@2@@std@@V12@@std@@V?$basic_string@DU?$char_traits@D@std@@V?$allocator@D@2@@2@@2@@Z 004062a0 f i IniFile.obj
 0001:000054a0       ??0logic_error@std@@QAE@ABV01@@Z 004064a0 f i IniFile.obj
 0001:00005520       ??0length_error@std@@QAE@ABV01@@Z 00406520 f i IniFile.obj
 0001:00005540       ?widen@?$basic_ios@DU?$char_traits@D@std@@@std@@QBEDD@Z 00406540 f i IniFile.obj
 0001:00005600       ?erase@?$_Tree@V?$_Tmap_traits@U?$pair@V?$basic_string@DU?$char_traits@D@std@@V?$allocator@D@2@@std@@V12@@std@@V?$basic_string@DU?$char_traits@D@std@@V?$allocator@D@2@@2@U?$less@U?$pair@V?$basic_string@DU?$char_traits@D@std@@V?$allocator@D@2@@std@@V12@@std@@@2@V?$allocator@U?$pair@$$CBU?$pair@V?$basic_string@DU?$char_traits@D@std@@V?$allocator@D@2@@std@@V12@@std@@V?$basic_string@DU?$char_traits@D@std@@V?$allocator@D@2@@2@@std@@@2@$0A@@std@@@std@@QAE?AViterator@12@V312@@Z 00406600 f i IniFile.obj
 0001:000058d0       ??0out_of_range@std@@QAE@ABV01@@Z 004068d0 f i IniFile.obj
 0001:000058f0       ?_Erase@?$_Tree@V?$_Tmap_traits@U?$pair@V?$basic_string@DU?$char_traits@D@std@@V?$allocator@D@2@@std@@V12@@std@@V?$basic_string@DU?$char_traits@D@std@@V?$allocator@D@2@@2@U?$less@U?$pair@V?$basic_string@DU?$char_traits@D@std@@V?$allocator@D@2@@std@@V12@@std@@@2@V?$allocator@U?$pair@$$CBU?$pair@V?$basic_string@DU?$char_traits@D@std@@V?$allocator@D@2@@std@@V12@@std@@V?$basic_string@DU?$char_traits@D@std@@V?$allocator@D@2@@2@@std@@@2@$0A@@std@@@std@@IAEXPAU_Node@?$_Tree_nod@V?$_Tmap_traits@U?$pair@V?$basic_string@DU?$char_traits@D@std@@V?$allocator@D@2@@std@@V12@@std@@V?$basic_string@DU?$char_traits@D@std@@V?$allocator@D@2@@2@U?$less@U?$pair@V?$basic_string@DU?$char_traits@D@std@@V?$allocator@D@2@@std@@V12@@std@@@2@V?$allocator@U?$pair@$$CBU?$pair@V?$basic_string@DU?$char_traits@D@std@@V?$allocator@D@2@@std@@V12@@std@@V?$basic_string@DU?$char_traits@D@std@@V?$allocator@D@2@@2@@std@@@2@$0A@@std@@@2@@Z 004068f0 f i IniFile.obj
 0001:00005990       ?_Getcat@?$codecvt@DDH@std@@SAIPAPBVfacet@locale@2@@Z 00406990 f i IniFile.obj
 0001:00005a00       ??_D?$basic_ifstream@DU?$char_traits@D@std@@@std@@QAEXXZ 00406a00 f i IniFile.obj
 0001:00005a20       ?Find@IniFile@@QAE_NABV?$basic_string@DU?$char_traits@D@std@@V?$allocator@D@2@@std@@0@Z 00406a20 f   IniFile.obj
 0001:00005b50       ?Get@IniFile@@QAE?AV?$basic_string@DU?$char_traits@D@std@@V?$allocator@D@2@@std@@ABV23@0@Z 00406b50 f   IniFile.obj
 0001:00005cd0       ?Close@IniFile@@AAE_NXZ    00406cd0 f   IniFile.obj
 0001:00005d10       ?flush@?$basic_ostream@DU?$char_traits@D@std@@@std@@QAEAAV12@XZ 00406d10 f i IniFile.obj
 0001:00005d60       ?insert@?$_Tree@V?$_Tmap_traits@U?$pair@V?$basic_string@DU?$char_traits@D@std@@V?$allocator@D@2@@std@@V12@@std@@V?$basic_string@DU?$char_traits@D@std@@V?$allocator@D@2@@2@U?$less@U?$pair@V?$basic_string@DU?$char_traits@D@std@@V?$allocator@D@2@@std@@V12@@std@@@2@V?$allocator@U?$pair@$$CBU?$pair@V?$basic_string@DU?$char_traits@D@std@@V?$allocator@D@2@@std@@V12@@std@@V?$basic_string@DU?$char_traits@D@std@@V?$allocator@D@2@@2@@std@@@2@$0A@@std@@@std@@QAE?AU?$pair@Viterator@?$_Tree@V?$_Tmap_traits@U?$pair@V?$basic_string@DU?$char_traits@D@std@@V?$allocator@D@2@@std@@V12@@std@@V?$basic_string@DU?$char_traits@D@std@@V?$allocator@D@2@@2@U?$less@U?$pair@V?$basic_string@DU?$char_traits@D@std@@V?$allocator@D@2@@std@@V12@@std@@@2@V?$allocator@U?$pair@$$CBU?$pair@V?$basic_string@DU?$char_traits@D@std@@V?$allocator@D@2@@std@@V12@@std@@V?$basic_string@DU?$char_traits@D@std@@V?$allocator@D@2@@2@@std@@@2@$0A@@std@@@std@@_N@2@ABU?$pair@$$CBU?$pair@V?$basic_string@DU?$char_traits@D@std@@V?$allocator@D@2@@std@@V12@@std@@V?$basic_string@DU?$char_traits@D@std@@V?$allocator@D@2@@2@@2@@Z 00406d60 f i IniFile.obj
 0001:00005e60       ??_E?$basic_ifstream@DU?$char_traits@D@std@@@std@@UAEPAXI@Z 00406e60 f i IniFile.obj
 0001:00005e60       ??_G?$basic_ifstream@DU?$char_traits@D@std@@@std@@UAEPAXI@Z 00406e60 f i IniFile.obj
 0001:00005ea0       ?_Ipfx@?$basic_istream@DU?$char_traits@D@std@@@std@@QAE_N_N@Z 00406ea0 f i IniFile.obj
 0001:00006040       ?init@?$basic_ios@DU?$char_traits@D@std@@@std@@IAEXPAV?$basic_streambuf@DU?$char_traits@D@std@@@2@_N@Z 00407040 f i IniFile.obj
 0001:000060a0       ?clear@?$_Tree@V?$_Tmap_traits@U?$pair@V?$basic_string@DU?$char_traits@D@std@@V?$allocator@D@2@@std@@V12@@std@@V?$basic_string@DU?$char_traits@D@std@@V?$allocator@D@2@@2@U?$less@U?$pair@V?$basic_string@DU?$char_traits@D@std@@V?$allocator@D@2@@std@@V12@@std@@@2@V?$allocator@U?$pair@$$CBU?$pair@V?$basic_string@DU?$char_traits@D@std@@V?$allocator@D@2@@std@@V12@@std@@V?$basic_string@DU?$char_traits@D@std@@V?$allocator@D@2@@2@@std@@@2@$0A@@std@@@std@@QAEXXZ 004070a0 f i IniFile.obj
 0001:000060d0       ??$use_facet@V?$codecvt@DDH@std@@@std@@YAABV?$codecvt@DDH@0@ABVlocale@0@@Z 004070d0 f i IniFile.obj
 0001:00006200       ?Add@IniFile@@AAE_NABV?$basic_string@DU?$char_traits@D@std@@V?$allocator@D@2@@std@@00@Z 00407200 f   IniFile.obj
 0001:00006390       ??0sentry@?$basic_istream@DU?$char_traits@D@std@@@std@@QAE@AAV12@_N@Z 00407390 f i IniFile.obj
 0001:00006400       ?imbue@?$basic_filebuf@DU?$char_traits@D@std@@@std@@MAEXABVlocale@2@@Z 00407400 f i IniFile.obj
 0001:00006440       ??0?$basic_istream@DU?$char_traits@D@std@@@std@@QAE@PAV?$basic_streambuf@DU?$char_traits@D@std@@@1@_N@Z 00407440 f i IniFile.obj
 0001:000064d0       ?open@?$basic_filebuf@DU?$char_traits@D@std@@@std@@QAEPAV12@PBDHH@Z 004074d0 f i IniFile.obj
 0001:000065f0       ?erase@?$_Tree@V?$_Tmap_traits@U?$pair@V?$basic_string@DU?$char_traits@D@std@@V?$allocator@D@2@@std@@V12@@std@@V?$basic_string@DU?$char_traits@D@std@@V?$allocator@D@2@@2@U?$less@U?$pair@V?$basic_string@DU?$char_traits@D@std@@V?$allocator@D@2@@std@@V12@@std@@@2@V?$allocator@U?$pair@$$CBU?$pair@V?$basic_string@DU?$char_traits@D@std@@V?$allocator@D@2@@std@@V12@@std@@V?$basic_string@DU?$char_traits@D@std@@V?$allocator@D@2@@2@@std@@@2@$0A@@std@@@std@@QAE?AViterator@12@V312@0@Z 004075f0 f i IniFile.obj
 0001:000066c0       ??$getline@DU?$char_traits@D@std@@V?$allocator@D@2@@std@@YAAAV?$basic_istream@DU?$char_traits@D@std@@@0@AAV10@AAV?$basic_string@DU?$char_traits@D@std@@V?$allocator@D@2@@0@D@Z 004076c0 f i IniFile.obj
 0001:00006860       ??0?$basic_ifstream@DU?$char_traits@D@std@@@std@@QAE@XZ 00407860 f i IniFile.obj
 0001:00006960       ?open@?$basic_ifstream@DU?$char_traits@D@std@@@std@@QAEXPBDHH@Z 00407960 f i IniFile.obj
 0001:000069b0       ?_Tidy@?$_Tree@V?$_Tmap_traits@U?$pair@V?$basic_string@DU?$char_traits@D@std@@V?$allocator@D@2@@std@@V12@@std@@V?$basic_string@DU?$char_traits@D@std@@V?$allocator@D@2@@2@U?$less@U?$pair@V?$basic_string@DU?$char_traits@D@std@@V?$allocator@D@2@@std@@V12@@std@@@2@V?$allocator@U?$pair@$$CBU?$pair@V?$basic_string@DU?$char_traits@D@std@@V?$allocator@D@2@@std@@V12@@std@@V?$basic_string@DU?$char_traits@D@std@@V?$allocator@D@2@@2@@std@@@2@$0A@@std@@@std@@IAEXXZ 004079b0 f i IniFile.obj
 0001:000069f0       ??$getline@DU?$char_traits@D@std@@V?$allocator@D@2@@std@@YAAAV?$basic_istream@DU?$char_traits@D@std@@@0@AAV10@AAV?$basic_string@DU?$char_traits@D@std@@V?$allocator@D@2@@0@@Z 004079f0 f i IniFile.obj
 0001:00006a20       ?Open@IniFile@@AAE_NABV?$basic_string@DU?$char_traits@D@std@@V?$allocator@D@2@@std@@@Z 00407a20 f   IniFile.obj
 0001:00006a80       ?Read@IniFile@@AAE_NAAV?$basic_string@DU?$char_traits@D@std@@V?$allocator@D@2@@std@@@Z 00407a80 f   IniFile.obj
 0001:00006ac0       ?ReadFile@IniFile@@AAE_NXZ 00407ac0 f   IniFile.obj
 0001:00006d20       ??1?$_Tree@V?$_Tmap_traits@U?$pair@V?$basic_string@DU?$char_traits@D@std@@V?$allocator@D@2@@std@@V12@@std@@V?$basic_string@DU?$char_traits@D@std@@V?$allocator@D@2@@2@U?$less@U?$pair@V?$basic_string@DU?$char_traits@D@std@@V?$allocator@D@2@@std@@V12@@std@@@2@V?$allocator@U?$pair@$$CBU?$pair@V?$basic_string@DU?$char_traits@D@std@@V?$allocator@D@2@@std@@V12@@std@@V?$basic_string@DU?$char_traits@D@std@@V?$allocator@D@2@@2@@std@@@2@$0A@@std@@@std@@QAE@XZ 00407d20 f i IniFile.obj
 0001:00006d60       ??1?$map@U?$pair@V?$basic_string@DU?$char_traits@D@std@@V?$allocator@D@2@@std@@V12@@std@@V?$basic_string@DU?$char_traits@D@std@@V?$allocator@D@2@@2@U?$less@U?$pair@V?$basic_string@DU?$char_traits@D@std@@V?$allocator@D@2@@std@@V12@@std@@@2@V?$allocator@U?$pair@$$CBU?$pair@V?$basic_string@DU?$char_traits@D@std@@V?$allocator@D@2@@std@@V12@@std@@V?$basic_string@DU?$char_traits@D@std@@V?$allocator@D@2@@2@@std@@@2@@std@@QAE@XZ 00407d60 f i IniFile.obj
 0001:00006da0       ??1IniFile@@QAE@XZ         00407da0 f   IniFile.obj
 0001:00006e40       ?Import@IniFile@@QAE_NABV?$basic_string@DU?$char_traits@D@std@@V?$allocator@D@2@@std@@@Z 00407e40 f   IniFile.obj
 0001:00006ea0       ??0?$map@U?$pair@V?$basic_string@DU?$char_traits@D@std@@V?$allocator@D@2@@std@@V12@@std@@V?$basic_string@DU?$char_traits@D@std@@V?$allocator@D@2@@2@U?$less@U?$pair@V?$basic_string@DU?$char_traits@D@std@@V?$allocator@D@2@@std@@V12@@std@@@2@V?$allocator@U?$pair@$$CBU?$pair@V?$basic_string@DU?$char_traits@D@std@@V?$allocator@D@2@@std@@V12@@std@@V?$basic_string@DU?$char_traits@D@std@@V?$allocator@D@2@@2@@std@@@2@@std@@QAE@XZ 00407ea0 f i IniFile.obj
 0001:00006ed0       ??0IniFile@@QAE@XZ         00407ed0 f   IniFile.obj
 0001:00006f50       ?ShowErrorMessage@@YA_NABV?$basic_string@DU?$char_traits@D@std@@V?$allocator@D@2@@std@@@Z 00407f50 f   TestFrame.obj
 0001:00006f80       ?append@?$basic_string@DU?$char_traits@D@std@@V?$allocator@D@2@@std@@QAEAAV12@ABV12@II@Z 00407f80 f i TestFrame.obj
 0001:00007080       ?append@?$basic_string@DU?$char_traits@D@std@@V?$allocator@D@2@@std@@QAEAAV12@ABV12@@Z 00408080 f i TestFrame.obj
 0001:000070a0       ??Y?$basic_string@DU?$char_traits@D@std@@V?$allocator@D@2@@std@@QAEAAV01@ABV01@@Z 004080a0 f i TestFrame.obj
 0001:000070c0       ??$?HDU?$char_traits@D@std@@V?$allocator@D@1@@std@@YA?AV?$basic_string@DU?$char_traits@D@std@@V?$allocator@D@2@@0@ABV10@0@Z 004080c0 f i TestFrame.obj
 0001:00007170       ?ProcessCluster@@YA_NABV?$basic_string@DU?$char_traits@D@std@@V?$allocator@D@2@@std@@00@Z 00408170 f   TestFrame.obj
 0001:000072c0       ?ProcessIniFile@@YA_NABV?$basic_string@DU?$char_traits@D@std@@V?$allocator@D@2@@std@@AAV12@111@Z 004082c0 f   TestFrame.obj
 0001:000076f0       ?LoadLibraries@@YA_NABV?$basic_string@DU?$char_traits@D@std@@V?$allocator@D@2@@std@@@Z 004086f0 f   TestFrame.obj
 0001:00007900       ?FreeLibraries@@YA_NABV?$basic_string@DU?$char_traits@D@std@@V?$allocator@D@2@@std@@@Z 00408900 f   TestFrame.obj
 0001:00007a60       _WinMain@16                00408a60 f   TestFrame.obj
 0001:00007bf4       _tfe_GenerateReport        00408bf4 f   coengine:Coengine.dll
 0001:00007bfa       _tfe_StopEngine            00408bfa f   coengine:Coengine.dll
 0001:00007c00       _tfe_GetActionWord         00408c00 f   coengine:Coengine.dll
 0001:00007c06       _tfe_ProcessNextLine       00408c06 f   coengine:Coengine.dll
 0001:00007c0c       _tfe_StartEngine           00408c0c f   coengine:Coengine.dll
 0001:00007c12       _napi_ExecuteActionWord@4  00408c12 f   napiwrapper:NapiWrapper.dll
 0001:00007c18       _napi_LoadLibrary@4        00408c18 f   napiwrapper:NapiWrapper.dll
 0001:00007c1e       _napi_FreeLibrary@4        00408c1e f   napiwrapper:NapiWrapper.dll
 0001:00007c24       _MessageBoxA@16            00408c24 f   user32:USER32.dll
 0001:00007c2a       __Tolower                  00408c2a f   libcpmt:_tolower.obj
 0001:00007d39       __Getctype                 00408d39 f   libcpmt:_tolower.obj
 0001:00007d94       ??0_Init_locks@std@@QAE@XZ 00408d94 f   libcpmt:xlock.obj
 0001:00007dc3       ??1_Init_locks@std@@QAE@XZ 00408dc3 f   libcpmt:xlock.obj
 0001:00007dec       ?_Init_locks_ctor@_Init_locks@std@@CAXPAV12@@Z 00408dec f   libcpmt:xlock.obj
 0001:00007e15       ?_Init_locks_dtor@_Init_locks@std@@CAXPAV12@@Z 00408e15 f   libcpmt:xlock.obj
 0001:00007e3e       ??0_Lockit@std@@QAE@XZ     00408e3e f   libcpmt:xlock.obj
 0001:00007e53       ??0_Lockit@std@@QAE@H@Z    00408e53 f   libcpmt:xlock.obj
 0001:00007e74       ??1_Lockit@std@@QAE@XZ     00408e74 f   libcpmt:xlock.obj
 0001:00007e86       ?_Lockit_ctor@_Lockit@std@@CAXPAV12@@Z 00408e86 f   libcpmt:xlock.obj
 0001:00007e92       ?_Lockit_ctor@_Lockit@std@@CAXPAV12@H@Z 00408e92 f   libcpmt:xlock.obj
 0001:00007eaf       ?_Lockit_dtor@_Lockit@std@@CAXPAV12@@Z 00408eaf f   libcpmt:xlock.obj
 0001:00007ec5       ?_Lockit_ctor@_Lockit@std@@SAXH@Z 00408ec5 f   libcpmt:xlock.obj
 0001:00007edc       ?_Lockit_dtor@_Lockit@std@@SAXH@Z 00408edc f   libcpmt:xlock.obj
 0001:00007ef3       ??0locale@std@@QAE@W4_Uninitialized@1@@Z 00408ef3 f i libcpmt:locale0.obj
 0001:00007ef8       ??0locale@std@@AAE@PAV_Locimp@01@@Z 00408ef8 f i libcpmt:locale0.obj
 0001:00007f03       ??0_Fac_node@std@@QAE@PAU01@PAVfacet@locale@1@@Z 00408f03 f i libcpmt:locale0.obj
 0001:00007f15       ??1_Fac_node@std@@QAE@XZ   00408f15 f i libcpmt:locale0.obj
 0001:00007f2a       ??_G_Fac_node@std@@QAEPAXI@Z 00408f2a f i libcpmt:locale0.obj
 0001:00007f46       __Deletegloballocale       00408f46 f   libcpmt:locale0.obj
 0001:00007f8c       ?_Getgloballocale@locale@std@@CAPAV_Locimp@12@XZ 00408f8c f   libcpmt:locale0.obj
 0001:00007f92       ?_Setgloballocale@locale@std@@CAXPAX@Z 00408f92 f   libcpmt:locale0.obj
 0001:00007fb7       ?_Clocptr_func@_Locimp@locale@std@@CAAAPAV123@XZ 00408fb7 f   libcpmt:locale0.obj
 0001:00007fbd       ?_Id_cnt_func@id@locale@std@@CAAAHXZ 00408fbd f   libcpmt:locale0.obj
 0001:00007fc3       ?_Id_func@?$ctype@D@std@@SAAAVid@locale@2@XZ 00408fc3 f   libcpmt:locale0.obj
 0001:00007fc9       ?_Id_func@?$ctype@_W@std@@SAAAVid@locale@2@XZ 00408fc9 f   libcpmt:locale0.obj
 0001:00007fcf       ?_Id_func@?$codecvt@_WDH@std@@SAAAVid@locale@2@XZ 00408fcf f   libcpmt:locale0.obj
 0001:00007fd5       ?_Id_func@?$ctype@G@std@@SAAAVid@locale@2@XZ 00408fd5 f   libcpmt:locale0.obj
 0001:00007fdb       ?_Id_func@?$codecvt@GDH@std@@SAAAVid@locale@2@XZ 00408fdb f   libcpmt:locale0.obj
 0001:00007fe1       ?_Locimp_dtor@_Locimp@locale@std@@CAXPAV123@@Z 00408fe1 f   libcpmt:locale0.obj
 0001:00008041       __Fac_tidy                 00409041 f   libcpmt:locale0.obj
 0001:00008084       ?facet_Register@facet@locale@std@@CAXPAV123@@Z 00409084 f   libcpmt:locale0.obj
 0001:000080bd       ?_Locinfo_dtor@_Locinfo@std@@SAXPAV12@@Z 004090bd f   libcpmt:locale0.obj
 0001:000080e0       ??4?$basic_string@DU?$char_traits@D@std@@V?$allocator@D@2@@std@@QAEAAV01@PBD@Z 004090e0 f i libcpmt:locale0.obj
 0001:000080e5       ?_Init@locale@std@@CAPAV_Locimp@12@XZ 004090e5 f   libcpmt:locale0.obj
 0001:0000817f       ?_Locinfo_ctor@_Locinfo@std@@SAXPAV12@PBD@Z 0040917f f   libcpmt:locale0.obj
 0001:000081c9       ?classic@locale@std@@SAABV12@XZ 004091c9 f   libcpmt:locale0.obj
 0001:000081d4       ?empty@locale@std@@SA?AV12@XZ 004091d4 f   libcpmt:locale0.obj
 0001:00008216       ?_Callfns@ios_base@std@@AAEXW4event@12@@Z 00409216 f i libcpmt:ios.obj
 0001:00008238       ?_Tidy@ios_base@std@@AAAXXZ 00409238 f i libcpmt:ios.obj
 0001:0000827e       ?_Fpz_func@std@@YAAA_JXZ   0040927e f   libcpmt:ios.obj
 0001:00008284       ?_BADOFF_func@std@@YAABJXZ 00409284 f   libcpmt:ios.obj
 0001:0000828a       ?_Index_func@ios_base@std@@CAAAHXZ 0040928a f   libcpmt:ios.obj
 0001:00008290       ?_Sync_func@ios_base@std@@CAAA_NXZ 00409290 f   libcpmt:ios.obj
 0001:00008296       ?_Addstd@ios_base@std@@SAXPAV12@@Z 00409296 f   libcpmt:ios.obj
 0001:000082e6       ?_Ios_base_dtor@ios_base@std@@CAXPAV12@@Z 004092e6 f   libcpmt:ios.obj
 0001:00008324       ??0_Mutex@std@@QAE@XZ      00409324 f   libcpmt:xmutex.obj
 0001:0000833c       ??1_Mutex@std@@QAE@XZ      0040933c f   libcpmt:xmutex.obj
 0001:00008351       ?_Lock@_Mutex@std@@QAEXXZ  00409351 f   libcpmt:xmutex.obj
 0001:0000835a       ?_Unlock@_Mutex@std@@QAEXXZ 0040935a f   libcpmt:xmutex.obj
 0001:00008363       ?_Mutex_ctor@_Mutex@std@@CAXPAV12@@Z 00409363 f   libcpmt:xmutex.obj
 0001:00008379       ?_Mutex_dtor@_Mutex@std@@CAXPAV12@@Z 00409379 f   libcpmt:xmutex.obj
 0001:00008390       ?_Mutex_Lock@_Mutex@std@@CAXPAV12@@Z 00409390 f   libcpmt:xmutex.obj
 0001:0000839d       ?_Mutex_Unlock@_Mutex@std@@CAXPAV12@@Z 0040939d f   libcpmt:xmutex.obj
 0001:000083aa       ??0invalid_argument@std@@QAE@ABV?$basic_string@DU?$char_traits@D@std@@V?$allocator@D@2@@1@@Z 004093aa f i libcpmt:string.obj
 0001:000083c2       ??1invalid_argument@std@@UAE@XZ 004093c2 f i libcpmt:string.obj
 0001:000083cd       ??_Einvalid_argument@std@@UAEPAXI@Z 004093cd f i libcpmt:string.obj
 0001:000083cd       ??_Ginvalid_argument@std@@UAEPAXI@Z 004093cd f i libcpmt:string.obj
 0001:000083ef       ?_Xlen@_String_base@std@@SAXXZ 004093ef f   libcpmt:string.obj
 0001:0000842e       ?_Xran@_String_base@std@@SAXXZ 0040942e f   libcpmt:string.obj
 0001:0000846d       ?_Xinvarg@_String_base@std@@SAXXZ 0040946d f   libcpmt:string.obj
 0001:000084ac       ??0invalid_argument@std@@QAE@ABV01@@Z 004094ac f i libcpmt:string.obj
 0001:000084c4       ??0bad_alloc@std@@QAE@XZ   004094c4 f i libcpmt:locale.obj
 0001:000084dd       ?_Getcvt@_Locinfo@std@@QBE?AU_Cvtvec@@XZ 004094dd f i libcpmt:locale.obj
 0001:000084f0       ?_Getlconv@_Locinfo@std@@QBEPBUlconv@@XZ 004094f0 f i libcpmt:locale.obj
 0001:000084f5       ?_Getfalse@_Locinfo@std@@QBEPBDXZ 004094f5 f i libcpmt:locale.obj
 0001:000084fb       ?_Gettrue@_Locinfo@std@@QBEPBDXZ 004094fb f i libcpmt:locale.obj
 0001:00008501       ?_Init@?$num_get@DV?$istreambuf_iterator@DU?$char_traits@D@std@@@std@@@std@@IAEXABV_Locinfo@2@@Z 00409501 f i libcpmt:locale.obj
 0001:00008513       ?_Init@?$num_put@DV?$ostreambuf_iterator@DU?$char_traits@D@std@@@std@@@std@@IAEXABV_Locinfo@2@@Z 00409513 f i libcpmt:locale.obj
 0001:00008525       ?_Tidy@?$numpunct@D@std@@AAEXXZ 00409525 f i libcpmt:locale.obj
 0001:00008545       ??$_Maklocchr@D@std@@YADDPADABU_Cvtvec@@@Z 00409545 f i libcpmt:locale.obj
 0001:0000854a       ??$_Maklocstr@D@std@@YAPADPBDPADABU_Cvtvec@@@Z 0040954a f i libcpmt:locale.obj
 0001:00008573       ??0?$ctype@D@std@@QAE@ABV_Locinfo@1@I@Z 00409573 f i libcpmt:locale.obj
 0001:00008592       ?_Locimp_Addfac@_Locimp@locale@std@@CAXPAV123@PAVfacet@23@I@Z 00409592 f   libcpmt:locale.obj
 0001:00008677       ??0?$num_get@DV?$istreambuf_iterator@DU?$char_traits@D@std@@@std@@@std@@QAE@ABV_Locinfo@1@I@Z 00409677 f i libcpmt:locale.obj
 0001:00008698       ??1?$num_get@DV?$istreambuf_iterator@DU?$char_traits@D@std@@@std@@@std@@MAE@XZ 00409698 f i libcpmt:locale.obj
 0001:0000869f       ??_G?$num_get@DV?$istreambuf_iterator@DU?$char_traits@D@std@@@std@@@std@@MAEPAXI@Z 0040969f f i libcpmt:locale.obj
 0001:0000869f       ??_E?$num_get@DV?$istreambuf_iterator@DU?$char_traits@D@std@@@std@@@std@@MAEPAXI@Z 0040969f f i libcpmt:locale.obj
 0001:000086bc       ?decimal_point@?$numpunct@D@std@@QBEDXZ 004096bc f i libcpmt:locale.obj
 0001:000086c1       ?thousands_sep@?$numpunct@D@std@@QBEDXZ 004096c1 f i libcpmt:locale.obj
 0001:000086c6       ??$_Maklocbyte@D@std@@YADDABU_Cvtvec@@@Z 004096c6 f i libcpmt:locale.obj
 0001:000086cb       ??0?$num_put@DV?$ostreambuf_iterator@DU?$char_traits@D@std@@@std@@@std@@QAE@ABV_Locinfo@1@I@Z 004096cb f i libcpmt:locale.obj
 0001:000086ec       ?precision@ios_base@std@@QBEHXZ 004096ec f i libcpmt:locale.obj
 0001:000086f0       ?width@ios_base@std@@QBEHXZ 004096f0 f i libcpmt:locale.obj
 0001:000086f4       ?width@ios_base@std@@QAEHH@Z 004096f4 f i libcpmt:locale.obj
 0001:00008701       ??1?$num_put@DV?$ostreambuf_iterator@DU?$char_traits@D@std@@@std@@@std@@MAE@XZ 00409701 f i libcpmt:locale.obj
 0001:00008708       ??_E?$num_put@DV?$ostreambuf_iterator@DU?$char_traits@D@std@@@std@@@std@@MAEPAXI@Z 00409708 f i libcpmt:locale.obj
 0001:00008708       ??_G?$num_put@DV?$ostreambuf_iterator@DU?$char_traits@D@std@@@std@@@std@@MAEPAXI@Z 00409708 f i libcpmt:locale.obj
 0001:00008725       ?_Ffmt@?$num_put@DV?$ostreambuf_iterator@DU?$char_traits@D@std@@@std@@@std@@ABAPADPADDH@Z 00409725 f i libcpmt:locale.obj
 0001:00008780       ?_Ifmt@?$num_put@DV?$ostreambuf_iterator@DU?$char_traits@D@std@@@std@@@std@@ABAPADPADPBDH@Z 00409780 f i libcpmt:locale.obj
 0001:000087f4       ??D?$ostreambuf_iterator@DU?$char_traits@D@std@@@std@@QAEAAV01@XZ 004097f4 f i libcpmt:locale.obj
 0001:000087f7       ??E?$ostreambuf_iterator@DU?$char_traits@D@std@@@std@@QAEAAV01@XZ 004097f7 f i libcpmt:locale.obj
 0001:000087fa       ??0?$codecvt@DDH@std@@QAE@ABV_Locinfo@1@I@Z 004097fa f i libcpmt:locale.obj
 0001:0000880c       ?sputc@?$basic_streambuf@DU?$char_traits@D@std@@@std@@QAEHD@Z 0040980c f i libcpmt:locale.obj
 0001:00008849       ?_Init@?$numpunct@D@std@@IAEXABV_Locinfo@2@@Z 00409849 f i libcpmt:locale.obj
 0001:000088ee       ??4?$ostreambuf_iterator@DU?$char_traits@D@std@@@std@@QAEAAV01@D@Z 004098ee f i libcpmt:locale.obj
 0001:00008910       ?_Inc@?$istreambuf_iterator@DU?$char_traits@D@std@@@std@@AAEXXZ 00409910 f i libcpmt:locale.obj
 0001:00008934       ?_Peek@?$istreambuf_iterator@DU?$char_traits@D@std@@@std@@AAEDXZ 00409934 f i libcpmt:locale.obj
 0001:0000895a       ?equal@?$istreambuf_iterator@DU?$char_traits@D@std@@@std@@QBE_NABV12@@Z 0040995a f i libcpmt:locale.obj
 0001:0000899c       ?_Addfac@_Locimp@locale@std@@AAEXPAVfacet@23@I@Z 0040999c f i libcpmt:locale.obj
 0001:000089b0       ?global@locale@std@@SA?AV12@ABV12@@Z 004099b0 f   libcpmt:locale.obj
 0001:00008a79       ??0?$numpunct@D@std@@QAE@ABV_Locinfo@1@I@Z 00409a79 f i libcpmt:locale.obj
 0001:00008aac       ?do_decimal_point@?$numpunct@D@std@@MBEDXZ 00409aac f i libcpmt:locale.obj
 0001:00008ab0       ?do_thousands_sep@?$numpunct@D@std@@MBEDXZ 00409ab0 f i libcpmt:locale.obj
 0001:00008ab4       ??1?$numpunct@D@std@@MAE@XZ 00409ab4 f i libcpmt:locale.obj
 0001:00008aca       ??_G?$numpunct@D@std@@MAEPAXI@Z 00409aca f i libcpmt:locale.obj
 0001:00008aca       ??_E?$numpunct@D@std@@MAEPAXI@Z 00409aca f i libcpmt:locale.obj
 0001:00008ae6       ?_Put@?$num_put@DV?$ostreambuf_iterator@DU?$char_traits@D@std@@@std@@@std@@ABA?AV?$ostreambuf_iterator@DU?$char_traits@D@std@@@2@V32@PBDI@Z 00409ae6 f i libcpmt:locale.obj
 0001:00008b19       ?_Rep@?$num_put@DV?$ostreambuf_iterator@DU?$char_traits@D@std@@@std@@@std@@ABA?AV?$ostreambuf_iterator@DU?$char_traits@D@std@@@2@V32@DI@Z 00409b19 f i libcpmt:locale.obj
 0001:00008b43       ?_Putc@?$num_put@DV?$ostreambuf_iterator@DU?$char_traits@D@std@@@std@@@std@@ABA?AV?$ostreambuf_iterator@DU?$char_traits@D@std@@@2@V32@PBDI@Z 00409b43 f i libcpmt:locale.obj
 0001:00008b76       ?_Putgrouped@?$num_put@DV?$ostreambuf_iterator@DU?$char_traits@D@std@@@std@@@std@@ABA?AV?$ostreambuf_iterator@DU?$char_traits@D@std@@@2@V32@PBDID@Z 00409b76 f i libcpmt:locale.obj
 0001:00008c0a       ??D?$istreambuf_iterator@DU?$char_traits@D@std@@@std@@QBEDXZ 00409c0a f i libcpmt:locale.obj
 0001:00008c1d       ??E?$istreambuf_iterator@DU?$char_traits@D@std@@@std@@QAEAAV01@XZ 00409c1d f i libcpmt:locale.obj
 0001:00008c29       ??$?8DU?$char_traits@D@std@@@std@@YA_NABV?$istreambuf_iterator@DU?$char_traits@D@std@@@0@0@Z 00409c29 f i libcpmt:locale.obj
 0001:00008c37       ??$?9DU?$char_traits@D@std@@@std@@YA_NABV?$istreambuf_iterator@DU?$char_traits@D@std@@@0@0@Z 00409c37 f i libcpmt:locale.obj
 0001:00008c4a       ?falsename@?$numpunct@D@std@@QBE?AV?$basic_string@DU?$char_traits@D@std@@V?$allocator@D@2@@2@XZ 00409c4a f i libcpmt:locale.obj
 0001:00008c61       ?truename@?$numpunct@D@std@@QBE?AV?$basic_string@DU?$char_traits@D@std@@V?$allocator@D@2@@2@XZ 00409c61 f i libcpmt:locale.obj
 0001:00008c78       ?grouping@?$numpunct@D@std@@QBE?AV?$basic_string@DU?$char_traits@D@std@@V?$allocator@D@2@@2@XZ 00409c78 f i libcpmt:locale.obj
 0001:00008c8f       ?append@?$basic_string@DU?$char_traits@D@std@@V?$allocator@D@2@@std@@QAEAAV12@PBDI@Z 00409c8f f i libcpmt:locale.obj
 0001:00008d2b       ?insert@?$basic_string@DU?$char_traits@D@std@@V?$allocator@D@2@@std@@QAEAAV12@IID@Z 00409d2b f i libcpmt:locale.obj
 0001:00008dc5       ??$_Getloctxt@DV?$istreambuf_iterator@DU?$char_traits@D@std@@@std@@@std@@YAHAAV?$istreambuf_iterator@DU?$char_traits@D@std@@@0@0IPBD@Z 00409dc5 f i libcpmt:locale.obj
 0001:00008f15       ?do_grouping@?$numpunct@D@std@@MBE?AV?$basic_string@DU?$char_traits@D@std@@V?$allocator@D@2@@2@XZ 00409f15 f i libcpmt:locale.obj
 0001:00008f2f       ?do_falsename@?$numpunct@D@std@@MBE?AV?$basic_string@DU?$char_traits@D@std@@V?$allocator@D@2@@2@XZ 00409f2f f i libcpmt:locale.obj
 0001:00008f49       ?do_truename@?$numpunct@D@std@@MBE?AV?$basic_string@DU?$char_traits@D@std@@V?$allocator@D@2@@2@XZ 00409f49 f i libcpmt:locale.obj
 0001:00008f63       ?_Locinfo_Addcats@_Locinfo@std@@SAAAV12@PAV12@HPBD@Z 00409f63 f   libcpmt:locale.obj
 0001:00008fe8       ??0?$num_get@DV?$istreambuf_iterator@DU?$char_traits@D@std@@@std@@@std@@QAE@I@Z 00409fe8 f i libcpmt:locale.obj
 0001:0000903c       ??0?$num_put@DV?$ostreambuf_iterator@DU?$char_traits@D@std@@@std@@@std@@QAE@I@Z 0040a03c f i libcpmt:locale.obj
 0001:00009090       ??0?$numpunct@D@std@@QAE@I@Z 0040a090 f i libcpmt:locale.obj
 0001:000090fe       ?_Locinfo_ctor@_Locinfo@std@@SAXPAV12@HPBD@Z 0040a0fe f   libcpmt:locale.obj
 0001:00009133       ?_Getcat@?$num_get@DV?$istreambuf_iterator@DU?$char_traits@D@std@@@std@@@std@@SAIPAPBVfacet@locale@2@@Z 0040a133 f i libcpmt:locale.obj
 0001:00009176       ?_Getcat@?$num_put@DV?$ostreambuf_iterator@DU?$char_traits@D@std@@@std@@@std@@SAIPAPBVfacet@locale@2@@Z 0040a176 f i libcpmt:locale.obj
 0001:000091b9       ?_Getcat@?$numpunct@D@std@@SAIPAPBVfacet@locale@2@@Z 0040a1b9 f i libcpmt:locale.obj
 0001:000091fc       ??$use_facet@V?$num_get@DV?$istreambuf_iterator@DU?$char_traits@D@std@@@std@@@std@@@std@@YAABV?$num_get@DV?$istreambuf_iterator@DU?$char_traits@D@std@@@std@@@0@ABVlocale@0@@Z 0040a1fc f i libcpmt:locale.obj
 0001:00009295       ??$use_facet@V?$num_put@DV?$ostreambuf_iterator@DU?$char_traits@D@std@@@std@@@std@@@std@@YAABV?$num_put@DV?$ostreambuf_iterator@DU?$char_traits@D@std@@@std@@@0@ABVlocale@0@@Z 0040a295 f i libcpmt:locale.obj
 0001:0000932e       ??$use_facet@V?$numpunct@D@std@@@std@@YAABV?$numpunct@D@0@ABVlocale@0@@Z 0040a32e f i libcpmt:locale.obj
 0001:000093c7       ?_Makeloc@_Locimp@locale@std@@CAPAV123@ABV_Locinfo@3@HPAV123@PBV23@@Z 0040a3c7 f   libcpmt:locale.obj
 0001:0000962a       ?_Locimp_ctor@_Locimp@locale@std@@CAXPAV123@ABV123@@Z 0040a62a f   libcpmt:locale.obj
 0001:00009743       ?do_put@?$num_put@DV?$ostreambuf_iterator@DU?$char_traits@D@std@@@std@@@std@@MBE?AV?$ostreambuf_iterator@DU?$char_traits@D@std@@@2@V32@AAVios_base@2@D_N@Z 0040a743 f i libcpmt:locale.obj
 0001:000098b1       ?_Getifld@?$num_get@DV?$istreambuf_iterator@DU?$char_traits@D@std@@@std@@@std@@ABAHPADAAV?$istreambuf_iterator@DU?$char_traits@D@std@@@2@1HABVlocale@2@@Z 0040a8b1 f i libcpmt:locale.obj
 0001:00009b68       ?_Getffld@?$num_get@DV?$istreambuf_iterator@DU?$char_traits@D@std@@@std@@@std@@ABAHPADAAV?$istreambuf_iterator@DU?$char_traits@D@std@@@2@1ABVlocale@2@@Z 0040ab68 f i libcpmt:locale.obj
 0001:00009fb7       ?_Fput@?$num_put@DV?$ostreambuf_iterator@DU?$char_traits@D@std@@@std@@@std@@ABA?AV?$ostreambuf_iterator@DU?$char_traits@D@std@@@2@V32@AAVios_base@2@DPBDIIII@Z 0040afb7 f i libcpmt:locale.obj
 0001:0000a403       ?_Iput@?$num_put@DV?$ostreambuf_iterator@DU?$char_traits@D@std@@@std@@@std@@ABA?AV?$ostreambuf_iterator@DU?$char_traits@D@std@@@2@V32@AAVios_base@2@DPADI@Z 0040b403 f i libcpmt:locale.obj
 0001:0000a5ee       ?do_get@?$num_get@DV?$istreambuf_iterator@DU?$char_traits@D@std@@@std@@@std@@MBE?AV?$istreambuf_iterator@DU?$char_traits@D@std@@@2@V32@0AAVios_base@2@AAHAA_N@Z 0040b5ee f i libcpmt:locale.obj
 0001:0000a788       ?do_get@?$num_get@DV?$istreambuf_iterator@DU?$char_traits@D@std@@@std@@@std@@MBE?AV?$istreambuf_iterator@DU?$char_traits@D@std@@@2@V32@0AAVios_base@2@AAHAAG@Z 0040b788 f i libcpmt:locale.obj
 0001:0000a854       ?do_get@?$num_get@DV?$istreambuf_iterator@DU?$char_traits@D@std@@@std@@@std@@MBE?AV?$istreambuf_iterator@DU?$char_traits@D@std@@@2@V32@0AAVios_base@2@AAHAAI@Z 0040b854 f i libcpmt:locale.obj
 0001:0000a91c       ?do_get@?$num_get@DV?$istreambuf_iterator@DU?$char_traits@D@std@@@std@@@std@@MBE?AV?$istreambuf_iterator@DU?$char_traits@D@std@@@2@V32@0AAVios_base@2@AAHAAJ@Z 0040b91c f i libcpmt:locale.obj
 0001:0000a9c7       ?do_get@?$num_get@DV?$istreambuf_iterator@DU?$char_traits@D@std@@@std@@@std@@MBE?AV?$istreambuf_iterator@DU?$char_traits@D@std@@@2@V32@0AAVios_base@2@AAHAAK@Z 0040b9c7 f i libcpmt:locale.obj
 0001:0000aa72       ?do_get@?$num_get@DV?$istreambuf_iterator@DU?$char_traits@D@std@@@std@@@std@@MBE?AV?$istreambuf_iterator@DU?$char_traits@D@std@@@2@V32@0AAVios_base@2@AAHAA_J@Z 0040ba72 f i libcpmt:locale.obj
 0001:0000ab15       ?do_get@?$num_get@DV?$istreambuf_iterator@DU?$char_traits@D@std@@@std@@@std@@MBE?AV?$istreambuf_iterator@DU?$char_traits@D@std@@@2@V32@0AAVios_base@2@AAHAA_K@Z 0040bb15 f i libcpmt:locale.obj
 0001:0000abb8       ?do_get@?$num_get@DV?$istreambuf_iterator@DU?$char_traits@D@std@@@std@@@std@@MBE?AV?$istreambuf_iterator@DU?$char_traits@D@std@@@2@V32@0AAVios_base@2@AAHAAM@Z 0040bbb8 f i libcpmt:locale.obj
 0001:0000ac5d       ?do_get@?$num_get@DV?$istreambuf_iterator@DU?$char_traits@D@std@@@std@@@std@@MBE?AV?$istreambuf_iterator@DU?$char_traits@D@std@@@2@V32@0AAVios_base@2@AAHAAN@Z 0040bc5d f i libcpmt:locale.obj
 0001:0000ad02       ?do_get@?$num_get@DV?$istreambuf_iterator@DU?$char_traits@D@std@@@std@@@std@@MBE?AV?$istreambuf_iterator@DU?$char_traits@D@std@@@2@V32@0AAVios_base@2@AAHAAO@Z 0040bd02 f i libcpmt:locale.obj
 0001:0000ada7       ?do_get@?$num_get@DV?$istreambuf_iterator@DU?$char_traits@D@std@@@std@@@std@@MBE?AV?$istreambuf_iterator@DU?$char_traits@D@std@@@2@V32@0AAVios_base@2@AAHAAPAX@Z 0040bda7 f i libcpmt:locale.obj
 0001:0000ae5e       ?do_put@?$num_put@DV?$ostreambuf_iterator@DU?$char_traits@D@std@@@std@@@std@@MBE?AV?$ostreambuf_iterator@DU?$char_traits@D@std@@@2@V32@AAVios_base@2@DJ@Z 0040be5e f i libcpmt:locale.obj
 0001:0000aed5       ?do_put@?$num_put@DV?$ostreambuf_iterator@DU?$char_traits@D@std@@@std@@@std@@MBE?AV?$ostreambuf_iterator@DU?$char_traits@D@std@@@2@V32@AAVios_base@2@DK@Z 0040bed5 f i libcpmt:locale.obj
 0001:0000af4c       ?do_put@?$num_put@DV?$ostreambuf_iterator@DU?$char_traits@D@std@@@std@@@std@@MBE?AV?$ostreambuf_iterator@DU?$char_traits@D@std@@@2@V32@AAVios_base@2@D_J@Z 0040bf4c f i libcpmt:locale.obj
 0001:0000afc6       ?do_put@?$num_put@DV?$ostreambuf_iterator@DU?$char_traits@D@std@@@std@@@std@@MBE?AV?$ostreambuf_iterator@DU?$char_traits@D@std@@@2@V32@AAVios_base@2@D_K@Z 0040bfc6 f i libcpmt:locale.obj
 0001:0000b040       ?do_put@?$num_put@DV?$ostreambuf_iterator@DU?$char_traits@D@std@@@std@@@std@@MBE?AV?$ostreambuf_iterator@DU?$char_traits@D@std@@@2@V32@AAVios_base@2@DN@Z 0040c040 f i libcpmt:locale.obj
 0001:0000b1a5       ?do_put@?$num_put@DV?$ostreambuf_iterator@DU?$char_traits@D@std@@@std@@@std@@MBE?AV?$ostreambuf_iterator@DU?$char_traits@D@std@@@2@V32@AAVios_base@2@DO@Z 0040c1a5 f i libcpmt:locale.obj
 0001:0000b302       ?do_put@?$num_put@DV?$ostreambuf_iterator@DU?$char_traits@D@std@@@std@@@std@@MBE?AV?$ostreambuf_iterator@DU?$char_traits@D@std@@@2@V32@AAVios_base@2@DPBX@Z 0040c302 f i libcpmt:locale.obj
 0001:0000b368       __Toupper                  0040c368 f   libcpmt:_toupper.obj
 0001:0000b47c       __invoke_watson_if_error   0040c47c f i libcpmt:fiopen.obj
 0001:0000b49e       ?_Xfsopen@std@@YAPAU_iobuf@@PB_W0H@Z 0040c49e f   libcpmt:fiopen.obj
 0001:0000b553       ?_Fiopen@std@@YAPAU_iobuf@@PB_WHH@Z 0040c553 f   libcpmt:fiopen.obj
 0001:0000b608       ?_Fiopen@std@@YAPAU_iobuf@@PBGHH@Z 0040c608 f   libcpmt:fiopen.obj
 0001:0000b60d       ?_Fiopen@std@@YAPAU_iobuf@@PBDHH@Z 0040c60d f   libcpmt:fiopen.obj
 0001:0000b668       __Once                     0040c668 f   libcpmt:xmtx.obj
 0001:0000b69f       __Mtxinit                  0040c69f f   libcpmt:xmtx.obj
 0001:0000b6aa       __Mtxdst                   0040c6aa f   libcpmt:xmtx.obj
 0001:0000b6b5       __Mtxlock                  0040c6b5 f   libcpmt:xmtx.obj
 0001:0000b6c0       __Mtxunlock                0040c6c0 f   libcpmt:xmtx.obj
 0001:0000b6cb       ?_Atexit@@YAXP6AXXZ@Z      0040c6cb f   libcpmt:iosptrs.obj
 0001:0000b6eb       ??1_Init_atexit@@QAE@XZ    0040c6eb f i libcpmt:iosptrs.obj
 0001:0000b710       __Wcrtomb                  0040c710 f   libcpmt:xwctomb.obj
 0001:0000b791       __Getcvt                   0040c791 f   libcpmt:xwctomb.obj
 0001:0000b7a5       ___Wcrtomb_lk              0040c7a5 f   libcpmt:xwctomb.obj
 0001:0000b7aa       ??_U@YAPAXI@Z              0040c7aa f   libcpmt:newaop.obj
 0001:0000b7af       ??0_Timevec@std@@QAE@PAX@Z 0040c7af f i libcpmt:wlocale.obj
 0001:0000b7ba       ??1_Timevec@std@@QAE@XZ    0040c7ba f i libcpmt:wlocale.obj
 0001:0000b7c3       ??4_Timevec@std@@QAEAAV01@ABV01@@Z 0040c7c3 f i libcpmt:wlocale.obj
 0001:0000b7d3       ?_Getcoll@_Locinfo@std@@QBE?AU_Collvec@@XZ 0040c7d3 f i libcpmt:wlocale.obj
 0001:0000b7e6       ?_Gettnames@_Locinfo@std@@QBE?AV_Timevec@2@XZ 0040c7e6 f i libcpmt:wlocale.obj
 0001:0000b7fe       ?_Getdateorder@_Locinfo@std@@QBEHXZ 0040c7fe f i libcpmt:wlocale.obj
 0001:0000b803       ??$_Maklocchr@_W@std@@YA_WDPA_WABU_Cvtvec@@@Z 0040c803 f i libcpmt:wlocale.obj
 0001:0000b82f       ??$_Maklocchr@G@std@@YAGDPAGABU_Cvtvec@@@Z 0040c82f f i libcpmt:wlocale.obj
 0001:0000b85b       ??$_Maklocstr@_W@std@@YAPA_WPBDPA_WABU_Cvtvec@@@Z 0040c85b f i libcpmt:wlocale.obj
 0001:0000b8f5       ??$_Maklocstr@G@std@@YAPAGPBDPAGABU_Cvtvec@@@Z 0040c8f5 f i libcpmt:wlocale.obj
 0001:0000b98f       ?_Init@?$codecvt@_WDH@std@@IAEXABV_Locinfo@2@@Z 0040c98f f i libcpmt:wlocale.obj
 0001:0000b9a1       ?_Init@?$codecvt@GDH@std@@IAEXABV_Locinfo@2@@Z 0040c9a1 f i libcpmt:wlocale.obj
 0001:0000b9b3       ?_Init@?$ctype@_W@std@@IAEXABV_Locinfo@2@@Z 0040c9b3 f i libcpmt:wlocale.obj
 0001:0000b9e5       ?_Init@?$ctype@G@std@@IAEXABV_Locinfo@2@@Z 0040c9e5 f i libcpmt:wlocale.obj
 0001:0000ba17       ??0messages_base@std@@QAE@I@Z 0040ca17 f i libcpmt:wlocale.obj
 0001:0000ba29       ??1messages_base@std@@UAE@XZ 0040ca29 f i libcpmt:wlocale.obj
 0001:0000ba30       ??_Gmessages_base@std@@UAEPAXI@Z 0040ca30 f i libcpmt:wlocale.obj
 0001:0000ba30       ??_Emessages_base@std@@UAEPAXI@Z 0040ca30 f i libcpmt:wlocale.obj
 0001:0000ba4d       ??0money_base@std@@QAE@I@Z 0040ca4d f i libcpmt:wlocale.obj
 0001:0000ba5f       ??1money_base@std@@UAE@XZ  0040ca5f f i libcpmt:wlocale.obj
 0001:0000ba66       ??_Gmoney_base@std@@UAEPAXI@Z 0040ca66 f i libcpmt:wlocale.obj
 0001:0000ba66       ??_Emoney_base@std@@UAEPAXI@Z 0040ca66 f i libcpmt:wlocale.obj
 0001:0000ba83       ??0time_base@std@@QAE@I@Z  0040ca83 f i libcpmt:wlocale.obj
 0001:0000ba95       ??1time_base@std@@UAE@XZ   0040ca95 f i libcpmt:wlocale.obj
 0001:0000ba9c       ??_Gtime_base@std@@UAEPAXI@Z 0040ca9c f i libcpmt:wlocale.obj
 0001:0000ba9c       ??_Etime_base@std@@UAEPAXI@Z 0040ca9c f i libcpmt:wlocale.obj
 0001:0000bab9       ?_Init@?$time_put@_WV?$ostreambuf_iterator@_WU?$char_traits@_W@std@@@std@@@std@@IAEXABV_Locinfo@2@@Z 0040cab9 f i libcpmt:wlocale.obj
 0001:0000baec       ?_Init@?$num_get@_WV?$istreambuf_iterator@_WU?$char_traits@_W@std@@@std@@@std@@IAEXABV_Locinfo@2@@Z 0040caec f i libcpmt:wlocale.obj
 0001:0000bafe       ?_Init@?$num_put@_WV?$ostreambuf_iterator@_WU?$char_traits@_W@std@@@std@@@std@@IAEXABV_Locinfo@2@@Z 0040cafe f i libcpmt:wlocale.obj
 0001:0000bb10       ?_Tidy@?$numpunct@_W@std@@AAEXXZ 0040cb10 f i libcpmt:wlocale.obj
 0001:0000bb30       ?_Init@?$collate@_W@std@@IAEXABV_Locinfo@2@@Z 0040cb30 f i libcpmt:wlocale.obj
 0001:0000bb42       ?_Init@?$messages@_W@std@@IAEXABV_Locinfo@2@@Z 0040cb42 f i libcpmt:wlocale.obj
 0001:0000bb45       ?_Init@?$money_get@_WV?$istreambuf_iterator@_WU?$char_traits@_W@std@@@std@@@std@@IAEXABV_Locinfo@2@@Z 0040cb45 f i libcpmt:wlocale.obj
 0001:0000bb57       ?_Init@?$money_put@_WV?$ostreambuf_iterator@_WU?$char_traits@_W@std@@@std@@@std@@IAEXABV_Locinfo@2@@Z 0040cb57 f i libcpmt:wlocale.obj
 0001:0000bb69       ?_Tidy@?$_Mpunct@_W@std@@AAEXXZ 0040cb69 f i libcpmt:wlocale.obj
 0001:0000bb91       ?_Tidy@?$time_get@_WV?$istreambuf_iterator@_WU?$char_traits@_W@std@@@std@@@std@@AAEXXZ 0040cb91 f i libcpmt:wlocale.obj
 0001:0000bba8       ?_Init@?$num_get@GV?$istreambuf_iterator@GU?$char_traits@G@std@@@std@@@std@@IAEXABV_Locinfo@2@@Z 0040cba8 f i libcpmt:wlocale.obj
 0001:0000bbba       ?_Init@?$num_put@GV?$ostreambuf_iterator@GU?$char_traits@G@std@@@std@@@std@@IAEXABV_Locinfo@2@@Z 0040cbba f i libcpmt:wlocale.obj
 0001:0000bbcc       ?_Tidy@?$numpunct@G@std@@AAEXXZ 0040cbcc f i libcpmt:wlocale.obj
 0001:0000bbec       ?_Init@?$collate@G@std@@IAEXABV_Locinfo@2@@Z 0040cbec f i libcpmt:wlocale.obj
 0001:0000bbfe       ?_Init@?$messages@G@std@@IAEXABV_Locinfo@2@@Z 0040cbfe f i libcpmt:wlocale.obj
 0001:0000bc01       ?_Init@?$money_get@GV?$istreambuf_iterator@GU?$char_traits@G@std@@@std@@@std@@IAEXABV_Locinfo@2@@Z 0040cc01 f i libcpmt:wlocale.obj
 0001:0000bc13       ?_Init@?$money_put@GV?$ostreambuf_iterator@GU?$char_traits@G@std@@@std@@@std@@IAEXABV_Locinfo@2@@Z 0040cc13 f i libcpmt:wlocale.obj
 0001:0000bc25       ?_Tidy@?$_Mpunct@G@std@@AAEXXZ 0040cc25 f i libcpmt:wlocale.obj
 0001:0000bc4d       ?_Tidy@?$time_get@GV?$istreambuf_iterator@GU?$char_traits@G@std@@@std@@@std@@AAEXXZ 0040cc4d f i libcpmt:wlocale.obj
 0001:0000bc64       ?_Init@?$time_put@GV?$ostreambuf_iterator@GU?$char_traits@G@std@@@std@@@std@@IAEXABV_Locinfo@2@@Z 0040cc64 f i libcpmt:wlocale.obj
 0001:0000bc97       ?_Makpat@?$_Mpunct@_W@std@@AAEXAAUpattern@money_base@2@III@Z 0040cc97 f i libcpmt:wlocale.obj
 0001:0000bce1       ?_Makpat@?$_Mpunct@G@std@@AAEXAAUpattern@money_base@2@III@Z 0040cce1 f i libcpmt:wlocale.obj
 0001:0000bd2b       ??0?$codecvt@_WDH@std@@QAE@ABV_Locinfo@1@I@Z 0040cd2b f i libcpmt:wlocale.obj
 0001:0000bd4c       ??1?$codecvt@_WDH@std@@MAE@XZ 0040cd4c f i libcpmt:wlocale.obj
 0001:0000bd53       ?do_in@?$codecvt@_WDH@std@@MBEHAAHPBD1AAPBDPA_W3AAPA_W@Z 0040cd53 f i libcpmt:wlocale.obj
 0001:0000bde7       ?do_out@?$codecvt@_WDH@std@@MBEHAAHPB_W1AAPB_WPAD3AAPAD@Z 0040cde7 f i libcpmt:wlocale.obj
 0001:0000bed9       ?do_unshift@?$codecvt@_WDH@std@@MBEHAAHPAD1AAPAD@Z 0040ced9 f i libcpmt:wlocale.obj
 0001:0000bf6d       ?do_length@?$codecvt@_WDH@std@@MBEHABHPBD1I@Z 0040cf6d f i libcpmt:wlocale.obj
 0001:0000bfdc       ?do_always_noconv@?$codecvt@_WDH@std@@MBE_NXZ 0040cfdc f i libcpmt:wlocale.obj
 0001:0000bfdf       ?do_max_length@?$codecvt@_WDH@std@@MBEHXZ 0040cfdf f i libcpmt:wlocale.obj
 0001:0000bfe3       ?do_encoding@?$codecvt@_WDH@std@@MBEHXZ 0040cfe3 f i libcpmt:wlocale.obj
 0001:0000bfe6       ??_E?$codecvt@_WDH@std@@MAEPAXI@Z 0040cfe6 f i libcpmt:wlocale.obj
 0001:0000bfe6       ??_G?$codecvt@_WDH@std@@MAEPAXI@Z 0040cfe6 f i libcpmt:wlocale.obj
 0001:0000c003       ??0?$codecvt@GDH@std@@QAE@ABV_Locinfo@1@I@Z 0040d003 f i libcpmt:wlocale.obj
 0001:0000c024       ??1?$codecvt@GDH@std@@MAE@XZ 0040d024 f i libcpmt:wlocale.obj
 0001:0000c02b       ?do_in@?$codecvt@GDH@std@@MBEHAAHPBD1AAPBDPAG3AAPAG@Z 0040d02b f i libcpmt:wlocale.obj
 0001:0000c0bf       ?do_out@?$codecvt@GDH@std@@MBEHAAHPBG1AAPBGPAD3AAPAD@Z 0040d0bf f i libcpmt:wlocale.obj
 0001:0000c1b1       ?do_unshift@?$codecvt@GDH@std@@MBEHAAHPAD1AAPAD@Z 0040d1b1 f i libcpmt:wlocale.obj
 0001:0000c245       ?do_length@?$codecvt@GDH@std@@MBEHABHPBD1I@Z 0040d245 f i libcpmt:wlocale.obj
 0001:0000c2b4       ?do_always_noconv@?$codecvt@GDH@std@@MBE_NXZ 0040d2b4 f i libcpmt:wlocale.obj
 0001:0000c2b7       ?do_max_length@?$codecvt@GDH@std@@MBEHXZ 0040d2b7 f i libcpmt:wlocale.obj
 0001:0000c2bb       ?do_encoding@?$codecvt@GDH@std@@MBEHXZ 0040d2bb f i libcpmt:wlocale.obj
 0001:0000c2be       ??_E?$codecvt@GDH@std@@MAEPAXI@Z 0040d2be f i libcpmt:wlocale.obj
 0001:0000c2be       ??_G?$codecvt@GDH@std@@MAEPAXI@Z 0040d2be f i libcpmt:wlocale.obj
 0001:0000c2db       ??0?$ctype@_W@std@@QAE@ABV_Locinfo@1@I@Z 0040d2db f i libcpmt:wlocale.obj
 0001:0000c2fa       ?is@?$ctype@_W@std@@QBE_NF_W@Z 0040d2fa f i libcpmt:wlocale.obj
 0001:0000c2ff       ??1?$ctype@_W@std@@MAE@XZ  0040d2ff f i libcpmt:wlocale.obj
 0001:0000c31f       ?do_is@?$ctype@_W@std@@MBE_NF_W@Z 0040d31f f i libcpmt:wlocale.obj
 0001:0000c33d       ?do_is@?$ctype@_W@std@@MBEPB_WPB_W0PAF@Z 0040d33d f i libcpmt:wlocale.obj
 0001:0000c358       ?do_scan_is@?$ctype@_W@std@@MBEPB_WFPB_W0@Z 0040d358 f i libcpmt:wlocale.obj
 0001:0000c384       ?do_scan_not@?$ctype@_W@std@@MBEPB_WFPB_W0@Z 0040d384 f i libcpmt:wlocale.obj
 0001:0000c3b0       ?do_tolower@?$ctype@_W@std@@MBE_W_W@Z 0040d3b0 f i libcpmt:wlocale.obj
 0001:0000c3c2       ?do_tolower@?$ctype@_W@std@@MBEPB_WPA_WPB_W@Z 0040d3c2 f i libcpmt:wlocale.obj
 0001:0000c3ef       ?do_toupper@?$ctype@_W@std@@MBE_W_W@Z 0040d3ef f i libcpmt:wlocale.obj
 0001:0000c401       ?do_toupper@?$ctype@_W@std@@MBEPB_WPA_WPB_W@Z 0040d401 f i libcpmt:wlocale.obj
 0001:0000c42e       ?_Dowiden@?$ctype@_W@std@@IBE_WD@Z 0040d42e f i libcpmt:wlocale.obj
 0001:0000c462       ?do_widen@?$ctype@_W@std@@MBE_WD@Z 0040d462 f i libcpmt:wlocale.obj
 0001:0000c467       ?do_widen@?$ctype@_W@std@@MBEPBDPBD0PA_W@Z 0040d467 f i libcpmt:wlocale.obj
 0001:0000c483       ?_Do_widen_s@?$ctype@_W@std@@MBEPBDPBD0PA_WI@Z 0040d483 f i libcpmt:wlocale.obj
 0001:0000c4c4       ?_Donarrow@?$ctype@_W@std@@IBED_WD@Z 0040d4c4 f i libcpmt:wlocale.obj
 0001:0000c50a       ?do_narrow@?$ctype@_W@std@@MBED_WD@Z 0040d50a f i libcpmt:wlocale.obj
 0001:0000c50f       ?do_narrow@?$ctype@_W@std@@MBEPB_WPB_W0DPAD@Z 0040d50f f i libcpmt:wlocale.obj
 0001:0000c530       ?_Do_narrow_s@?$ctype@_W@std@@MBEPB_WPB_W0DPADI@Z 0040d530 f i libcpmt:wlocale.obj
 0001:0000c575       ??_E?$ctype@_W@std@@MAEPAXI@Z 0040d575 f i libcpmt:wlocale.obj
 0001:0000c575       ??_G?$ctype@_W@std@@MAEPAXI@Z 0040d575 f i libcpmt:wlocale.obj
 0001:0000c591       ??0?$ctype@G@std@@QAE@ABV_Locinfo@1@I@Z 0040d591 f i libcpmt:wlocale.obj
 0001:0000c5b0       ?is@?$ctype@G@std@@QBE_NFG@Z 0040d5b0 f i libcpmt:wlocale.obj
 0001:0000c5b5       ??1?$ctype@G@std@@MAE@XZ   0040d5b5 f i libcpmt:wlocale.obj
 0001:0000c5d5       ?do_is@?$ctype@G@std@@MBE_NFG@Z 0040d5d5 f i libcpmt:wlocale.obj
 0001:0000c5f3       ?do_is@?$ctype@G@std@@MBEPBGPBG0PAF@Z 0040d5f3 f i libcpmt:wlocale.obj
 0001:0000c60e       ?do_scan_is@?$ctype@G@std@@MBEPBGFPBG0@Z 0040d60e f i libcpmt:wlocale.obj
 0001:0000c63a       ?do_scan_not@?$ctype@G@std@@MBEPBGFPBG0@Z 0040d63a f i libcpmt:wlocale.obj
 0001:0000c666       ?do_tolower@?$ctype@G@std@@MBEGG@Z 0040d666 f i libcpmt:wlocale.obj
 0001:0000c678       ?do_tolower@?$ctype@G@std@@MBEPBGPAGPBG@Z 0040d678 f i libcpmt:wlocale.obj
 0001:0000c6a5       ?do_toupper@?$ctype@G@std@@MBEGG@Z 0040d6a5 f i libcpmt:wlocale.obj
 0001:0000c6b7       ?do_toupper@?$ctype@G@std@@MBEPBGPAGPBG@Z 0040d6b7 f i libcpmt:wlocale.obj
 0001:0000c6e4       ?_Dowiden@?$ctype@G@std@@IBEGD@Z 0040d6e4 f i libcpmt:wlocale.obj
 0001:0000c718       ?do_widen@?$ctype@G@std@@MBEGD@Z 0040d718 f i libcpmt:wlocale.obj
 0001:0000c71d       ?do_widen@?$ctype@G@std@@MBEPBDPBD0PAG@Z 0040d71d f i libcpmt:wlocale.obj
 0001:0000c739       ?_Do_widen_s@?$ctype@G@std@@MBEPBDPBD0PAGI@Z 0040d739 f i libcpmt:wlocale.obj
 0001:0000c77a       ?_Donarrow@?$ctype@G@std@@IBEDGD@Z 0040d77a f i libcpmt:wlocale.obj
 0001:0000c7c0       ?do_narrow@?$ctype@G@std@@MBEDGD@Z 0040d7c0 f i libcpmt:wlocale.obj
 0001:0000c7c5       ?do_narrow@?$ctype@G@std@@MBEPBGPBG0DPAD@Z 0040d7c5 f i libcpmt:wlocale.obj
 0001:0000c7e6       ?_Do_narrow_s@?$ctype@G@std@@MBEPBGPBG0DPADI@Z 0040d7e6 f i libcpmt:wlocale.obj
 0001:0000c82b       ??_G?$ctype@G@std@@MAEPAXI@Z 0040d82b f i libcpmt:wlocale.obj
 0001:0000c82b       ??_E?$ctype@G@std@@MAEPAXI@Z 0040d82b f i libcpmt:wlocale.obj
 0001:0000c847       ??0?$time_put@_WV?$ostreambuf_iterator@_WU?$char_traits@_W@std@@@std@@@std@@QAE@ABV_Locinfo@1@I@Z 0040d847 f i libcpmt:wlocale.obj
 0001:0000c86a       ?to_int_type@?$char_traits@_W@std@@SAGAB_W@Z 0040d86a f i libcpmt:wlocale.obj
 0001:0000c872       ?eq_int_type@?$char_traits@_W@std@@SA_NABG0@Z 0040d872 f i libcpmt:wlocale.obj
 0001:0000c887       ?eof@?$char_traits@_W@std@@SAGXZ 0040d887 f i libcpmt:wlocale.obj
 0001:0000c88c       ?_Getptr@_Timevec@std@@QBEPAXXZ 0040d88c f i libcpmt:wlocale.obj
 0001:0000c88f       ??1?$time_put@_WV?$ostreambuf_iterator@_WU?$char_traits@_W@std@@@std@@@std@@MAE@XZ 0040d88f f i libcpmt:wlocale.obj
 0001:0000c8a9       ??_G?$time_put@_WV?$ostreambuf_iterator@_WU?$char_traits@_W@std@@@std@@@std@@MAEPAXI@Z 0040d8a9 f i libcpmt:wlocale.obj
 0001:0000c8a9       ??_E?$time_put@_WV?$ostreambuf_iterator@_WU?$char_traits@_W@std@@@std@@@std@@MAEPAXI@Z 0040d8a9 f i libcpmt:wlocale.obj
 0001:0000c8c5       ?_Pnavail@?$basic_streambuf@_WU?$char_traits@_W@std@@@std@@IBEHXZ 0040d8c5 f i libcpmt:wlocale.obj
 0001:0000c8d4       ??D?$ostreambuf_iterator@_WU?$char_traits@_W@std@@@std@@QAEAAV01@XZ 0040d8d4 f i libcpmt:wlocale.obj
 0001:0000c8d7       ??E?$ostreambuf_iterator@_WU?$char_traits@_W@std@@@std@@QAEAAV01@H@Z 0040d8d7 f i libcpmt:wlocale.obj
 0001:0000c8dc       ?_Pninc@?$basic_streambuf@_WU?$char_traits@_W@std@@@std@@IAEPA_WXZ 0040d8dc f i libcpmt:wlocale.obj
 0001:0000c8ec       ??0?$num_get@_WV?$istreambuf_iterator@_WU?$char_traits@_W@std@@@std@@@std@@QAE@ABV_Locinfo@1@I@Z 0040d8ec f i libcpmt:wlocale.obj
 0001:0000c90d       _wmemcpy_s                 0040d90d f i libcpmt:wlocale.obj
 0001:0000c92c       _wmemset                   0040d92c f i libcpmt:wlocale.obj
 0001:0000c957       ?assign@?$char_traits@_W@std@@SAXAA_WAB_W@Z 0040d957 f i libcpmt:wlocale.obj
 0001:0000c966       ?_Copy_s@?$char_traits@_W@std@@SAPA_WPA_WIPB_WI@Z 0040d966 f i libcpmt:wlocale.obj
 0001:0000c982       ?assign@?$char_traits@_W@std@@SAPA_WPA_WI_W@Z 0040d982 f i libcpmt:wlocale.obj
 0001:0000c997       ?to_char_type@?$char_traits@_W@std@@SA_WABG@Z 0040d997 f i libcpmt:wlocale.obj
 0001:0000c99f       ??$_Maklocbyte@_W@std@@YAD_WABU_Cvtvec@@@Z 0040d99f f i libcpmt:wlocale.obj
 0001:0000c9c7       ??1?$num_get@_WV?$istreambuf_iterator@_WU?$char_traits@_W@std@@@std@@@std@@MAE@XZ 0040d9c7 f i libcpmt:wlocale.obj
 0001:0000c9ce       ??_G?$num_get@_WV?$istreambuf_iterator@_WU?$char_traits@_W@std@@@std@@@std@@MAEPAXI@Z 0040d9ce f i libcpmt:wlocale.obj
 0001:0000c9ce       ??_E?$num_get@_WV?$istreambuf_iterator@_WU?$char_traits@_W@std@@@std@@@std@@MAEPAXI@Z 0040d9ce f i libcpmt:wlocale.obj
 0001:0000c9eb       ?gptr@?$basic_streambuf@_WU?$char_traits@_W@std@@@std@@IBEPA_WXZ 0040d9eb f i libcpmt:wlocale.obj
 0001:0000c9f1       ?_Gninc@?$basic_streambuf@_WU?$char_traits@_W@std@@@std@@IAEPA_WXZ 0040d9f1 f i libcpmt:wlocale.obj
 0001:0000ca01       ?_Gnavail@?$basic_streambuf@_WU?$char_traits@_W@std@@@std@@IBEHXZ 0040da01 f i libcpmt:wlocale.obj
 0001:0000ca10       ?size@?$basic_string@_WU?$char_traits@_W@std@@V?$allocator@_W@2@@std@@QBEIXZ 0040da10 f i libcpmt:wlocale.obj
 0001:0000ca14       ?decimal_point@?$numpunct@_W@std@@QBE_WXZ 0040da14 f i libcpmt:wlocale.obj
 0001:0000ca19       ?thousands_sep@?$numpunct@_W@std@@QBE_WXZ 0040da19 f i libcpmt:wlocale.obj
 0001:0000ca1e       ?_Myptr@?$basic_string@_WU?$char_traits@_W@std@@V?$allocator@_W@2@@std@@IAEPA_WXZ 0040da1e f i libcpmt:wlocale.obj
 0001:0000ca2c       ?_Myptr@?$basic_string@_WU?$char_traits@_W@std@@V?$allocator@_W@2@@std@@IBEPB_WXZ 0040da2c f i libcpmt:wlocale.obj
 0001:0000ca3a       ??0?$allocator@_W@std@@QAE@XZ 0040da3a f i libcpmt:wlocale.obj
 0001:0000ca3d       ??0?$allocator@_W@std@@QAE@ABV01@@Z 0040da3d f i libcpmt:wlocale.obj
 0001:0000ca42       ?deallocate@?$allocator@_W@std@@QAEXPA_WI@Z 0040da42 f i libcpmt:wlocale.obj
 0001:0000ca4f       ?max_size@?$allocator@_W@std@@QBEIXZ 0040da4f f i libcpmt:wlocale.obj
 0001:0000ca55       ??$_Allocate@_W@std@@YAPA_WIPA_W@Z 0040da55 f i libcpmt:wlocale.obj
 0001:0000caa2       ??$_Char_traits_cat@U?$char_traits@_W@std@@@std@@YA?AU_Secure_char_traits_tag@0@XZ 0040daa2 f i libcpmt:wlocale.obj
 0001:0000caa9       ??$copy_s@U?$char_traits@_W@std@@@_Traits_helper@std@@YAPA_WPA_WIPB_WIU_Secure_char_traits_tag@1@@Z 0040daa9 f i libcpmt:wlocale.obj
 0001:0000cac2       ?sgetc@?$basic_streambuf@_WU?$char_traits@_W@std@@@std@@QAEGXZ 0040dac2 f i libcpmt:wlocale.obj
 0001:0000cae6       ??0?$num_put@_WV?$ostreambuf_iterator@_WU?$char_traits@_W@std@@@std@@@std@@QAE@ABV_Locinfo@1@I@Z 0040dae6 f i libcpmt:wlocale.obj
 0001:0000cb07       _wmemmove_s                0040db07 f i libcpmt:wlocale.obj
 0001:0000cb26       ?_Move_s@?$char_traits@_W@std@@SAPA_WPA_WIPB_WI@Z 0040db26 f i libcpmt:wlocale.obj
 0001:0000cb42       ??1?$num_put@_WV?$ostreambuf_iterator@_WU?$char_traits@_W@std@@@std@@@std@@MAE@XZ 0040db42 f i libcpmt:wlocale.obj
 0001:0000cb49       ??_G?$num_put@_WV?$ostreambuf_iterator@_WU?$char_traits@_W@std@@@std@@@std@@MAEPAXI@Z 0040db49 f i libcpmt:wlocale.obj
 0001:0000cb49       ??_E?$num_put@_WV?$ostreambuf_iterator@_WU?$char_traits@_W@std@@@std@@@std@@MAEPAXI@Z 0040db49 f i libcpmt:wlocale.obj
 0001:0000cb66       ?_Ffmt@?$num_put@_WV?$ostreambuf_iterator@_WU?$char_traits@_W@std@@@std@@@std@@ABAPADPADDH@Z 0040db66 f i libcpmt:wlocale.obj
 0001:0000cbc1       ?_Ifmt@?$num_put@_WV?$ostreambuf_iterator@_WU?$char_traits@_W@std@@@std@@@std@@ABAPADPADPBDH@Z 0040dbc1 f i libcpmt:wlocale.obj
 0001:0000cc35       ??E?$ostreambuf_iterator@_WU?$char_traits@_W@std@@@std@@QAEAAV01@XZ 0040dc35 f i libcpmt:wlocale.obj
 0001:0000cc38       ??$move_s@U?$char_traits@_W@std@@@_Traits_helper@std@@YAPA_WPA_WIPB_WIU_Secure_char_traits_tag@1@@Z 0040dc38 f i libcpmt:wlocale.obj
 0001:0000cc51       ??0?$collate@_W@std@@QAE@ABV_Locinfo@1@I@Z 0040dc51 f i libcpmt:wlocale.obj
 0001:0000cc72       ??$_LStrcoll@_W@std@@YAHPB_W000PBU_Collvec@@@Z 0040dc72 f i libcpmt:wlocale.obj
 0001:0000cc7b       ??$_LStrxfrm@_W@std@@YAIPA_W0PB_W1PBU_Collvec@@@Z 0040dc7b f i libcpmt:wlocale.obj
 0001:0000cc84       ??1?$collate@_W@std@@MAE@XZ 0040dc84 f i libcpmt:wlocale.obj
 0001:0000cc8b       ?do_compare@?$collate@_W@std@@MBEHPB_W000@Z 0040dc8b f i libcpmt:wlocale.obj
 0001:0000ccaa       ?do_hash@?$collate@_W@std@@MBEJPB_W0@Z 0040dcaa f i libcpmt:wlocale.obj
 0001:0000ccc5       ??_E?$collate@_W@std@@MAEPAXI@Z 0040dcc5 f i libcpmt:wlocale.obj
 0001:0000ccc5       ??_G?$collate@_W@std@@MAEPAXI@Z 0040dcc5 f i libcpmt:wlocale.obj
 0001:0000cce2       ??D?$_String_const_iterator@_WU?$char_traits@_W@std@@V?$allocator@_W@2@@std@@QBEAB_WXZ 0040dce2 f i libcpmt:wlocale.obj
 0001:0000cd1a       ??0?$_Ranit_base@_WHPB_WAB_WU_Iterator_base@std@@@std@@QAE@XZ 0040dd1a f i libcpmt:wlocale.obj
 0001:0000cd20       ??0?$_String_const_iterator@_WU?$char_traits@_W@std@@V?$allocator@_W@2@@std@@QAE@PB_WPBU_Container_base@1@@Z 0040dd20 f i libcpmt:wlocale.obj
 0001:0000cd70       ??0?$messages@_W@std@@QAE@ABV_Locinfo@1@I@Z 0040dd70 f i libcpmt:wlocale.obj
 0001:0000cd82       ??1?$messages@_W@std@@MAE@XZ 0040dd82 f i libcpmt:wlocale.obj
 0001:0000cd89       ?do_open@?$messages@_W@std@@MBEHABV?$basic_string@DU?$char_traits@D@std@@V?$allocator@D@2@@2@ABVlocale@2@@Z 0040dd89 f i libcpmt:wlocale.obj
 0001:0000cd8f       ?do_close@?$messages@_W@std@@MBEXH@Z 0040dd8f f i libcpmt:wlocale.obj
 0001:0000cd92       ??_E?$messages@_W@std@@MAEPAXI@Z 0040dd92 f i libcpmt:wlocale.obj
 0001:0000cd92       ??_G?$messages@_W@std@@MAEPAXI@Z 0040dd92 f i libcpmt:wlocale.obj
 0001:0000cdaf       ??0?$money_get@_WV?$istreambuf_iterator@_WU?$char_traits@_W@std@@@std@@@std@@QAE@ABV_Locinfo@1@I@Z 0040ddaf f i libcpmt:wlocale.obj
 0001:0000cdd0       ??1?$money_get@_WV?$istreambuf_iterator@_WU?$char_traits@_W@std@@@std@@@std@@MAE@XZ 0040ddd0 f i libcpmt:wlocale.obj
 0001:0000cdd7       ??_E?$money_get@_WV?$istreambuf_iterator@_WU?$char_traits@_W@std@@@std@@@std@@MAEPAXI@Z 0040ddd7 f i libcpmt:wlocale.obj
 0001:0000cdd7       ??_G?$money_get@_WV?$istreambuf_iterator@_WU?$char_traits@_W@std@@@std@@@std@@MAEPAXI@Z 0040ddd7 f i libcpmt:wlocale.obj
 0001:0000cdf4       ?decimal_point@?$_Mpunct@_W@std@@QBE_WXZ 0040ddf4 f i libcpmt:wlocale.obj
 0001:0000cdf9       ?thousands_sep@?$_Mpunct@_W@std@@QBE_WXZ 0040ddf9 f i libcpmt:wlocale.obj
 0001:0000cdfe       ?frac_digits@?$_Mpunct@_W@std@@QBEHXZ 0040ddfe f i libcpmt:wlocale.obj
 0001:0000ce03       ?neg_format@?$_Mpunct@_W@std@@QBE?AUpattern@money_base@2@XZ 0040de03 f i libcpmt:wlocale.obj
 0001:0000ce13       ??E?$_String_const_iterator@_WU?$char_traits@_W@std@@V?$allocator@_W@2@@std@@QAEAAV01@XZ 0040de13 f i libcpmt:wlocale.obj
 0001:0000ce4e       ??8?$_String_const_iterator@_WU?$char_traits@_W@std@@V?$allocator@_W@2@@std@@QBE_NABV01@@Z 0040de4e f i libcpmt:wlocale.obj
 0001:0000ce7a       ??0?$money_put@_WV?$ostreambuf_iterator@_WU?$char_traits@_W@std@@@std@@@std@@QAE@ABV_Locinfo@1@I@Z 0040de7a f i libcpmt:wlocale.obj
 0001:0000ce9b       ??1?$money_put@_WV?$ostreambuf_iterator@_WU?$char_traits@_W@std@@@std@@@std@@MAE@XZ 0040de9b f i libcpmt:wlocale.obj
 0001:0000cea2       ??_E?$money_put@_WV?$ostreambuf_iterator@_WU?$char_traits@_W@std@@@std@@@std@@MAEPAXI@Z 0040dea2 f i libcpmt:wlocale.obj
 0001:0000cea2       ??_G?$money_put@_WV?$ostreambuf_iterator@_WU?$char_traits@_W@std@@@std@@@std@@MAEPAXI@Z 0040dea2 f i libcpmt:wlocale.obj
 0001:0000cebf       ?pos_format@?$_Mpunct@_W@std@@QBE?AUpattern@money_base@2@XZ 0040debf f i libcpmt:wlocale.obj
 0001:0000cecf       ?_Inside@?$basic_string@_WU?$char_traits@_W@std@@V?$allocator@_W@2@@std@@IAE_NPB_W@Z 0040decf f i libcpmt:wlocale.obj
 0001:0000cf04       ??Y?$_String_const_iterator@_WU?$char_traits@_W@std@@V?$allocator@_W@2@@std@@QAEAAV01@H@Z 0040df04 f i libcpmt:wlocale.obj
 0001:0000cf62       ??1?$_Mpunct@_W@std@@MAE@XZ 0040df62 f i libcpmt:wlocale.obj
 0001:0000cf78       ?length@?$char_traits@_W@std@@SAIPB_W@Z 0040df78 f i libcpmt:wlocale.obj
 0001:0000cf7d       ?do_decimal_point@?$_Mpunct@_W@std@@MBE_WXZ 0040df7d f i libcpmt:wlocale.obj
 0001:0000cf82       ?do_thousands_sep@?$_Mpunct@_W@std@@MBE_WXZ 0040df82 f i libcpmt:wlocale.obj
 0001:0000cf87       ?do_frac_digits@?$_Mpunct@_W@std@@MBEHXZ 0040df87 f i libcpmt:wlocale.obj
 0001:0000cf8b       ?do_pos_format@?$_Mpunct@_W@std@@MBE?AUpattern@money_base@2@XZ 0040df8b f i libcpmt:wlocale.obj
 0001:0000cf97       ?do_neg_format@?$_Mpunct@_W@std@@MBE?AUpattern@money_base@2@XZ 0040df97 f i libcpmt:wlocale.obj
 0001:0000cfa3       ??0?$num_get@GV?$istreambuf_iterator@GU?$char_traits@G@std@@@std@@@std@@QAE@ABV_Locinfo@1@I@Z 0040dfa3 f i libcpmt:wlocale.obj
 0001:0000cfc4       ?assign@?$char_traits@G@std@@SAXAAGABG@Z 0040dfc4 f i libcpmt:wlocale.obj
 0001:0000cfd3       ?_Copy_s@?$char_traits@G@std@@SAPAGPAGIPBGI@Z 0040dfd3 f i libcpmt:wlocale.obj
 0001:0000cfef       ?assign@?$char_traits@G@std@@SAPAGPAGIG@Z 0040dfef f i libcpmt:wlocale.obj
 0001:0000d004       ?to_char_type@?$char_traits@G@std@@SAGABG@Z 0040e004 f i libcpmt:wlocale.obj
 0001:0000d00c       ?to_int_type@?$char_traits@G@std@@SAGABG@Z 0040e00c f i libcpmt:wlocale.obj
 0001:0000d014       ?eq_int_type@?$char_traits@G@std@@SA_NABG0@Z 0040e014 f i libcpmt:wlocale.obj
 0001:0000d029       ?eof@?$char_traits@G@std@@SAGXZ 0040e029 f i libcpmt:wlocale.obj
 0001:0000d02e       ??$_Maklocbyte@G@std@@YADGABU_Cvtvec@@@Z 0040e02e f i libcpmt:wlocale.obj
 0001:0000d056       ??1?$num_get@GV?$istreambuf_iterator@GU?$char_traits@G@std@@@std@@@std@@MAE@XZ 0040e056 f i libcpmt:wlocale.obj
 0001:0000d05d       ??_E?$num_get@GV?$istreambuf_iterator@GU?$char_traits@G@std@@@std@@@std@@MAEPAXI@Z 0040e05d f i libcpmt:wlocale.obj
 0001:0000d05d       ??_G?$num_get@GV?$istreambuf_iterator@GU?$char_traits@G@std@@@std@@@std@@MAEPAXI@Z 0040e05d f i libcpmt:wlocale.obj
 0001:0000d07a       ?gptr@?$basic_streambuf@GU?$char_traits@G@std@@@std@@IBEPAGXZ 0040e07a f i libcpmt:wlocale.obj
 0001:0000d080       ?_Gninc@?$basic_streambuf@GU?$char_traits@G@std@@@std@@IAEPAGXZ 0040e080 f i libcpmt:wlocale.obj
 0001:0000d090       ?_Gnavail@?$basic_streambuf@GU?$char_traits@G@std@@@std@@IBEHXZ 0040e090 f i libcpmt:wlocale.obj
 0001:0000d09f       ?size@?$basic_string@GU?$char_traits@G@std@@V?$allocator@G@2@@std@@QBEIXZ 0040e09f f i libcpmt:wlocale.obj
 0001:0000d0a3       ?decimal_point@?$numpunct@G@std@@QBEGXZ 0040e0a3 f i libcpmt:wlocale.obj
 0001:0000d0a8       ?thousands_sep@?$numpunct@G@std@@QBEGXZ 0040e0a8 f i libcpmt:wlocale.obj
 0001:0000d0ad       ?_Myptr@?$basic_string@GU?$char_traits@G@std@@V?$allocator@G@2@@std@@IAEPAGXZ 0040e0ad f i libcpmt:wlocale.obj
 0001:0000d0bb       ?_Myptr@?$basic_string@GU?$char_traits@G@std@@V?$allocator@G@2@@std@@IBEPBGXZ 0040e0bb f i libcpmt:wlocale.obj
 0001:0000d0c9       ??0?$allocator@G@std@@QAE@XZ 0040e0c9 f i libcpmt:wlocale.obj
 0001:0000d0cc       ??0?$allocator@G@std@@QAE@ABV01@@Z 0040e0cc f i libcpmt:wlocale.obj
 0001:0000d0d1       ?deallocate@?$allocator@G@std@@QAEXPAGI@Z 0040e0d1 f i libcpmt:wlocale.obj
 0001:0000d0de       ?max_size@?$allocator@G@std@@QBEIXZ 0040e0de f i libcpmt:wlocale.obj
 0001:0000d0e4       ??$_Allocate@G@std@@YAPAGIPAG@Z 0040e0e4 f i libcpmt:wlocale.obj
 0001:0000d131       ??$_Char_traits_cat@U?$char_traits@G@std@@@std@@YA?AU_Secure_char_traits_tag@0@XZ 0040e131 f i libcpmt:wlocale.obj
 0001:0000d138       ??$copy_s@U?$char_traits@G@std@@@_Traits_helper@std@@YAPAGPAGIPBGIU_Secure_char_traits_tag@1@@Z 0040e138 f i libcpmt:wlocale.obj
 0001:0000d151       ?sgetc@?$basic_streambuf@GU?$char_traits@G@std@@@std@@QAEGXZ 0040e151 f i libcpmt:wlocale.obj
 0001:0000d175       ??0?$num_put@GV?$ostreambuf_iterator@GU?$char_traits@G@std@@@std@@@std@@QAE@ABV_Locinfo@1@I@Z 0040e175 f i libcpmt:wlocale.obj
 0001:0000d196       ?_Move_s@?$char_traits@G@std@@SAPAGPAGIPBGI@Z 0040e196 f i libcpmt:wlocale.obj
 0001:0000d1b2       ??1?$num_put@GV?$ostreambuf_iterator@GU?$char_traits@G@std@@@std@@@std@@MAE@XZ 0040e1b2 f i libcpmt:wlocale.obj
 0001:0000d1b9       ??_G?$num_put@GV?$ostreambuf_iterator@GU?$char_traits@G@std@@@std@@@std@@MAEPAXI@Z 0040e1b9 f i libcpmt:wlocale.obj
 0001:0000d1b9       ??_E?$num_put@GV?$ostreambuf_iterator@GU?$char_traits@G@std@@@std@@@std@@MAEPAXI@Z 0040e1b9 f i libcpmt:wlocale.obj
 0001:0000d1d6       ?_Pnavail@?$basic_streambuf@GU?$char_traits@G@std@@@std@@IBEHXZ 0040e1d6 f i libcpmt:wlocale.obj
 0001:0000d1e5       ??D?$ostreambuf_iterator@GU?$char_traits@G@std@@@std@@QAEAAV01@XZ 0040e1e5 f i libcpmt:wlocale.obj
 0001:0000d1e8       ?_Ffmt@?$num_put@GV?$ostreambuf_iterator@GU?$char_traits@G@std@@@std@@@std@@ABAPADPADDH@Z 0040e1e8 f i libcpmt:wlocale.obj
 0001:0000d243       ?_Ifmt@?$num_put@GV?$ostreambuf_iterator@GU?$char_traits@G@std@@@std@@@std@@ABAPADPADPBDH@Z 0040e243 f i libcpmt:wlocale.obj
 0001:0000d2b7       ?_Pninc@?$basic_streambuf@GU?$char_traits@G@std@@@std@@IAEPAGXZ 0040e2b7 f i libcpmt:wlocale.obj
 0001:0000d2c7       ??E?$ostreambuf_iterator@GU?$char_traits@G@std@@@std@@QAEAAV01@XZ 0040e2c7 f i libcpmt:wlocale.obj
 0001:0000d2ca       ??$move_s@U?$char_traits@G@std@@@_Traits_helper@std@@YAPAGPAGIPBGIU_Secure_char_traits_tag@1@@Z 0040e2ca f i libcpmt:wlocale.obj
 0001:0000d2e3       ??0?$collate@G@std@@QAE@ABV_Locinfo@1@I@Z 0040e2e3 f i libcpmt:wlocale.obj
 0001:0000d304       ??1?$collate@G@std@@MAE@XZ 0040e304 f i libcpmt:wlocale.obj
 0001:0000d30b       ?do_hash@?$collate@G@std@@MBEJPBG0@Z 0040e30b f i libcpmt:wlocale.obj
 0001:0000d326       ??_G?$collate@G@std@@MAEPAXI@Z 0040e326 f i libcpmt:wlocale.obj
 0001:0000d326       ??_E?$collate@G@std@@MAEPAXI@Z 0040e326 f i libcpmt:wlocale.obj
 0001:0000d343       ??D?$_String_const_iterator@GU?$char_traits@G@std@@V?$allocator@G@2@@std@@QBEABGXZ 0040e343 f i libcpmt:wlocale.obj
 0001:0000d37b       ??0?$_Ranit_base@GHPBGABGU_Iterator_base@std@@@std@@QAE@XZ 0040e37b f i libcpmt:wlocale.obj
 0001:0000d381       ??0?$_String_const_iterator@GU?$char_traits@G@std@@V?$allocator@G@2@@std@@QAE@PBGPBU_Container_base@1@@Z 0040e381 f i libcpmt:wlocale.obj
 0001:0000d3d1       ??$_LStrcoll@G@std@@YAHPBG000PBU_Collvec@@@Z 0040e3d1 f i libcpmt:wlocale.obj
 0001:0000d412       ??$_LStrxfrm@G@std@@YAIPAG0PBG1PBU_Collvec@@@Z 0040e412 f i libcpmt:wlocale.obj
 0001:0000d444       ?do_compare@?$collate@G@std@@MBEHPBG000@Z 0040e444 f i libcpmt:wlocale.obj
 0001:0000d463       ??0?$messages@G@std@@QAE@ABV_Locinfo@1@I@Z 0040e463 f i libcpmt:wlocale.obj
 0001:0000d475       ??1?$messages@G@std@@MAE@XZ 0040e475 f i libcpmt:wlocale.obj
 0001:0000d47c       ?do_open@?$messages@G@std@@MBEHABV?$basic_string@DU?$char_traits@D@std@@V?$allocator@D@2@@2@ABVlocale@2@@Z 0040e47c f i libcpmt:wlocale.obj
 0001:0000d482       ?do_close@?$messages@G@std@@MBEXH@Z 0040e482 f i libcpmt:wlocale.obj
 0001:0000d485       ??_G?$messages@G@std@@MAEPAXI@Z 0040e485 f i libcpmt:wlocale.obj
 0001:0000d485       ??_E?$messages@G@std@@MAEPAXI@Z 0040e485 f i libcpmt:wlocale.obj
 0001:0000d4a2       ??0?$money_get@GV?$istreambuf_iterator@GU?$char_traits@G@std@@@std@@@std@@QAE@ABV_Locinfo@1@I@Z 0040e4a2 f i libcpmt:wlocale.obj
 0001:0000d4c3       ??1?$money_get@GV?$istreambuf_iterator@GU?$char_traits@G@std@@@std@@@std@@MAE@XZ 0040e4c3 f i libcpmt:wlocale.obj
 0001:0000d4ca       ??_G?$money_get@GV?$istreambuf_iterator@GU?$char_traits@G@std@@@std@@@std@@MAEPAXI@Z 0040e4ca f i libcpmt:wlocale.obj
 0001:0000d4ca       ??_E?$money_get@GV?$istreambuf_iterator@GU?$char_traits@G@std@@@std@@@std@@MAEPAXI@Z 0040e4ca f i libcpmt:wlocale.obj
 0001:0000d4e7       ?decimal_point@?$_Mpunct@G@std@@QBEGXZ 0040e4e7 f i libcpmt:wlocale.obj
 0001:0000d4ec       ?thousands_sep@?$_Mpunct@G@std@@QBEGXZ 0040e4ec f i libcpmt:wlocale.obj
 0001:0000d4f1       ?frac_digits@?$_Mpunct@G@std@@QBEHXZ 0040e4f1 f i libcpmt:wlocale.obj
 0001:0000d4f6       ?neg_format@?$_Mpunct@G@std@@QBE?AUpattern@money_base@2@XZ 0040e4f6 f i libcpmt:wlocale.obj
 0001:0000d506       ??E?$_String_const_iterator@GU?$char_traits@G@std@@V?$allocator@G@2@@std@@QAEAAV01@XZ 0040e506 f i libcpmt:wlocale.obj
 0001:0000d541       ??8?$_String_const_iterator@GU?$char_traits@G@std@@V?$allocator@G@2@@std@@QBE_NABV01@@Z 0040e541 f i libcpmt:wlocale.obj
 0001:0000d56d       ??0?$money_put@GV?$ostreambuf_iterator@GU?$char_traits@G@std@@@std@@@std@@QAE@ABV_Locinfo@1@I@Z 0040e56d f i libcpmt:wlocale.obj
 0001:0000d58e       ??1?$money_put@GV?$ostreambuf_iterator@GU?$char_traits@G@std@@@std@@@std@@MAE@XZ 0040e58e f i libcpmt:wlocale.obj
 0001:0000d595       ??_G?$money_put@GV?$ostreambuf_iterator@GU?$char_traits@G@std@@@std@@@std@@MAEPAXI@Z 0040e595 f i libcpmt:wlocale.obj
 0001:0000d595       ??_E?$money_put@GV?$ostreambuf_iterator@GU?$char_traits@G@std@@@std@@@std@@MAEPAXI@Z 0040e595 f i libcpmt:wlocale.obj
 0001:0000d5b2       ??E?$ostreambuf_iterator@GU?$char_traits@G@std@@@std@@QAEAAV01@H@Z 0040e5b2 f i libcpmt:wlocale.obj
 0001:0000d5b7       ?pos_format@?$_Mpunct@G@std@@QBE?AUpattern@money_base@2@XZ 0040e5b7 f i libcpmt:wlocale.obj
 0001:0000d5c7       ?_Inside@?$basic_string@GU?$char_traits@G@std@@V?$allocator@G@2@@std@@IAE_NPBG@Z 0040e5c7 f i libcpmt:wlocale.obj
 0001:0000d5fc       ??Y?$_String_const_iterator@GU?$char_traits@G@std@@V?$allocator@G@2@@std@@QAEAAV01@H@Z 0040e5fc f i libcpmt:wlocale.obj
 0001:0000d65a       ??1?$_Mpunct@G@std@@MAE@XZ 0040e65a f i libcpmt:wlocale.obj
 0001:0000d670       ?length@?$char_traits@G@std@@SAIPBG@Z 0040e670 f i libcpmt:wlocale.obj
 0001:0000d675       ?do_decimal_point@?$_Mpunct@G@std@@MBEGXZ 0040e675 f i libcpmt:wlocale.obj
 0001:0000d67a       ?do_thousands_sep@?$_Mpunct@G@std@@MBEGXZ 0040e67a f i libcpmt:wlocale.obj
 0001:0000d67f       ?do_frac_digits@?$_Mpunct@G@std@@MBEHXZ 0040e67f f i libcpmt:wlocale.obj
 0001:0000d683       ?do_pos_format@?$_Mpunct@G@std@@MBE?AUpattern@money_base@2@XZ 0040e683 f i libcpmt:wlocale.obj
 0001:0000d68f       ?do_neg_format@?$_Mpunct@G@std@@MBE?AUpattern@money_base@2@XZ 0040e68f f i libcpmt:wlocale.obj
 0001:0000d69b       ??0?$time_put@GV?$ostreambuf_iterator@GU?$char_traits@G@std@@@std@@@std@@QAE@ABV_Locinfo@1@I@Z 0040e69b f i libcpmt:wlocale.obj
 0001:0000d6be       ??1?$time_put@GV?$ostreambuf_iterator@GU?$char_traits@G@std@@@std@@@std@@MAE@XZ 0040e6be f i libcpmt:wlocale.obj
 0001:0000d6d8       ??_G?$time_put@GV?$ostreambuf_iterator@GU?$char_traits@G@std@@@std@@@std@@MAEPAXI@Z 0040e6d8 f i libcpmt:wlocale.obj
 0001:0000d6d8       ??_E?$time_put@GV?$ostreambuf_iterator@GU?$char_traits@G@std@@@std@@@std@@MAEPAXI@Z 0040e6d8 f i libcpmt:wlocale.obj
 0001:0000d6f4       ??_E?$_Mpunct@_W@std@@MAEPAXI@Z 0040e6f4 f i libcpmt:wlocale.obj
 0001:0000d6f4       ??_G?$_Mpunct@_W@std@@MAEPAXI@Z 0040e6f4 f i libcpmt:wlocale.obj
 0001:0000d710       ??_E?$_Mpunct@G@std@@MAEPAXI@Z 0040e710 f i libcpmt:wlocale.obj
 0001:0000d710       ??_G?$_Mpunct@G@std@@MAEPAXI@Z 0040e710 f i libcpmt:wlocale.obj
 0001:0000d72c       ?sbumpc@?$basic_streambuf@_WU?$char_traits@_W@std@@@std@@QAEGXZ 0040e72c f i libcpmt:wlocale.obj
 0001:0000d75d       ?sputc@?$basic_streambuf@_WU?$char_traits@_W@std@@@std@@QAEG_W@Z 0040e75d f i libcpmt:wlocale.obj
 0001:0000d799       ?sbumpc@?$basic_streambuf@GU?$char_traits@G@std@@@std@@QAEGXZ 0040e799 f i libcpmt:wlocale.obj
 0001:0000d7ca       ?sputc@?$basic_streambuf@GU?$char_traits@G@std@@@std@@QAEGG@Z 0040e7ca f i libcpmt:wlocale.obj
 0001:0000d806       ??4?$ostreambuf_iterator@GU?$char_traits@G@std@@@std@@QAEAAV01@G@Z 0040e806 f i libcpmt:wlocale.obj
 0001:0000d829       ?_Init@?$numpunct@_W@std@@IAEXABV_Locinfo@2@@Z 0040e829 f i libcpmt:wlocale.obj
 0001:0000d903       ??A?$basic_string@_WU?$char_traits@_W@std@@V?$allocator@_W@2@@std@@QAEAA_WI@Z 0040e903 f i libcpmt:wlocale.obj
 0001:0000d92b       ?c_str@?$basic_string@_WU?$char_traits@_W@std@@V?$allocator@_W@2@@std@@QBEPB_WXZ 0040e92b f i libcpmt:wlocale.obj
 0001:0000d939       ?_Put@?$num_put@GV?$ostreambuf_iterator@GU?$char_traits@G@std@@@std@@@std@@ABA?AV?$ostreambuf_iterator@GU?$char_traits@G@std@@@2@V32@PBGI@Z 0040e939 f i libcpmt:wlocale.obj
 0001:0000d96d       ?_Rep@?$num_put@GV?$ostreambuf_iterator@GU?$char_traits@G@std@@@std@@@std@@ABA?AV?$ostreambuf_iterator@GU?$char_traits@G@std@@@2@V32@GI@Z 0040e96d f i libcpmt:wlocale.obj
 0001:0000d997       ?_Init@?$numpunct@G@std@@IAEXABV_Locinfo@2@@Z 0040e997 f i libcpmt:wlocale.obj
 0001:0000da71       ??A?$basic_string@GU?$char_traits@G@std@@V?$allocator@G@2@@std@@QAEAAGI@Z 0040ea71 f i libcpmt:wlocale.obj
 0001:0000da99       ?c_str@?$basic_string@GU?$char_traits@G@std@@V?$allocator@G@2@@std@@QBEPBGXZ 0040ea99 f i libcpmt:wlocale.obj
 0001:0000daa7       ??4?$ostreambuf_iterator@_WU?$char_traits@_W@std@@@std@@QAEAAV01@_W@Z 0040eaa7 f i libcpmt:wlocale.obj
 0001:0000daca       ??Y?$_String_const_iterator@DU?$char_traits@D@std@@V?$allocator@D@2@@std@@QAEAAV01@H@Z 0040eaca f i libcpmt:wlocale.obj
 0001:0000db23       ??D?$_String_iterator@_WU?$char_traits@_W@std@@V?$allocator@_W@2@@std@@QBEAA_WXZ 0040eb23 f i libcpmt:wlocale.obj
 0001:0000db28       ??D?$_String_iterator@GU?$char_traits@G@std@@V?$allocator@G@2@@std@@QBEAAGXZ 0040eb28 f i libcpmt:wlocale.obj
 0001:0000db2d       ?_Putc@?$num_put@_WV?$ostreambuf_iterator@_WU?$char_traits@_W@std@@@std@@@std@@ABA?AV?$ostreambuf_iterator@_WU?$char_traits@_W@std@@@2@V32@PBDI@Z 0040eb2d f i libcpmt:wlocale.obj
 0001:0000db72       ?_Put@?$money_put@_WV?$ostreambuf_iterator@_WU?$char_traits@_W@std@@@std@@@std@@CA?AV?$ostreambuf_iterator@_WU?$char_traits@_W@std@@@2@V32@V?$_String_const_iterator@_WU?$char_traits@_W@std@@V?$allocator@_W@2@@2@I@Z 0040eb72 f i libcpmt:wlocale.obj
 0001:0000dbad       ?_Rep@?$money_put@_WV?$ostreambuf_iterator@_WU?$char_traits@_W@std@@@std@@@std@@CA?AV?$ostreambuf_iterator@_WU?$char_traits@_W@std@@@2@V32@_WI@Z 0040ebad f i libcpmt:wlocale.obj
 0001:0000dbd7       ?_Chassign@?$basic_string@_WU?$char_traits@_W@std@@V?$allocator@_W@2@@std@@IAEXII_W@Z 0040ebd7 f i libcpmt:wlocale.obj
 0001:0000dc22       ?_Eos@?$basic_string@_WU?$char_traits@_W@std@@V?$allocator@_W@2@@std@@IAEXI@Z 0040ec22 f i libcpmt:wlocale.obj
 0001:0000dc3f       ??0?$_String_val@_WV?$allocator@_W@std@@@std@@IAE@V?$allocator@_W@1@@Z 0040ec3f f i libcpmt:wlocale.obj
 0001:0000dc44       ?_Init@?$_Mpunct@_W@std@@IAEXABV_Locinfo@2@@Z 0040ec44 f i libcpmt:wlocale.obj
 0001:0000dd79       ?_Putc@?$num_put@GV?$ostreambuf_iterator@GU?$char_traits@G@std@@@std@@@std@@ABA?AV?$ostreambuf_iterator@GU?$char_traits@G@std@@@2@V32@PBDI@Z 0040ed79 f i libcpmt:wlocale.obj
 0001:0000ddbe       ?_Putgrouped@?$num_put@GV?$ostreambuf_iterator@GU?$char_traits@G@std@@@std@@@std@@ABA?AV?$ostreambuf_iterator@GU?$char_traits@G@std@@@2@V32@PBDIG@Z 0040edbe f i libcpmt:wlocale.obj
 0001:0000de53       ?_Put@?$money_put@GV?$ostreambuf_iterator@GU?$char_traits@G@std@@@std@@@std@@CA?AV?$ostreambuf_iterator@GU?$char_traits@G@std@@@2@V32@V?$_String_const_iterator@GU?$char_traits@G@std@@V?$allocator@G@2@@2@I@Z 0040ee53 f i libcpmt:wlocale.obj
 0001:0000de8e       ?_Rep@?$money_put@GV?$ostreambuf_iterator@GU?$char_traits@G@std@@@std@@@std@@CA?AV?$ostreambuf_iterator@GU?$char_traits@G@std@@@2@V32@GI@Z 0040ee8e f i libcpmt:wlocale.obj
 0001:0000deb8       ?_Chassign@?$basic_string@GU?$char_traits@G@std@@V?$allocator@G@2@@std@@IAEXIIG@Z 0040eeb8 f i libcpmt:wlocale.obj
 0001:0000df03       ?_Eos@?$basic_string@GU?$char_traits@G@std@@V?$allocator@G@2@@std@@IAEXI@Z 0040ef03 f i libcpmt:wlocale.obj
 0001:0000df20       ??0?$_String_val@GV?$allocator@G@std@@@std@@IAE@V?$allocator@G@1@@Z 0040ef20 f i libcpmt:wlocale.obj
 0001:0000df25       ?_Init@?$_Mpunct@G@std@@IAEXABV_Locinfo@2@@Z 0040ef25 f i libcpmt:wlocale.obj
 0001:0000e05a       ??Y?$_String_iterator@DU?$char_traits@D@std@@V?$allocator@D@2@@std@@QAEAAV01@H@Z 0040f05a f i libcpmt:wlocale.obj
 0001:0000e06c       ?_Inc@?$istreambuf_iterator@_WU?$char_traits@_W@std@@@std@@AAEXXZ 0040f06c f i libcpmt:wlocale.obj
 0001:0000e091       ?_Peek@?$istreambuf_iterator@_WU?$char_traits@_W@std@@@std@@AAE_WXZ 0040f091 f i libcpmt:wlocale.obj
 0001:0000e0bd       ??0?$_String_const_iterator@_WU?$char_traits@_W@std@@V?$allocator@_W@2@@std@@QAE@XZ 0040f0bd f i libcpmt:wlocale.obj
 0001:0000e0c7       ??9?$_String_const_iterator@_WU?$char_traits@_W@std@@V?$allocator@_W@2@@std@@QBE_NABV01@@Z 0040f0c7 f i libcpmt:wlocale.obj
 0001:0000e0d8       ??0?$_String_iterator@_WU?$char_traits@_W@std@@V?$allocator@_W@2@@std@@QAE@PA_WPBU_Container_base@1@@Z 0040f0d8 f i libcpmt:wlocale.obj
 0001:0000e0ee       ?_Inc@?$istreambuf_iterator@GU?$char_traits@G@std@@@std@@AAEXXZ 0040f0ee f i libcpmt:wlocale.obj
 0001:0000e113       ?_Peek@?$istreambuf_iterator@GU?$char_traits@G@std@@@std@@AAEGXZ 0040f113 f i libcpmt:wlocale.obj
 0001:0000e13f       ??0?$_String_const_iterator@GU?$char_traits@G@std@@V?$allocator@G@2@@std@@QAE@XZ 0040f13f f i libcpmt:wlocale.obj
 0001:0000e149       ??9?$_String_const_iterator@GU?$char_traits@G@std@@V?$allocator@G@2@@std@@QBE_NABV01@@Z 0040f149 f i libcpmt:wlocale.obj
 0001:0000e15a       ??0?$_String_iterator@GU?$char_traits@G@std@@V?$allocator@G@2@@std@@QAE@PAGPBU_Container_base@1@@Z 0040f15a f i libcpmt:wlocale.obj
 0001:0000e170       ?max_size@?$basic_string@_WU?$char_traits@_W@std@@V?$allocator@_W@2@@std@@QBEIXZ 0040f170 f i libcpmt:wlocale.obj
 0001:0000e176       ?max_size@?$basic_string@GU?$char_traits@G@std@@V?$allocator@G@2@@std@@QBEIXZ 0040f176 f i libcpmt:wlocale.obj
 0001:0000e17c       ??Y?$_String_iterator@_WU?$char_traits@_W@std@@V?$allocator@_W@2@@std@@QAEAAV01@H@Z 0040f17c f i libcpmt:wlocale.obj
 0001:0000e18e       ??Z?$_String_iterator@_WU?$char_traits@_W@std@@V?$allocator@_W@2@@std@@QAEAAV01@H@Z 0040f18e f i libcpmt:wlocale.obj
 0001:0000e1a3       ??Y?$_String_iterator@GU?$char_traits@G@std@@V?$allocator@G@2@@std@@QAEAAV01@H@Z 0040f1a3 f i libcpmt:wlocale.obj
 0001:0000e1b5       ??Z?$_String_iterator@GU?$char_traits@G@std@@V?$allocator@G@2@@std@@QAEAAV01@H@Z 0040f1b5 f i libcpmt:wlocale.obj
 0001:0000e1ca       ?allocate@?$allocator@_W@std@@QAEPA_WI@Z 0040f1ca f i libcpmt:wlocale.obj
 0001:0000e1da       ?allocate@?$allocator@G@std@@QAEPAGI@Z 0040f1da f i libcpmt:wlocale.obj
 0001:0000e1ea       ??$copy_s@U?$char_traits@_W@std@@@_Traits_helper@std@@YAPA_WPA_WIPB_WI@Z 0040f1ea f i libcpmt:wlocale.obj
 0001:0000e1ef       ??$copy_s@U?$char_traits@G@std@@@_Traits_helper@std@@YAPAGPAGIPBGI@Z 0040f1ef f i libcpmt:wlocale.obj
 0001:0000e1f4       ??$move_s@U?$char_traits@_W@std@@@_Traits_helper@std@@YAPA_WPA_WIPB_WI@Z 0040f1f4 f i libcpmt:wlocale.obj
 0001:0000e1f9       ??$move_s@U?$char_traits@G@std@@@_Traits_helper@std@@YAPAGPAGIPBGI@Z 0040f1f9 f i libcpmt:wlocale.obj
 0001:0000e1fe       ?equal@?$istreambuf_iterator@_WU?$char_traits@_W@std@@@std@@QBE_NABV12@@Z 0040f1fe f i libcpmt:wlocale.obj
 0001:0000e240       ?equal@?$istreambuf_iterator@GU?$char_traits@G@std@@@std@@QBE_NABV12@@Z 0040f240 f i libcpmt:wlocale.obj
 0001:0000e282       ??0?$numpunct@_W@std@@QAE@ABV_Locinfo@1@I@Z 0040f282 f i libcpmt:wlocale.obj
 0001:0000e2b5       ?do_decimal_point@?$numpunct@_W@std@@MBE_WXZ 0040f2b5 f i libcpmt:wlocale.obj
 0001:0000e2ba       ?do_thousands_sep@?$numpunct@_W@std@@MBE_WXZ 0040f2ba f i libcpmt:wlocale.obj
 0001:0000e2bf       ??1?$numpunct@_W@std@@MAE@XZ 0040f2bf f i libcpmt:wlocale.obj
 0001:0000e2d5       ??_G?$numpunct@_W@std@@MAEPAXI@Z 0040f2d5 f i libcpmt:wlocale.obj
 0001:0000e2d5       ??_E?$numpunct@_W@std@@MAEPAXI@Z 0040f2d5 f i libcpmt:wlocale.obj
 0001:0000e2f1       ??0?$numpunct@G@std@@QAE@ABV_Locinfo@1@I@Z 0040f2f1 f i libcpmt:wlocale.obj
 0001:0000e324       ?do_decimal_point@?$numpunct@G@std@@MBEGXZ 0040f324 f i libcpmt:wlocale.obj
 0001:0000e329       ?do_thousands_sep@?$numpunct@G@std@@MBEGXZ 0040f329 f i libcpmt:wlocale.obj
 0001:0000e32e       ??1?$numpunct@G@std@@MAE@XZ 0040f32e f i libcpmt:wlocale.obj
 0001:0000e344       ??_G?$numpunct@G@std@@MAEPAXI@Z 0040f344 f i libcpmt:wlocale.obj
 0001:0000e344       ??_E?$numpunct@G@std@@MAEPAXI@Z 0040f344 f i libcpmt:wlocale.obj
 0001:0000e360       ?_Put@?$num_put@_WV?$ostreambuf_iterator@_WU?$char_traits@_W@std@@@std@@@std@@ABA?AV?$ostreambuf_iterator@_WU?$char_traits@_W@std@@@2@V32@PB_WI@Z 0040f360 f i libcpmt:wlocale.obj
 0001:0000e394       ?_Rep@?$num_put@_WV?$ostreambuf_iterator@_WU?$char_traits@_W@std@@@std@@@std@@ABA?AV?$ostreambuf_iterator@_WU?$char_traits@_W@std@@@2@V32@_WI@Z 0040f394 f i libcpmt:wlocale.obj
 0001:0000e3be       ?begin@?$basic_string@_WU?$char_traits@_W@std@@V?$allocator@_W@2@@std@@QAE?AV?$_String_iterator@_WU?$char_traits@_W@std@@V?$allocator@_W@2@@2@XZ 0040f3be f i libcpmt:wlocale.obj
 0001:0000e3de       ??0?$_Mpunct@_W@std@@QAE@ABV_Locinfo@1@I_N@Z 0040f3de f i libcpmt:wlocale.obj
 0001:0000e417       ?begin@?$basic_string@GU?$char_traits@G@std@@V?$allocator@G@2@@std@@QAE?AV?$_String_iterator@GU?$char_traits@G@std@@V?$allocator@G@2@@2@XZ 0040f417 f i libcpmt:wlocale.obj
 0001:0000e437       ??0?$_Mpunct@G@std@@QAE@ABV_Locinfo@1@I_N@Z 0040f437 f i libcpmt:wlocale.obj
 0001:0000e470       ??H?$_String_iterator@DU?$char_traits@D@std@@V?$allocator@D@2@@std@@QBE?AV01@H@Z 0040f470 f i libcpmt:wlocale.obj
 0001:0000e49d       ??D?$istreambuf_iterator@_WU?$char_traits@_W@std@@@std@@QBE_WXZ 0040f49d f i libcpmt:wlocale.obj
 0001:0000e4b1       ??E?$istreambuf_iterator@_WU?$char_traits@_W@std@@@std@@QAEAAV01@XZ 0040f4b1 f i libcpmt:wlocale.obj
 0001:0000e4bd       ??D?$istreambuf_iterator@GU?$char_traits@G@std@@@std@@QBEGXZ 0040f4bd f i libcpmt:wlocale.obj
 0001:0000e4d1       ??E?$istreambuf_iterator@GU?$char_traits@G@std@@@std@@QAEAAV01@XZ 0040f4d1 f i libcpmt:wlocale.obj
 0001:0000e4dd       ?_Putgrouped@?$num_put@_WV?$ostreambuf_iterator@_WU?$char_traits@_W@std@@@std@@@std@@ABA?AV?$ostreambuf_iterator@_WU?$char_traits@_W@std@@@2@V32@PBDI_W@Z 0040f4dd f i libcpmt:wlocale.obj
 0001:0000e572       ?erase@?$basic_string@_WU?$char_traits@_W@std@@V?$allocator@_W@2@@std@@QAEAAV12@II@Z 0040f572 f i libcpmt:wlocale.obj
 0001:0000e5f2       ?end@?$basic_string@_WU?$char_traits@_W@std@@V?$allocator@_W@2@@std@@QAE?AV?$_String_iterator@_WU?$char_traits@_W@std@@V?$allocator@_W@2@@2@XZ 0040f5f2 f i libcpmt:wlocale.obj
 0001:0000e618       ?_Tidy@?$basic_string@_WU?$char_traits@_W@std@@V?$allocator@_W@2@@std@@IAEX_NI@Z 0040f618 f i libcpmt:wlocale.obj
 0001:0000e663       ?erase@?$basic_string@GU?$char_traits@G@std@@V?$allocator@G@2@@std@@QAEAAV12@II@Z 0040f663 f i libcpmt:wlocale.obj
 0001:0000e6e3       ?end@?$basic_string@GU?$char_traits@G@std@@V?$allocator@G@2@@std@@QAE?AV?$_String_iterator@GU?$char_traits@G@std@@V?$allocator@G@2@@2@XZ 0040f6e3 f i libcpmt:wlocale.obj
 0001:0000e709       ?_Tidy@?$basic_string@GU?$char_traits@G@std@@V?$allocator@G@2@@std@@IAEX_NI@Z 0040f709 f i libcpmt:wlocale.obj
 0001:0000e754       ??H?$_String_iterator@_WU?$char_traits@_W@std@@V?$allocator@_W@2@@std@@QBE?AV01@H@Z 0040f754 f i libcpmt:wlocale.obj
 0001:0000e781       ??G?$_String_iterator@_WU?$char_traits@_W@std@@V?$allocator@_W@2@@std@@QBE?AV01@H@Z 0040f781 f i libcpmt:wlocale.obj
 0001:0000e7b1       ??H?$_String_iterator@GU?$char_traits@G@std@@V?$allocator@G@2@@std@@QBE?AV01@H@Z 0040f7b1 f i libcpmt:wlocale.obj
 0001:0000e7de       ??G?$_String_iterator@GU?$char_traits@G@std@@V?$allocator@G@2@@std@@QBE?AV01@H@Z 0040f7de f i libcpmt:wlocale.obj
 0001:0000e80e       ?_Copy@?$basic_string@_WU?$char_traits@_W@std@@V?$allocator@_W@2@@std@@IAEXII@Z 0040f80e f i libcpmt:wlocale.obj
 0001:0000e8f5       ?_Copy@?$basic_string@GU?$char_traits@G@std@@V?$allocator@G@2@@std@@IAEXII@Z 0040f8f5 f i libcpmt:wlocale.obj
 0001:0000e9dc       ??$?8_WU?$char_traits@_W@std@@@std@@YA_NABV?$istreambuf_iterator@_WU?$char_traits@_W@std@@@0@0@Z 0040f9dc f i libcpmt:wlocale.obj
 0001:0000e9ea       ??$?8GU?$char_traits@G@std@@@std@@YA_NABV?$istreambuf_iterator@GU?$char_traits@G@std@@@0@0@Z 0040f9ea f i libcpmt:wlocale.obj
 0001:0000e9f8       ??$?9_WU?$char_traits@_W@std@@@std@@YA_NABV?$istreambuf_iterator@_WU?$char_traits@_W@std@@@0@0@Z 0040f9f8 f i libcpmt:wlocale.obj
 0001:0000ea0b       ??$?9GU?$char_traits@G@std@@@std@@YA_NABV?$istreambuf_iterator@GU?$char_traits@G@std@@@0@0@Z 0040fa0b f i libcpmt:wlocale.obj
 0001:0000ea1e       ??0?$moneypunct@_W$0A@@std@@QAE@ABV_Locinfo@1@I@Z 0040fa1e f i libcpmt:wlocale.obj
 0001:0000ea3c       ??1?$moneypunct@_W$0A@@std@@MAE@XZ 0040fa3c f i libcpmt:wlocale.obj
 0001:0000ea47       ??_E?$moneypunct@_W$0A@@std@@MAEPAXI@Z 0040fa47 f i libcpmt:wlocale.obj
 0001:0000ea47       ??_G?$moneypunct@_W$0A@@std@@MAEPAXI@Z 0040fa47 f i libcpmt:wlocale.obj
 0001:0000ea69       ??0?$moneypunct@_W$00@std@@QAE@ABV_Locinfo@1@I@Z 0040fa69 f i libcpmt:wlocale.obj
 0001:0000ea87       ??1?$moneypunct@_W$00@std@@MAE@XZ 0040fa87 f i libcpmt:wlocale.obj
 0001:0000ea92       ??_E?$moneypunct@_W$00@std@@MAEPAXI@Z 0040fa92 f i libcpmt:wlocale.obj
 0001:0000ea92       ??_G?$moneypunct@_W$00@std@@MAEPAXI@Z 0040fa92 f i libcpmt:wlocale.obj
 0001:0000eab4       ??0?$moneypunct@G$0A@@std@@QAE@ABV_Locinfo@1@I@Z 0040fab4 f i libcpmt:wlocale.obj
 0001:0000ead2       ??1?$moneypunct@G$0A@@std@@MAE@XZ 0040fad2 f i libcpmt:wlocale.obj
 0001:0000eadd       ??_E?$moneypunct@G$0A@@std@@MAEPAXI@Z 0040fadd f i libcpmt:wlocale.obj
 0001:0000eadd       ??_G?$moneypunct@G$0A@@std@@MAEPAXI@Z 0040fadd f i libcpmt:wlocale.obj
 0001:0000eaff       ??0?$moneypunct@G$00@std@@QAE@ABV_Locinfo@1@I@Z 0040faff f i libcpmt:wlocale.obj
 0001:0000eb1d       ??1?$moneypunct@G$00@std@@MAE@XZ 0040fb1d f i libcpmt:wlocale.obj
 0001:0000eb28       ??_G?$moneypunct@G$00@std@@MAEPAXI@Z 0040fb28 f i libcpmt:wlocale.obj
 0001:0000eb28       ??_E?$moneypunct@G$00@std@@MAEPAXI@Z 0040fb28 f i libcpmt:wlocale.obj
 0001:0000eb4a       ??0?$basic_string@_WU?$char_traits@_W@std@@V?$allocator@_W@2@@std@@QAE@XZ 0040fb4a f i libcpmt:wlocale.obj
 0001:0000eb5f       ??1?$basic_string@_WU?$char_traits@_W@std@@V?$allocator@_W@2@@std@@QAE@XZ 0040fb5f f i libcpmt:wlocale.obj
 0001:0000eb69       ??0?$basic_string@GU?$char_traits@G@std@@V?$allocator@G@2@@std@@QAE@XZ 0040fb69 f i libcpmt:wlocale.obj
 0001:0000eb7e       ??1?$basic_string@GU?$char_traits@G@std@@V?$allocator@G@2@@std@@QAE@XZ 0040fb7e f i libcpmt:wlocale.obj
 0001:0000eb88       ?grouping@?$numpunct@_W@std@@QBE?AV?$basic_string@DU?$char_traits@D@std@@V?$allocator@D@2@@2@XZ 0040fb88 f i libcpmt:wlocale.obj
 0001:0000eb9f       ?_Grow@?$basic_string@_WU?$char_traits@_W@std@@V?$allocator@_W@2@@std@@IAE_NI_N@Z 0040fb9f f i libcpmt:wlocale.obj
 0001:0000ec00       ?grouping@?$_Mpunct@_W@std@@QBE?AV?$basic_string@DU?$char_traits@D@std@@V?$allocator@D@2@@2@XZ 0040fc00 f i libcpmt:wlocale.obj
 0001:0000ec17       ?curr_symbol@?$_Mpunct@_W@std@@QBE?AV?$basic_string@_WU?$char_traits@_W@std@@V?$allocator@_W@2@@2@XZ 0040fc17 f i libcpmt:wlocale.obj
 0001:0000ec2e       ?positive_sign@?$_Mpunct@_W@std@@QBE?AV?$basic_string@_WU?$char_traits@_W@std@@V?$allocator@_W@2@@2@XZ 0040fc2e f i libcpmt:wlocale.obj
 0001:0000ec45       ?negative_sign@?$_Mpunct@_W@std@@QBE?AV?$basic_string@_WU?$char_traits@_W@std@@V?$allocator@_W@2@@2@XZ 0040fc45 f i libcpmt:wlocale.obj
 0001:0000ec5c       ?grouping@?$numpunct@G@std@@QBE?AV?$basic_string@DU?$char_traits@D@std@@V?$allocator@D@2@@2@XZ 0040fc5c f i libcpmt:wlocale.obj
 0001:0000ec73       ?_Grow@?$basic_string@GU?$char_traits@G@std@@V?$allocator@G@2@@std@@IAE_NI_N@Z 0040fc73 f i libcpmt:wlocale.obj
 0001:0000ecd4       ?grouping@?$_Mpunct@G@std@@QBE?AV?$basic_string@DU?$char_traits@D@std@@V?$allocator@D@2@@2@XZ 0040fcd4 f i libcpmt:wlocale.obj
 0001:0000eceb       ?curr_symbol@?$_Mpunct@G@std@@QBE?AV?$basic_string@GU?$char_traits@G@std@@V?$allocator@G@2@@2@XZ 0040fceb f i libcpmt:wlocale.obj
 0001:0000ed02       ?positive_sign@?$_Mpunct@G@std@@QBE?AV?$basic_string@GU?$char_traits@G@std@@V?$allocator@G@2@@2@XZ 0040fd02 f i libcpmt:wlocale.obj
 0001:0000ed19       ?negative_sign@?$_Mpunct@G@std@@QBE?AV?$basic_string@GU?$char_traits@G@std@@V?$allocator@G@2@@2@XZ 0040fd19 f i libcpmt:wlocale.obj
 0001:0000ed30       ?append@?$basic_string@_WU?$char_traits@_W@std@@V?$allocator@_W@2@@std@@QAEAAV12@ABV12@II@Z 0040fd30 f i libcpmt:wlocale.obj
 0001:0000edd9       ?append@?$basic_string@GU?$char_traits@G@std@@V?$allocator@G@2@@std@@QAEAAV12@ABV12@II@Z 0040fdd9 f i libcpmt:wlocale.obj
 0001:0000ee82       ?reserve@?$basic_string@DU?$char_traits@D@std@@V?$allocator@D@2@@std@@QAEXI@Z 0040fe82 f i libcpmt:wlocale.obj
 0001:0000eeaf       ?falsename@?$numpunct@_W@std@@QBE?AV?$basic_string@_WU?$char_traits@_W@std@@V?$allocator@_W@2@@2@XZ 0040feaf f i libcpmt:wlocale.obj
 0001:0000eec6       ?truename@?$numpunct@_W@std@@QBE?AV?$basic_string@_WU?$char_traits@_W@std@@V?$allocator@_W@2@@2@XZ 0040fec6 f i libcpmt:wlocale.obj
 0001:0000eedd       ?append@?$basic_string@_WU?$char_traits@_W@std@@V?$allocator@_W@2@@std@@QAEAAV12@I_W@Z 0040fedd f i libcpmt:wlocale.obj
 0001:0000ef2b       ?falsename@?$numpunct@G@std@@QBE?AV?$basic_string@GU?$char_traits@G@std@@V?$allocator@G@2@@2@XZ 0040ff2b f i libcpmt:wlocale.obj
 0001:0000ef42       ?truename@?$numpunct@G@std@@QBE?AV?$basic_string@GU?$char_traits@G@std@@V?$allocator@G@2@@2@XZ 0040ff42 f i libcpmt:wlocale.obj
 0001:0000ef59       ?append@?$basic_string@GU?$char_traits@G@std@@V?$allocator@G@2@@std@@QAEAAV12@IG@Z 0040ff59 f i libcpmt:wlocale.obj
 0001:0000efa7       ?append@?$basic_string@_WU?$char_traits@_W@std@@V?$allocator@_W@2@@std@@QAEAAV12@ABV12@@Z 0040ffa7 f i libcpmt:wlocale.obj
 0001:0000efb7       ?assign@?$basic_string@_WU?$char_traits@_W@std@@V?$allocator@_W@2@@std@@QAEAAV12@ABV12@II@Z 0040ffb7 f i libcpmt:wlocale.obj
 0001:0000f04a       ?assign@?$basic_string@_WU?$char_traits@_W@std@@V?$allocator@_W@2@@std@@QAEAAV12@PB_WI@Z 0041004a f i libcpmt:wlocale.obj
 0001:0000f0be       ?assign@?$basic_string@_WU?$char_traits@_W@std@@V?$allocator@_W@2@@std@@QAEAAV12@PB_W@Z 004100be f i libcpmt:wlocale.obj
 0001:0000f0db       ?assign@?$basic_string@_WU?$char_traits@_W@std@@V?$allocator@_W@2@@std@@QAEAAV12@I_W@Z 004100db f i libcpmt:wlocale.obj
 0001:0000f118       ?insert@?$basic_string@_WU?$char_traits@_W@std@@V?$allocator@_W@2@@std@@QAEAAV12@II_W@Z 00410118 f i libcpmt:wlocale.obj
 0001:0000f1b6       ?resize@?$basic_string@_WU?$char_traits@_W@std@@V?$allocator@_W@2@@std@@QAEXI_W@Z 004101b6 f i libcpmt:wlocale.obj
 0001:0000f1da       ?append@?$basic_string@GU?$char_traits@G@std@@V?$allocator@G@2@@std@@QAEAAV12@ABV12@@Z 004101da f i libcpmt:wlocale.obj
 0001:0000f1ea       ?assign@?$basic_string@GU?$char_traits@G@std@@V?$allocator@G@2@@std@@QAEAAV12@ABV12@II@Z 004101ea f i libcpmt:wlocale.obj
 0001:0000f27d       ?assign@?$basic_string@GU?$char_traits@G@std@@V?$allocator@G@2@@std@@QAEAAV12@PBGI@Z 0041027d f i libcpmt:wlocale.obj
 0001:0000f2f1       ?assign@?$basic_string@GU?$char_traits@G@std@@V?$allocator@G@2@@std@@QAEAAV12@PBG@Z 004102f1 f i libcpmt:wlocale.obj
 0001:0000f30e       ?assign@?$basic_string@GU?$char_traits@G@std@@V?$allocator@G@2@@std@@QAEAAV12@IG@Z 0041030e f i libcpmt:wlocale.obj
 0001:0000f34b       ?insert@?$basic_string@GU?$char_traits@G@std@@V?$allocator@G@2@@std@@QAEAAV12@IIG@Z 0041034b f i libcpmt:wlocale.obj
 0001:0000f3e9       ?resize@?$basic_string@GU?$char_traits@G@std@@V?$allocator@G@2@@std@@QAEXIG@Z 004103e9 f i libcpmt:wlocale.obj
 0001:0000f40d       ??$_Getloctxt@_WV?$istreambuf_iterator@_WU?$char_traits@_W@std@@@std@@@std@@YAHAAV?$istreambuf_iterator@_WU?$char_traits@_W@std@@@0@0IPB_W@Z 0041040d f i libcpmt:wlocale.obj
 0001:0000f56e       ??$_Getloctxt@GV?$istreambuf_iterator@GU?$char_traits@G@std@@@std@@@std@@YAHAAV?$istreambuf_iterator@GU?$char_traits@G@std@@@0@0IPBG@Z 0041056e f i libcpmt:wlocale.obj
 0001:0000f6cf       ?do_put@?$time_put@_WV?$ostreambuf_iterator@_WU?$char_traits@_W@std@@@std@@@std@@MBE?AV?$ostreambuf_iterator@_WU?$char_traits@_W@std@@@2@V32@AAVios_base@2@_WPBUtm@@DD@Z 004106cf f i libcpmt:wlocale.obj
 0001:0000f816       ?do_put@?$time_put@GV?$ostreambuf_iterator@GU?$char_traits@G@std@@@std@@@std@@MBE?AV?$ostreambuf_iterator@GU?$char_traits@G@std@@@2@V32@AAVios_base@2@GPBUtm@@DD@Z 00410816 f i libcpmt:wlocale.obj
 0001:0000f95d       ??0?$basic_string@_WU?$char_traits@_W@std@@V?$allocator@_W@2@@std@@QAE@ABV01@@Z 0041095d f i libcpmt:wlocale.obj
 0001:0000f983       ??0?$basic_string@_WU?$char_traits@_W@std@@V?$allocator@_W@2@@std@@QAE@PB_WI@Z 00410983 f i libcpmt:wlocale.obj
 0001:0000f9a9       ??0?$basic_string@_WU?$char_traits@_W@std@@V?$allocator@_W@2@@std@@QAE@PB_W@Z 004109a9 f i libcpmt:wlocale.obj
 0001:0000f9cb       ??0?$basic_string@_WU?$char_traits@_W@std@@V?$allocator@_W@2@@std@@QAE@I_W@Z 004109cb f i libcpmt:wlocale.obj
 0001:0000f9f1       ??Y?$basic_string@_WU?$char_traits@_W@std@@V?$allocator@_W@2@@std@@QAEAAV01@ABV01@@Z 004109f1 f i libcpmt:wlocale.obj
 0001:0000fa01       ??Y?$basic_string@_WU?$char_traits@_W@std@@V?$allocator@_W@2@@std@@QAEAAV01@_W@Z 00410a01 f i libcpmt:wlocale.obj
 0001:0000fa0f       ?assign@?$basic_string@_WU?$char_traits@_W@std@@V?$allocator@_W@2@@std@@QAEAAV12@ABV12@@Z 00410a0f f i libcpmt:wlocale.obj
 0001:0000fa1f       ?resize@?$basic_string@_WU?$char_traits@_W@std@@V?$allocator@_W@2@@std@@QAEXI@Z 00410a1f f i libcpmt:wlocale.obj
 0001:0000fa2d       ??0?$basic_string@GU?$char_traits@G@std@@V?$allocator@G@2@@std@@QAE@ABV01@@Z 00410a2d f i libcpmt:wlocale.obj
 0001:0000fa53       ??0?$basic_string@GU?$char_traits@G@std@@V?$allocator@G@2@@std@@QAE@PBGI@Z 00410a53 f i libcpmt:wlocale.obj
 0001:0000fa79       ??0?$basic_string@GU?$char_traits@G@std@@V?$allocator@G@2@@std@@QAE@PBG@Z 00410a79 f i libcpmt:wlocale.obj
 0001:0000fa9b       ??0?$basic_string@GU?$char_traits@G@std@@V?$allocator@G@2@@std@@QAE@IG@Z 00410a9b f i libcpmt:wlocale.obj
 0001:0000fac1       ??Y?$basic_string@GU?$char_traits@G@std@@V?$allocator@G@2@@std@@QAEAAV01@ABV01@@Z 00410ac1 f i libcpmt:wlocale.obj
 0001:0000fad1       ??Y?$basic_string@GU?$char_traits@G@std@@V?$allocator@G@2@@std@@QAEAAV01@G@Z 00410ad1 f i libcpmt:wlocale.obj
 0001:0000fadf       ?assign@?$basic_string@GU?$char_traits@G@std@@V?$allocator@G@2@@std@@QAEAAV12@ABV12@@Z 00410adf f i libcpmt:wlocale.obj
 0001:0000faef       ?resize@?$basic_string@GU?$char_traits@G@std@@V?$allocator@G@2@@std@@QAEXI@Z 00410aef f i libcpmt:wlocale.obj
 0001:0000fafd       ?do_grouping@?$numpunct@_W@std@@MBE?AV?$basic_string@DU?$char_traits@D@std@@V?$allocator@D@2@@2@XZ 00410afd f i libcpmt:wlocale.obj
 0001:0000fb17       ?do_falsename@?$numpunct@_W@std@@MBE?AV?$basic_string@_WU?$char_traits@_W@std@@V?$allocator@_W@2@@2@XZ 00410b17 f i libcpmt:wlocale.obj
 0001:0000fb31       ?do_truename@?$numpunct@_W@std@@MBE?AV?$basic_string@_WU?$char_traits@_W@std@@V?$allocator@_W@2@@2@XZ 00410b31 f i libcpmt:wlocale.obj
 0001:0000fb4b       ?do_transform@?$collate@_W@std@@MBE?AV?$basic_string@_WU?$char_traits@_W@std@@V?$allocator@_W@2@@2@PB_W0@Z 00410b4b f i libcpmt:wlocale.obj
 0001:0000fbf9       ?do_get@?$messages@_W@std@@MBE?AV?$basic_string@_WU?$char_traits@_W@std@@V?$allocator@_W@2@@2@HHHABV32@@Z 00410bf9 f i libcpmt:wlocale.obj
 0001:0000fc13       ?do_grouping@?$_Mpunct@_W@std@@MBE?AV?$basic_string@DU?$char_traits@D@std@@V?$allocator@D@2@@2@XZ 00410c13 f i libcpmt:wlocale.obj
 0001:0000fc2d       ?do_curr_symbol@?$_Mpunct@_W@std@@MBE?AV?$basic_string@_WU?$char_traits@_W@std@@V?$allocator@_W@2@@2@XZ 00410c2d f i libcpmt:wlocale.obj
 0001:0000fc47       ?do_positive_sign@?$_Mpunct@_W@std@@MBE?AV?$basic_string@_WU?$char_traits@_W@std@@V?$allocator@_W@2@@2@XZ 00410c47 f i libcpmt:wlocale.obj
 0001:0000fc61       ?do_negative_sign@?$_Mpunct@_W@std@@MBE?AV?$basic_string@_WU?$char_traits@_W@std@@V?$allocator@_W@2@@2@XZ 00410c61 f i libcpmt:wlocale.obj
 0001:0000fc7b       ?do_grouping@?$numpunct@G@std@@MBE?AV?$basic_string@DU?$char_traits@D@std@@V?$allocator@D@2@@2@XZ 00410c7b f i libcpmt:wlocale.obj
 0001:0000fc95       ?do_falsename@?$numpunct@G@std@@MBE?AV?$basic_string@GU?$char_traits@G@std@@V?$allocator@G@2@@2@XZ 00410c95 f i libcpmt:wlocale.obj
 0001:0000fcaf       ?do_truename@?$numpunct@G@std@@MBE?AV?$basic_string@GU?$char_traits@G@std@@V?$allocator@G@2@@2@XZ 00410caf f i libcpmt:wlocale.obj
 0001:0000fcc9       ?do_transform@?$collate@G@std@@MBE?AV?$basic_string@GU?$char_traits@G@std@@V?$allocator@G@2@@2@PBG0@Z 00410cc9 f i libcpmt:wlocale.obj
 0001:0000fd77       ?do_get@?$messages@G@std@@MBE?AV?$basic_string@GU?$char_traits@G@std@@V?$allocator@G@2@@2@HHHABV32@@Z 00410d77 f i libcpmt:wlocale.obj
 0001:0000fd91       ?do_grouping@?$_Mpunct@G@std@@MBE?AV?$basic_string@DU?$char_traits@D@std@@V?$allocator@D@2@@2@XZ 00410d91 f i libcpmt:wlocale.obj
 0001:0000fdab       ?do_curr_symbol@?$_Mpunct@G@std@@MBE?AV?$basic_string@GU?$char_traits@G@std@@V?$allocator@G@2@@2@XZ 00410dab f i libcpmt:wlocale.obj
 0001:0000fdc5       ?do_positive_sign@?$_Mpunct@G@std@@MBE?AV?$basic_string@GU?$char_traits@G@std@@V?$allocator@G@2@@2@XZ 00410dc5 f i libcpmt:wlocale.obj
 0001:0000fddf       ?do_negative_sign@?$_Mpunct@G@std@@MBE?AV?$basic_string@GU?$char_traits@G@std@@V?$allocator@G@2@@2@XZ 00410ddf f i libcpmt:wlocale.obj
 0001:0000fdf9       ??4?$basic_string@_WU?$char_traits@_W@std@@V?$allocator@_W@2@@std@@QAEAAV01@ABV01@@Z 00410df9 f i libcpmt:wlocale.obj
 0001:0000fe09       ??4?$basic_string@GU?$char_traits@G@std@@V?$allocator@G@2@@std@@QAEAAV01@ABV01@@Z 00410e09 f i libcpmt:wlocale.obj
 0001:0000fe19       ?_Getdays@_Locinfo@std@@QBEPBDXZ 00410e19 f i libcpmt:wlocale.obj
 0001:0000fe56       ?_Getmonths@_Locinfo@std@@QBEPBDXZ 00410e56 f i libcpmt:wlocale.obj
 0001:0000fe93       ??0?$codecvt@_WDH@std@@QAE@I@Z 00410e93 f i libcpmt:wlocale.obj
 0001:0000fee7       ?_Getcat@?$codecvt@_WDH@std@@SAIPAPBVfacet@locale@2@@Z 00410ee7 f i libcpmt:wlocale.obj
 0001:0000ff2a       ??0?$codecvt@GDH@std@@QAE@I@Z 00410f2a f i libcpmt:wlocale.obj
 0001:0000ff7e       ?_Getcat@?$codecvt@GDH@std@@SAIPAPBVfacet@locale@2@@Z 00410f7e f i libcpmt:wlocale.obj
 0001:0000ffc1       ??0?$ctype@_W@std@@QAE@I@Z 00410fc1 f i libcpmt:wlocale.obj
 0001:00010018       ?_Getcat@?$ctype@_W@std@@SAIPAPBVfacet@locale@2@@Z 00411018 f i libcpmt:wlocale.obj
 0001:0001005b       ??0?$ctype@G@std@@QAE@I@Z  0041105b f i libcpmt:wlocale.obj
 0001:000100b2       ?_Getcat@?$ctype@G@std@@SAIPAPBVfacet@locale@2@@Z 004110b2 f i libcpmt:wlocale.obj
 0001:000100f5       ??0?$time_put@_WV?$ostreambuf_iterator@_WU?$char_traits@_W@std@@@std@@@std@@QAE@I@Z 004110f5 f i libcpmt:wlocale.obj
 0001:00010154       ??0?$num_get@_WV?$istreambuf_iterator@_WU?$char_traits@_W@std@@@std@@@std@@QAE@I@Z 00411154 f i libcpmt:wlocale.obj
 0001:000101a8       ??0?$num_put@_WV?$ostreambuf_iterator@_WU?$char_traits@_W@std@@@std@@@std@@QAE@I@Z 004111a8 f i libcpmt:wlocale.obj
 0001:000101fc       ??0?$numpunct@_W@std@@QAE@I@Z 004111fc f i libcpmt:wlocale.obj
 0001:0001028d       ??0?$collate@_W@std@@QAE@I@Z 0041128d f i libcpmt:wlocale.obj
 0001:000102e1       ??0?$messages@_W@std@@QAE@I@Z 004112e1 f i libcpmt:wlocale.obj
 0001:0001032a       ??0?$money_get@_WV?$istreambuf_iterator@_WU?$char_traits@_W@std@@@std@@@std@@QAE@I@Z 0041132a f i libcpmt:wlocale.obj
 0001:0001037e       ??0?$money_put@_WV?$ostreambuf_iterator@_WU?$char_traits@_W@std@@@std@@@std@@QAE@I@Z 0041137e f i libcpmt:wlocale.obj
 0001:000103d2       ?_Init@?$time_get@_WV?$istreambuf_iterator@_WU?$char_traits@_W@std@@@std@@@std@@IAEXABV_Locinfo@2@@Z 004113d2 f i libcpmt:wlocale.obj
 0001:00010449       ??0?$num_get@GV?$istreambuf_iterator@GU?$char_traits@G@std@@@std@@@std@@QAE@I@Z 00411449 f i libcpmt:wlocale.obj
 0001:0001049d       ??0?$num_put@GV?$ostreambuf_iterator@GU?$char_traits@G@std@@@std@@@std@@QAE@I@Z 0041149d f i libcpmt:wlocale.obj
 0001:000104f1       ??0?$numpunct@G@std@@QAE@I@Z 004114f1 f i libcpmt:wlocale.obj
 0001:00010582       ??0?$collate@G@std@@QAE@I@Z 00411582 f i libcpmt:wlocale.obj
 0001:000105d6       ??0?$messages@G@std@@QAE@I@Z 004115d6 f i libcpmt:wlocale.obj
 0001:0001061f       ??0?$money_get@GV?$istreambuf_iterator@GU?$char_traits@G@std@@@std@@@std@@QAE@I@Z 0041161f f i libcpmt:wlocale.obj
 0001:00010673       ??0?$money_put@GV?$ostreambuf_iterator@GU?$char_traits@G@std@@@std@@@std@@QAE@I@Z 00411673 f i libcpmt:wlocale.obj
 0001:000106c7       ?_Init@?$time_get@GV?$istreambuf_iterator@GU?$char_traits@G@std@@@std@@@std@@IAEXABV_Locinfo@2@@Z 004116c7 f i libcpmt:wlocale.obj
 0001:0001073e       ??0?$time_put@GV?$ostreambuf_iterator@GU?$char_traits@G@std@@@std@@@std@@QAE@I@Z 0041173e f i libcpmt:wlocale.obj
 0001:0001079d       ??0?$_Mpunct@_W@std@@QAE@I_N@Z 0041179d f i libcpmt:wlocale.obj
 0001:00010802       ??0?$_Mpunct@G@std@@QAE@I_N@Z 00411802 f i libcpmt:wlocale.obj
 0001:00010867       ??$use_facet@V?$ctype@_W@std@@@std@@YAABV?$ctype@_W@0@ABVlocale@0@@Z 00411867 f i libcpmt:wlocale.obj
 0001:00010900       ??$use_facet@V?$ctype@G@std@@@std@@YAABV?$ctype@G@0@ABVlocale@0@@Z 00411900 f i libcpmt:wlocale.obj
 0001:00010999       ??$use_facet@V?$codecvt@_WDH@std@@@std@@YAABV?$codecvt@_WDH@0@ABVlocale@0@@Z 00411999 f i libcpmt:wlocale.obj
 0001:00010a32       ??$use_facet@V?$codecvt@GDH@std@@@std@@YAABV?$codecvt@GDH@0@ABVlocale@0@@Z 00411a32 f i libcpmt:wlocale.obj
 0001:00010acb       ?_Getcat@?$time_put@_WV?$ostreambuf_iterator@_WU?$char_traits@_W@std@@@std@@@std@@SAIPAPBVfacet@locale@2@@Z 00411acb f i libcpmt:wlocale.obj
 0001:00010b0e       ?_Getcat@?$num_get@_WV?$istreambuf_iterator@_WU?$char_traits@_W@std@@@std@@@std@@SAIPAPBVfacet@locale@2@@Z 00411b0e f i libcpmt:wlocale.obj
 0001:00010b51       ?_Getcat@?$num_put@_WV?$ostreambuf_iterator@_WU?$char_traits@_W@std@@@std@@@std@@SAIPAPBVfacet@locale@2@@Z 00411b51 f i libcpmt:wlocale.obj
 0001:00010b94       ?_Getcat@?$numpunct@_W@std@@SAIPAPBVfacet@locale@2@@Z 00411b94 f i libcpmt:wlocale.obj
 0001:00010bd7       ?_Getcat@?$collate@_W@std@@SAIPAPBVfacet@locale@2@@Z 00411bd7 f i libcpmt:wlocale.obj
 0001:00010c1a       ?_Getcat@?$messages@_W@std@@SAIPAPBVfacet@locale@2@@Z 00411c1a f i libcpmt:wlocale.obj
 0001:00010c5d       ?_Getcat@?$money_get@_WV?$istreambuf_iterator@_WU?$char_traits@_W@std@@@std@@@std@@SAIPAPBVfacet@locale@2@@Z 00411c5d f i libcpmt:wlocale.obj
 0001:00010ca0       ?_Getcat@?$money_put@_WV?$ostreambuf_iterator@_WU?$char_traits@_W@std@@@std@@@std@@SAIPAPBVfacet@locale@2@@Z 00411ca0 f i libcpmt:wlocale.obj
 0001:00010ce3       ??0?$time_get@_WV?$istreambuf_iterator@_WU?$char_traits@_W@std@@@std@@@std@@QAE@ABV_Locinfo@1@I@Z 00411ce3 f i libcpmt:wlocale.obj
 0001:00010d16       ?do_date_order@?$time_get@_WV?$istreambuf_iterator@_WU?$char_traits@_W@std@@@std@@@std@@MBE?AW4dateorder@time_base@2@XZ 00411d16 f i libcpmt:wlocale.obj
 0001:00010d1a       ?date_order@?$time_get@_WV?$istreambuf_iterator@_WU?$char_traits@_W@std@@@std@@@std@@QBE?AW4dateorder@time_base@2@XZ 00411d1a f i libcpmt:wlocale.obj
 0001:00010d1f       ?get_monthname@?$time_get@_WV?$istreambuf_iterator@_WU?$char_traits@_W@std@@@std@@@std@@QBE?AV?$istreambuf_iterator@_WU?$char_traits@_W@std@@@2@V32@0AAVios_base@2@AAHPAUtm@@@Z 00411d1f f i libcpmt:wlocale.obj
 0001:00010d54       ?get_year@?$time_get@_WV?$istreambuf_iterator@_WU?$char_traits@_W@std@@@std@@@std@@QBE?AV?$istreambuf_iterator@_WU?$char_traits@_W@std@@@2@V32@0AAVios_base@2@AAHPAUtm@@@Z 00411d54 f i libcpmt:wlocale.obj
 0001:00010d89       ??1?$time_get@_WV?$istreambuf_iterator@_WU?$char_traits@_W@std@@@std@@@std@@MAE@XZ 00411d89 f i libcpmt:wlocale.obj
 0001:00010d9f       ??_E?$time_get@_WV?$istreambuf_iterator@_WU?$char_traits@_W@std@@@std@@@std@@MAEPAXI@Z 00411d9f f i libcpmt:wlocale.obj
 0001:00010d9f       ??_G?$time_get@_WV?$istreambuf_iterator@_WU?$char_traits@_W@std@@@std@@@std@@MAEPAXI@Z 00411d9f f i libcpmt:wlocale.obj
 0001:00010dbb       ?_Getint@?$time_get@_WV?$istreambuf_iterator@_WU?$char_traits@_W@std@@@std@@@std@@ABAHAAV?$istreambuf_iterator@_WU?$char_traits@_W@std@@@2@0HHAAH@Z 00411dbb f i libcpmt:wlocale.obj
 0001:00010f50       ?do_get_time@?$time_get@_WV?$istreambuf_iterator@_WU?$char_traits@_W@std@@@std@@@std@@MBE?AV?$istreambuf_iterator@_WU?$char_traits@_W@std@@@2@V32@0AAVios_base@2@AAHPAUtm@@@Z 00411f50 f i libcpmt:wlocale.obj
 0001:00011023       ?do_get_date@?$time_get@_WV?$istreambuf_iterator@_WU?$char_traits@_W@std@@@std@@@std@@MBE?AV?$istreambuf_iterator@_WU?$char_traits@_W@std@@@2@V32@0AAVios_base@2@AAHPAUtm@@@Z 00412023 f i libcpmt:wlocale.obj
 0001:000114ac       ?do_get_year@?$time_get@_WV?$istreambuf_iterator@_WU?$char_traits@_W@std@@@std@@@std@@MBE?AV?$istreambuf_iterator@_WU?$char_traits@_W@std@@@2@V32@0AAVios_base@2@AAHPAUtm@@@Z 004124ac f i libcpmt:wlocale.obj
 0001:00011519       ?do_get_weekday@?$time_get@_WV?$istreambuf_iterator@_WU?$char_traits@_W@std@@@std@@@std@@MBE?AV?$istreambuf_iterator@_WU?$char_traits@_W@std@@@2@V32@0AAVios_base@2@AAHPAUtm@@@Z 00412519 f i libcpmt:wlocale.obj
 0001:00011558       ?do_get_monthname@?$time_get@_WV?$istreambuf_iterator@_WU?$char_traits@_W@std@@@std@@@std@@MBE?AV?$istreambuf_iterator@_WU?$char_traits@_W@std@@@2@V32@0AAVios_base@2@AAHPAUtm@@@Z 00412558 f i libcpmt:wlocale.obj
 0001:00011597       ?_Getcat@?$num_get@GV?$istreambuf_iterator@GU?$char_traits@G@std@@@std@@@std@@SAIPAPBVfacet@locale@2@@Z 00412597 f i libcpmt:wlocale.obj
 0001:000115da       ?_Getcat@?$num_put@GV?$ostreambuf_iterator@GU?$char_traits@G@std@@@std@@@std@@SAIPAPBVfacet@locale@2@@Z 004125da f i libcpmt:wlocale.obj
 0001:0001161d       ?_Getcat@?$numpunct@G@std@@SAIPAPBVfacet@locale@2@@Z 0041261d f i libcpmt:wlocale.obj
 0001:00011660       ?_Getcat@?$collate@G@std@@SAIPAPBVfacet@locale@2@@Z 00412660 f i libcpmt:wlocale.obj
 0001:000116a3       ?_Getcat@?$messages@G@std@@SAIPAPBVfacet@locale@2@@Z 004126a3 f i libcpmt:wlocale.obj
 0001:000116e6       ?_Getcat@?$money_get@GV?$istreambuf_iterator@GU?$char_traits@G@std@@@std@@@std@@SAIPAPBVfacet@locale@2@@Z 004126e6 f i libcpmt:wlocale.obj
 0001:00011729       ?_Getcat@?$money_put@GV?$ostreambuf_iterator@GU?$char_traits@G@std@@@std@@@std@@SAIPAPBVfacet@locale@2@@Z 00412729 f i libcpmt:wlocale.obj
 0001:0001176c       ??0?$time_get@GV?$istreambuf_iterator@GU?$char_traits@G@std@@@std@@@std@@QAE@ABV_Locinfo@1@I@Z 0041276c f i libcpmt:wlocale.obj
 0001:0001179f       ?do_date_order@?$time_get@GV?$istreambuf_iterator@GU?$char_traits@G@std@@@std@@@std@@MBE?AW4dateorder@time_base@2@XZ 0041279f f i libcpmt:wlocale.obj
 0001:000117a3       ?date_order@?$time_get@GV?$istreambuf_iterator@GU?$char_traits@G@std@@@std@@@std@@QBE?AW4dateorder@time_base@2@XZ 004127a3 f i libcpmt:wlocale.obj
 0001:000117a8       ?get_monthname@?$time_get@GV?$istreambuf_iterator@GU?$char_traits@G@std@@@std@@@std@@QBE?AV?$istreambuf_iterator@GU?$char_traits@G@std@@@2@V32@0AAVios_base@2@AAHPAUtm@@@Z 004127a8 f i libcpmt:wlocale.obj
 0001:000117dd       ?get_year@?$time_get@GV?$istreambuf_iterator@GU?$char_traits@G@std@@@std@@@std@@QBE?AV?$istreambuf_iterator@GU?$char_traits@G@std@@@2@V32@0AAVios_base@2@AAHPAUtm@@@Z 004127dd f i libcpmt:wlocale.obj
 0001:00011812       ??1?$time_get@GV?$istreambuf_iterator@GU?$char_traits@G@std@@@std@@@std@@MAE@XZ 00412812 f i libcpmt:wlocale.obj
 0001:00011828       ??_E?$time_get@GV?$istreambuf_iterator@GU?$char_traits@G@std@@@std@@@std@@MAEPAXI@Z 00412828 f i libcpmt:wlocale.obj
 0001:00011828       ??_G?$time_get@GV?$istreambuf_iterator@GU?$char_traits@G@std@@@std@@@std@@MAEPAXI@Z 00412828 f i libcpmt:wlocale.obj
 0001:00011844       ?_Getint@?$time_get@GV?$istreambuf_iterator@GU?$char_traits@G@std@@@std@@@std@@ABAHAAV?$istreambuf_iterator@GU?$char_traits@G@std@@@2@0HHAAH@Z 00412844 f i libcpmt:wlocale.obj
 0001:000119d9       ?do_get_time@?$time_get@GV?$istreambuf_iterator@GU?$char_traits@G@std@@@std@@@std@@MBE?AV?$istreambuf_iterator@GU?$char_traits@G@std@@@2@V32@0AAVios_base@2@AAHPAUtm@@@Z 004129d9 f i libcpmt:wlocale.obj
 0001:00011aac       ?do_get_date@?$time_get@GV?$istreambuf_iterator@GU?$char_traits@G@std@@@std@@@std@@MBE?AV?$istreambuf_iterator@GU?$char_traits@G@std@@@2@V32@0AAVios_base@2@AAHPAUtm@@@Z 00412aac f i libcpmt:wlocale.obj
 0001:00011f35       ?do_get_year@?$time_get@GV?$istreambuf_iterator@GU?$char_traits@G@std@@@std@@@std@@MBE?AV?$istreambuf_iterator@GU?$char_traits@G@std@@@2@V32@0AAVios_base@2@AAHPAUtm@@@Z 00412f35 f i libcpmt:wlocale.obj
 0001:00011fa2       ?do_get_weekday@?$time_get@GV?$istreambuf_iterator@GU?$char_traits@G@std@@@std@@@std@@MBE?AV?$istreambuf_iterator@GU?$char_traits@G@std@@@2@V32@0AAVios_base@2@AAHPAUtm@@@Z 00412fa2 f i libcpmt:wlocale.obj
 0001:00011fe1       ?do_get_monthname@?$time_get@GV?$istreambuf_iterator@GU?$char_traits@G@std@@@std@@@std@@MBE?AV?$istreambuf_iterator@GU?$char_traits@G@std@@@2@V32@0AAVios_base@2@AAHPAUtm@@@Z 00412fe1 f i libcpmt:wlocale.obj
 0001:00012020       ?_Getcat@?$time_put@GV?$ostreambuf_iterator@GU?$char_traits@G@std@@@std@@@std@@SAIPAPBVfacet@locale@2@@Z 00413020 f i libcpmt:wlocale.obj
 0001:00012063       ??0?$moneypunct@_W$0A@@std@@QAE@I@Z 00413063 f i libcpmt:wlocale.obj
 0001:0001207d       ??0?$moneypunct@_W$00@std@@QAE@I@Z 0041307d f i libcpmt:wlocale.obj
 0001:00012097       ??0?$time_get@_WV?$istreambuf_iterator@_WU?$char_traits@_W@std@@@std@@@std@@QAE@I@Z 00413097 f i libcpmt:wlocale.obj
 0001:000120f6       ??0?$moneypunct@G$0A@@std@@QAE@I@Z 004130f6 f i libcpmt:wlocale.obj
 0001:00012110       ??0?$moneypunct@G$00@std@@QAE@I@Z 00413110 f i libcpmt:wlocale.obj
 0001:0001212a       ??0?$time_get@GV?$istreambuf_iterator@GU?$char_traits@G@std@@@std@@@std@@QAE@I@Z 0041312a f i libcpmt:wlocale.obj
 0001:00012189       ??$use_facet@V?$num_get@_WV?$istreambuf_iterator@_WU?$char_traits@_W@std@@@std@@@std@@@std@@YAABV?$num_get@_WV?$istreambuf_iterator@_WU?$char_traits@_W@std@@@std@@@0@ABVlocale@0@@Z 00413189 f i libcpmt:wlocale.obj
 0001:00012222       ??$use_facet@V?$num_put@_WV?$ostreambuf_iterator@_WU?$char_traits@_W@std@@@std@@@std@@@std@@YAABV?$num_put@_WV?$ostreambuf_iterator@_WU?$char_traits@_W@std@@@std@@@0@ABVlocale@0@@Z 00413222 f i libcpmt:wlocale.obj
 0001:000122bb       ??$use_facet@V?$numpunct@_W@std@@@std@@YAABV?$numpunct@_W@0@ABVlocale@0@@Z 004132bb f i libcpmt:wlocale.obj
 0001:00012354       ??$use_facet@V?$collate@_W@std@@@std@@YAABV?$collate@_W@0@ABVlocale@0@@Z 00413354 f i libcpmt:wlocale.obj
 0001:000123ed       ??$use_facet@V?$messages@_W@std@@@std@@YAABV?$messages@_W@0@ABVlocale@0@@Z 004133ed f i libcpmt:wlocale.obj
 0001:00012486       ??$use_facet@V?$money_get@_WV?$istreambuf_iterator@_WU?$char_traits@_W@std@@@std@@@std@@@std@@YAABV?$money_get@_WV?$istreambuf_iterator@_WU?$char_traits@_W@std@@@std@@@0@ABVlocale@0@@Z 00413486 f i libcpmt:wlocale.obj
 0001:0001251f       ??$use_facet@V?$money_put@_WV?$ostreambuf_iterator@_WU?$char_traits@_W@std@@@std@@@std@@@std@@YAABV?$money_put@_WV?$ostreambuf_iterator@_WU?$char_traits@_W@std@@@std@@@0@ABVlocale@0@@Z 0041351f f i libcpmt:wlocale.obj
 0001:000125b8       ??$use_facet@V?$time_put@_WV?$ostreambuf_iterator@_WU?$char_traits@_W@std@@@std@@@std@@@std@@YAABV?$time_put@_WV?$ostreambuf_iterator@_WU?$char_traits@_W@std@@@std@@@0@ABVlocale@0@@Z 004135b8 f i libcpmt:wlocale.obj
 0001:00012651       ??$use_facet@V?$num_get@GV?$istreambuf_iterator@GU?$char_traits@G@std@@@std@@@std@@@std@@YAABV?$num_get@GV?$istreambuf_iterator@GU?$char_traits@G@std@@@std@@@0@ABVlocale@0@@Z 00413651 f i libcpmt:wlocale.obj
 0001:000126ea       ??$use_facet@V?$num_put@GV?$ostreambuf_iterator@GU?$char_traits@G@std@@@std@@@std@@@std@@YAABV?$num_put@GV?$ostreambuf_iterator@GU?$char_traits@G@std@@@std@@@0@ABVlocale@0@@Z 004136ea f i libcpmt:wlocale.obj
 0001:00012783       ??$use_facet@V?$numpunct@G@std@@@std@@YAABV?$numpunct@G@0@ABVlocale@0@@Z 00413783 f i libcpmt:wlocale.obj
 0001:0001281c       ??$use_facet@V?$collate@G@std@@@std@@YAABV?$collate@G@0@ABVlocale@0@@Z 0041381c f i libcpmt:wlocale.obj
 0001:000128b5       ??$use_facet@V?$messages@G@std@@@std@@YAABV?$messages@G@0@ABVlocale@0@@Z 004138b5 f i libcpmt:wlocale.obj
 0001:0001294e       ??$use_facet@V?$money_get@GV?$istreambuf_iterator@GU?$char_traits@G@std@@@std@@@std@@@std@@YAABV?$money_get@GV?$istreambuf_iterator@GU?$char_traits@G@std@@@std@@@0@ABVlocale@0@@Z 0041394e f i libcpmt:wlocale.obj
 0001:000129e7       ??$use_facet@V?$money_put@GV?$ostreambuf_iterator@GU?$char_traits@G@std@@@std@@@std@@@std@@YAABV?$money_put@GV?$ostreambuf_iterator@GU?$char_traits@G@std@@@std@@@0@ABVlocale@0@@Z 004139e7 f i libcpmt:wlocale.obj
 0001:00012a80       ??$use_facet@V?$time_put@GV?$ostreambuf_iterator@GU?$char_traits@G@std@@@std@@@std@@@std@@YAABV?$time_put@GV?$ostreambuf_iterator@GU?$char_traits@G@std@@@std@@@0@ABVlocale@0@@Z 00413a80 f i libcpmt:wlocale.obj
 0001:00012b19       ?do_put@?$num_put@_WV?$ostreambuf_iterator@_WU?$char_traits@_W@std@@@std@@@std@@MBE?AV?$ostreambuf_iterator@_WU?$char_traits@_W@std@@@2@V32@AAVios_base@2@_W_N@Z 00413b19 f i libcpmt:wlocale.obj
 0001:00012c87       ?_Getcat@?$moneypunct@_W$0A@@std@@SAIPAPBVfacet@locale@2@@Z 00413c87 f i libcpmt:wlocale.obj
 0001:00012cca       ?_Getcat@?$moneypunct@_W$00@std@@SAIPAPBVfacet@locale@2@@Z 00413cca f i libcpmt:wlocale.obj
 0001:00012d0d       ?_Getcat@?$time_get@_WV?$istreambuf_iterator@_WU?$char_traits@_W@std@@@std@@@std@@SAIPAPBVfacet@locale@2@@Z 00413d0d f i libcpmt:wlocale.obj
 0001:00012d50       ?do_put@?$num_put@GV?$ostreambuf_iterator@GU?$char_traits@G@std@@@std@@@std@@MBE?AV?$ostreambuf_iterator@GU?$char_traits@G@std@@@2@V32@AAVios_base@2@G_N@Z 00413d50 f i libcpmt:wlocale.obj
 0001:00012ebe       ?_Getcat@?$moneypunct@G$0A@@std@@SAIPAPBVfacet@locale@2@@Z 00413ebe f i libcpmt:wlocale.obj
 0001:00012f01       ?_Getcat@?$moneypunct@G$00@std@@SAIPAPBVfacet@locale@2@@Z 00413f01 f i libcpmt:wlocale.obj
 0001:00012f44       ?_Getcat@?$time_get@GV?$istreambuf_iterator@GU?$char_traits@G@std@@@std@@@std@@SAIPAPBVfacet@locale@2@@Z 00413f44 f i libcpmt:wlocale.obj
 0001:00012f87       ?_Getifld@?$num_get@_WV?$istreambuf_iterator@_WU?$char_traits@_W@std@@@std@@@std@@ABAHPADAAV?$istreambuf_iterator@_WU?$char_traits@_W@std@@@2@1HABVlocale@2@@Z 00413f87 f i libcpmt:wlocale.obj
 0001:000132ca       ?_Getffld@?$num_get@_WV?$istreambuf_iterator@_WU?$char_traits@_W@std@@@std@@@std@@ABAHPADAAV?$istreambuf_iterator@_WU?$char_traits@_W@std@@@2@1ABVlocale@2@@Z 004142ca f i libcpmt:wlocale.obj
 0001:0001380f       ?_Fput@?$num_put@_WV?$ostreambuf_iterator@_WU?$char_traits@_W@std@@@std@@@std@@ABA?AV?$ostreambuf_iterator@_WU?$char_traits@_W@std@@@2@V32@AAVios_base@2@_WPBDIIII@Z 0041480f f i libcpmt:wlocale.obj
 0001:00013c81       ?_Iput@?$num_put@_WV?$ostreambuf_iterator@_WU?$char_traits@_W@std@@@std@@@std@@ABA?AV?$ostreambuf_iterator@_WU?$char_traits@_W@std@@@2@V32@AAVios_base@2@_WPADI@Z 00414c81 f i libcpmt:wlocale.obj
 0001:00013e70       ?_Getifld@?$num_get@GV?$istreambuf_iterator@GU?$char_traits@G@std@@@std@@@std@@ABAHPADAAV?$istreambuf_iterator@GU?$char_traits@G@std@@@2@1HABVlocale@2@@Z 00414e70 f i libcpmt:wlocale.obj
 0001:000141b3       ?_Getffld@?$num_get@GV?$istreambuf_iterator@GU?$char_traits@G@std@@@std@@@std@@ABAHPADAAV?$istreambuf_iterator@GU?$char_traits@G@std@@@2@1ABVlocale@2@@Z 004151b3 f i libcpmt:wlocale.obj
 0001:000146f8       ?_Fput@?$num_put@GV?$ostreambuf_iterator@GU?$char_traits@G@std@@@std@@@std@@ABA?AV?$ostreambuf_iterator@GU?$char_traits@G@std@@@2@V32@AAVios_base@2@GPBDIIII@Z 004156f8 f i libcpmt:wlocale.obj
 0001:00014b6a       ?_Iput@?$num_put@GV?$ostreambuf_iterator@GU?$char_traits@G@std@@@std@@@std@@ABA?AV?$ostreambuf_iterator@GU?$char_traits@G@std@@@2@V32@AAVios_base@2@GPADI@Z 00415b6a f i libcpmt:wlocale.obj
 0001:00014d59       ??$use_facet@V?$moneypunct@_W$0A@@std@@@std@@YAABV?$moneypunct@_W$0A@@0@ABVlocale@0@@Z 00415d59 f i libcpmt:wlocale.obj
 0001:00014df2       ??$use_facet@V?$moneypunct@_W$00@std@@@std@@YAABV?$moneypunct@_W$00@0@ABVlocale@0@@Z 00415df2 f i libcpmt:wlocale.obj
 0001:00014e8b       ??$use_facet@V?$time_get@_WV?$istreambuf_iterator@_WU?$char_traits@_W@std@@@std@@@std@@@std@@YAABV?$time_get@_WV?$istreambuf_iterator@_WU?$char_traits@_W@std@@@std@@@0@ABVlocale@0@@Z 00415e8b f i libcpmt:wlocale.obj
 0001:00014f24       ??$use_facet@V?$moneypunct@G$0A@@std@@@std@@YAABV?$moneypunct@G$0A@@0@ABVlocale@0@@Z 00415f24 f i libcpmt:wlocale.obj
 0001:00014fbd       ??$use_facet@V?$moneypunct@G$00@std@@@std@@YAABV?$moneypunct@G$00@0@ABVlocale@0@@Z 00415fbd f i libcpmt:wlocale.obj
 0001:00015056       ??$use_facet@V?$time_get@GV?$istreambuf_iterator@GU?$char_traits@G@std@@@std@@@std@@@std@@YAABV?$time_get@GV?$istreambuf_iterator@GU?$char_traits@G@std@@@std@@@0@ABVlocale@0@@Z 00416056 f i libcpmt:wlocale.obj
 0001:000150ef       ?_Makewloc@_Locimp@locale@std@@CAXABV_Locinfo@3@HPAV123@PBV23@@Z 004160ef f   libcpmt:wlocale.obj
 0001:00015607       ?_Makeushloc@_Locimp@locale@std@@CAXABV_Locinfo@3@HPAV123@PBV23@@Z 00416607 f   libcpmt:wlocale.obj
 0001:00015b1f       ?do_get@?$num_get@_WV?$istreambuf_iterator@_WU?$char_traits@_W@std@@@std@@@std@@MBE?AV?$istreambuf_iterator@_WU?$char_traits@_W@std@@@2@V32@0AAVios_base@2@AAHAA_N@Z 00416b1f f i libcpmt:wlocale.obj
 0001:00015cb9       ?do_get@?$num_get@_WV?$istreambuf_iterator@_WU?$char_traits@_W@std@@@std@@@std@@MBE?AV?$istreambuf_iterator@_WU?$char_traits@_W@std@@@2@V32@0AAVios_base@2@AAHAAG@Z 00416cb9 f i libcpmt:wlocale.obj
 0001:00015d85       ?do_get@?$num_get@_WV?$istreambuf_iterator@_WU?$char_traits@_W@std@@@std@@@std@@MBE?AV?$istreambuf_iterator@_WU?$char_traits@_W@std@@@2@V32@0AAVios_base@2@AAHAAI@Z 00416d85 f i libcpmt:wlocale.obj
 0001:00015e4d       ?do_get@?$num_get@_WV?$istreambuf_iterator@_WU?$char_traits@_W@std@@@std@@@std@@MBE?AV?$istreambuf_iterator@_WU?$char_traits@_W@std@@@2@V32@0AAVios_base@2@AAHAAJ@Z 00416e4d f i libcpmt:wlocale.obj
 0001:00015ef8       ?do_get@?$num_get@_WV?$istreambuf_iterator@_WU?$char_traits@_W@std@@@std@@@std@@MBE?AV?$istreambuf_iterator@_WU?$char_traits@_W@std@@@2@V32@0AAVios_base@2@AAHAAK@Z 00416ef8 f i libcpmt:wlocale.obj
 0001:00015fa3       ?do_get@?$num_get@_WV?$istreambuf_iterator@_WU?$char_traits@_W@std@@@std@@@std@@MBE?AV?$istreambuf_iterator@_WU?$char_traits@_W@std@@@2@V32@0AAVios_base@2@AAHAA_J@Z 00416fa3 f i libcpmt:wlocale.obj
 0001:00016046       ?do_get@?$num_get@_WV?$istreambuf_iterator@_WU?$char_traits@_W@std@@@std@@@std@@MBE?AV?$istreambuf_iterator@_WU?$char_traits@_W@std@@@2@V32@0AAVios_base@2@AAHAA_K@Z 00417046 f i libcpmt:wlocale.obj
 0001:000160e9       ?do_get@?$num_get@_WV?$istreambuf_iterator@_WU?$char_traits@_W@std@@@std@@@std@@MBE?AV?$istreambuf_iterator@_WU?$char_traits@_W@std@@@2@V32@0AAVios_base@2@AAHAAM@Z 004170e9 f i libcpmt:wlocale.obj
 0001:0001618e       ?do_get@?$num_get@_WV?$istreambuf_iterator@_WU?$char_traits@_W@std@@@std@@@std@@MBE?AV?$istreambuf_iterator@_WU?$char_traits@_W@std@@@2@V32@0AAVios_base@2@AAHAAN@Z 0041718e f i libcpmt:wlocale.obj
 0001:00016233       ?do_get@?$num_get@_WV?$istreambuf_iterator@_WU?$char_traits@_W@std@@@std@@@std@@MBE?AV?$istreambuf_iterator@_WU?$char_traits@_W@std@@@2@V32@0AAVios_base@2@AAHAAO@Z 00417233 f i libcpmt:wlocale.obj
 0001:000162d8       ?do_get@?$num_get@_WV?$istreambuf_iterator@_WU?$char_traits@_W@std@@@std@@@std@@MBE?AV?$istreambuf_iterator@_WU?$char_traits@_W@std@@@2@V32@0AAVios_base@2@AAHAAPAX@Z 004172d8 f i libcpmt:wlocale.obj
 0001:0001638f       ?do_put@?$num_put@_WV?$ostreambuf_iterator@_WU?$char_traits@_W@std@@@std@@@std@@MBE?AV?$ostreambuf_iterator@_WU?$char_traits@_W@std@@@2@V32@AAVios_base@2@_WJ@Z 0041738f f i libcpmt:wlocale.obj
 0001:00016406       ?do_put@?$num_put@_WV?$ostreambuf_iterator@_WU?$char_traits@_W@std@@@std@@@std@@MBE?AV?$ostreambuf_iterator@_WU?$char_traits@_W@std@@@2@V32@AAVios_base@2@_WK@Z 00417406 f i libcpmt:wlocale.obj
 0001:0001647d       ?do_put@?$num_put@_WV?$ostreambuf_iterator@_WU?$char_traits@_W@std@@@std@@@std@@MBE?AV?$ostreambuf_iterator@_WU?$char_traits@_W@std@@@2@V32@AAVios_base@2@_W_J@Z 0041747d f i libcpmt:wlocale.obj
 0001:000164f7       ?do_put@?$num_put@_WV?$ostreambuf_iterator@_WU?$char_traits@_W@std@@@std@@@std@@MBE?AV?$ostreambuf_iterator@_WU?$char_traits@_W@std@@@2@V32@AAVios_base@2@_W_K@Z 004174f7 f i libcpmt:wlocale.obj
 0001:00016571       ?do_put@?$num_put@_WV?$ostreambuf_iterator@_WU?$char_traits@_W@std@@@std@@@std@@MBE?AV?$ostreambuf_iterator@_WU?$char_traits@_W@std@@@2@V32@AAVios_base@2@_WN@Z 00417571 f i libcpmt:wlocale.obj
 0001:000166d6       ?do_put@?$num_put@_WV?$ostreambuf_iterator@_WU?$char_traits@_W@std@@@std@@@std@@MBE?AV?$ostreambuf_iterator@_WU?$char_traits@_W@std@@@2@V32@AAVios_base@2@_WO@Z 004176d6 f i libcpmt:wlocale.obj
 0001:00016833       ?do_put@?$num_put@_WV?$ostreambuf_iterator@_WU?$char_traits@_W@std@@@std@@@std@@MBE?AV?$ostreambuf_iterator@_WU?$char_traits@_W@std@@@2@V32@AAVios_base@2@_WPBX@Z 00417833 f i libcpmt:wlocale.obj
 0001:00016899       ?do_get@?$num_get@GV?$istreambuf_iterator@GU?$char_traits@G@std@@@std@@@std@@MBE?AV?$istreambuf_iterator@GU?$char_traits@G@std@@@2@V32@0AAVios_base@2@AAHAA_N@Z 00417899 f i libcpmt:wlocale.obj
 0001:00016a33       ?do_get@?$num_get@GV?$istreambuf_iterator@GU?$char_traits@G@std@@@std@@@std@@MBE?AV?$istreambuf_iterator@GU?$char_traits@G@std@@@2@V32@0AAVios_base@2@AAHAAG@Z 00417a33 f i libcpmt:wlocale.obj
 0001:00016aff       ?do_get@?$num_get@GV?$istreambuf_iterator@GU?$char_traits@G@std@@@std@@@std@@MBE?AV?$istreambuf_iterator@GU?$char_traits@G@std@@@2@V32@0AAVios_base@2@AAHAAI@Z 00417aff f i libcpmt:wlocale.obj
 0001:00016bc7       ?do_get@?$num_get@GV?$istreambuf_iterator@GU?$char_traits@G@std@@@std@@@std@@MBE?AV?$istreambuf_iterator@GU?$char_traits@G@std@@@2@V32@0AAVios_base@2@AAHAAJ@Z 00417bc7 f i libcpmt:wlocale.obj
 0001:00016c72       ?do_get@?$num_get@GV?$istreambuf_iterator@GU?$char_traits@G@std@@@std@@@std@@MBE?AV?$istreambuf_iterator@GU?$char_traits@G@std@@@2@V32@0AAVios_base@2@AAHAAK@Z 00417c72 f i libcpmt:wlocale.obj
 0001:00016d1d       ?do_get@?$num_get@GV?$istreambuf_iterator@GU?$char_traits@G@std@@@std@@@std@@MBE?AV?$istreambuf_iterator@GU?$char_traits@G@std@@@2@V32@0AAVios_base@2@AAHAA_J@Z 00417d1d f i libcpmt:wlocale.obj
 0001:00016dc0       ?do_get@?$num_get@GV?$istreambuf_iterator@GU?$char_traits@G@std@@@std@@@std@@MBE?AV?$istreambuf_iterator@GU?$char_traits@G@std@@@2@V32@0AAVios_base@2@AAHAA_K@Z 00417dc0 f i libcpmt:wlocale.obj
 0001:00016e63       ?do_get@?$num_get@GV?$istreambuf_iterator@GU?$char_traits@G@std@@@std@@@std@@MBE?AV?$istreambuf_iterator@GU?$char_traits@G@std@@@2@V32@0AAVios_base@2@AAHAAM@Z 00417e63 f i libcpmt:wlocale.obj
 0001:00016f08       ?do_get@?$num_get@GV?$istreambuf_iterator@GU?$char_traits@G@std@@@std@@@std@@MBE?AV?$istreambuf_iterator@GU?$char_traits@G@std@@@2@V32@0AAVios_base@2@AAHAAN@Z 00417f08 f i libcpmt:wlocale.obj
 0001:00016fad       ?do_get@?$num_get@GV?$istreambuf_iterator@GU?$char_traits@G@std@@@std@@@std@@MBE?AV?$istreambuf_iterator@GU?$char_traits@G@std@@@2@V32@0AAVios_base@2@AAHAAO@Z 00417fad f i libcpmt:wlocale.obj
 0001:00017052       ?do_get@?$num_get@GV?$istreambuf_iterator@GU?$char_traits@G@std@@@std@@@std@@MBE?AV?$istreambuf_iterator@GU?$char_traits@G@std@@@2@V32@0AAVios_base@2@AAHAAPAX@Z 00418052 f i libcpmt:wlocale.obj
 0001:00017109       ?do_put@?$num_put@GV?$ostreambuf_iterator@GU?$char_traits@G@std@@@std@@@std@@MBE?AV?$ostreambuf_iterator@GU?$char_traits@G@std@@@2@V32@AAVios_base@2@GJ@Z 00418109 f i libcpmt:wlocale.obj
 0001:00017180       ?do_put@?$num_put@GV?$ostreambuf_iterator@GU?$char_traits@G@std@@@std@@@std@@MBE?AV?$ostreambuf_iterator@GU?$char_traits@G@std@@@2@V32@AAVios_base@2@GK@Z 00418180 f i libcpmt:wlocale.obj
 0001:000171f7       ?do_put@?$num_put@GV?$ostreambuf_iterator@GU?$char_traits@G@std@@@std@@@std@@MBE?AV?$ostreambuf_iterator@GU?$char_traits@G@std@@@2@V32@AAVios_base@2@G_J@Z 004181f7 f i libcpmt:wlocale.obj
 0001:00017271       ?do_put@?$num_put@GV?$ostreambuf_iterator@GU?$char_traits@G@std@@@std@@@std@@MBE?AV?$ostreambuf_iterator@GU?$char_traits@G@std@@@2@V32@AAVios_base@2@G_K@Z 00418271 f i libcpmt:wlocale.obj
 0001:000172eb       ?do_put@?$num_put@GV?$ostreambuf_iterator@GU?$char_traits@G@std@@@std@@@std@@MBE?AV?$ostreambuf_iterator@GU?$char_traits@G@std@@@2@V32@AAVios_base@2@GN@Z 004182eb f i libcpmt:wlocale.obj
 0001:00017450       ?do_put@?$num_put@GV?$ostreambuf_iterator@GU?$char_traits@G@std@@@std@@@std@@MBE?AV?$ostreambuf_iterator@GU?$char_traits@G@std@@@2@V32@AAVios_base@2@GO@Z 00418450 f i libcpmt:wlocale.obj
 0001:000175ad       ?do_put@?$num_put@GV?$ostreambuf_iterator@GU?$char_traits@G@std@@@std@@@std@@MBE?AV?$ostreambuf_iterator@GU?$char_traits@G@std@@@2@V32@AAVios_base@2@GPBX@Z 004185ad f i libcpmt:wlocale.obj
 0001:00017613       ?_Getmfld@?$money_get@_WV?$istreambuf_iterator@_WU?$char_traits@_W@std@@@std@@@std@@ABE?AV?$basic_string@_WU?$char_traits@_W@std@@V?$allocator@_W@2@@2@AAV?$istreambuf_iterator@_WU?$char_traits@_W@std@@@2@0_NAAVios_base@2@@Z 00418613 f i libcpmt:wlocale.obj
 0001:00017e13       ?_Putmfld@?$money_put@_WV?$ostreambuf_iterator@_WU?$char_traits@_W@std@@@std@@@std@@ABE?AV?$ostreambuf_iterator@_WU?$char_traits@_W@std@@@2@V32@_NAAVios_base@2@_W1V?$basic_string@_WU?$char_traits@_W@std@@V?$allocator@_W@2@@2@@Z 00418e13 f i libcpmt:wlocale.obj
 0001:000183ad       ?_Getmfld@?$money_get@GV?$istreambuf_iterator@GU?$char_traits@G@std@@@std@@@std@@ABE?AV?$basic_string@GU?$char_traits@G@std@@V?$allocator@G@2@@2@AAV?$istreambuf_iterator@GU?$char_traits@G@std@@@2@0_NAAVios_base@2@@Z 004193ad f i libcpmt:wlocale.obj
 0001:00018bad       ?_Putmfld@?$money_put@GV?$ostreambuf_iterator@GU?$char_traits@G@std@@@std@@@std@@ABE?AV?$ostreambuf_iterator@GU?$char_traits@G@std@@@2@V32@_NAAVios_base@2@G1V?$basic_string@GU?$char_traits@G@std@@V?$allocator@G@2@@2@@Z 00419bad f i libcpmt:wlocale.obj
 0001:00019147       ?do_get@?$money_get@_WV?$istreambuf_iterator@_WU?$char_traits@_W@std@@@std@@@std@@MBE?AV?$istreambuf_iterator@_WU?$char_traits@_W@std@@@2@V32@0_NAAVios_base@2@AAHAAO@Z 0041a147 f i libcpmt:wlocale.obj
 0001:0001929c       ?do_get@?$money_get@_WV?$istreambuf_iterator@_WU?$char_traits@_W@std@@@std@@@std@@MBE?AV?$istreambuf_iterator@_WU?$char_traits@_W@std@@@2@V32@0_NAAVios_base@2@AAHAAV?$basic_string@_WU?$char_traits@_W@std@@V?$allocator@_W@2@@2@@Z 0041a29c f i libcpmt:wlocale.obj
 0001:00019318       ?do_put@?$money_put@_WV?$ostreambuf_iterator@_WU?$char_traits@_W@std@@@std@@@std@@MBE?AV?$ostreambuf_iterator@_WU?$char_traits@_W@std@@@2@V32@_NAAVios_base@2@_WO@Z 0041a318 f i libcpmt:wlocale.obj
 0001:00019446       ?do_put@?$money_put@_WV?$ostreambuf_iterator@_WU?$char_traits@_W@std@@@std@@@std@@MBE?AV?$ostreambuf_iterator@_WU?$char_traits@_W@std@@@2@V32@_NAAVios_base@2@_WABV?$basic_string@_WU?$char_traits@_W@std@@V?$allocator@_W@2@@2@@Z 0041a446 f i libcpmt:wlocale.obj
 0001:00019521       ?do_get@?$money_get@GV?$istreambuf_iterator@GU?$char_traits@G@std@@@std@@@std@@MBE?AV?$istreambuf_iterator@GU?$char_traits@G@std@@@2@V32@0_NAAVios_base@2@AAHAAO@Z 0041a521 f i libcpmt:wlocale.obj
 0001:00019676       ?do_get@?$money_get@GV?$istreambuf_iterator@GU?$char_traits@G@std@@@std@@@std@@MBE?AV?$istreambuf_iterator@GU?$char_traits@G@std@@@2@V32@0_NAAVios_base@2@AAHAAV?$basic_string@GU?$char_traits@G@std@@V?$allocator@G@2@@2@@Z 0041a676 f i libcpmt:wlocale.obj
 0001:000196f2       ?do_put@?$money_put@GV?$ostreambuf_iterator@GU?$char_traits@G@std@@@std@@@std@@MBE?AV?$ostreambuf_iterator@GU?$char_traits@G@std@@@2@V32@_NAAVios_base@2@GO@Z 0041a6f2 f i libcpmt:wlocale.obj
 0001:00019820       ?do_put@?$money_put@GV?$ostreambuf_iterator@GU?$char_traits@G@std@@@std@@@std@@MBE?AV?$ostreambuf_iterator@GU?$char_traits@G@std@@@2@V32@_NAAVios_base@2@GABV?$basic_string@GU?$char_traits@G@std@@V?$allocator@G@2@@2@@Z 0041a820 f i libcpmt:wlocale.obj
 0001:000198fb       ?_Init@?$collate@D@std@@IAEXABV_Locinfo@2@@Z 0041a8fb f i libcpmt:xlocale.obj
 0001:0001990d       ?_Init@?$messages@D@std@@IAEXABV_Locinfo@2@@Z 0041a90d f i libcpmt:xlocale.obj
 0001:00019910       ?_Init@?$money_get@DV?$istreambuf_iterator@DU?$char_traits@D@std@@@std@@@std@@IAEXABV_Locinfo@2@@Z 0041a910 f i libcpmt:xlocale.obj
 0001:00019922       ?_Init@?$money_put@DV?$ostreambuf_iterator@DU?$char_traits@D@std@@@std@@@std@@IAEXABV_Locinfo@2@@Z 0041a922 f i libcpmt:xlocale.obj
 0001:00019934       ?_Tidy@?$_Mpunct@D@std@@AAEXXZ 0041a934 f i libcpmt:xlocale.obj
 0001:0001995c       ?_Tidy@?$time_get@DV?$istreambuf_iterator@DU?$char_traits@D@std@@@std@@@std@@AAEXXZ 0041a95c f i libcpmt:xlocale.obj
 0001:00019973       ?_Init@?$time_put@DV?$ostreambuf_iterator@DU?$char_traits@D@std@@@std@@@std@@IAEXABV_Locinfo@2@@Z 0041a973 f i libcpmt:xlocale.obj
 0001:000199a6       ?_Makpat@?$_Mpunct@D@std@@AAEXAAUpattern@money_base@2@III@Z 0041a9a6 f i libcpmt:xlocale.obj
 0001:000199f0       ??0?$collate@D@std@@QAE@ABV_Locinfo@1@I@Z 0041a9f0 f i libcpmt:xlocale.obj
 0001:00019a11       ??$_LStrcoll@D@std@@YAHPBD000PBU_Collvec@@@Z 0041aa11 f i libcpmt:xlocale.obj
 0001:00019a1a       ??$_LStrxfrm@D@std@@YAIPAD0PBD1PBU_Collvec@@@Z 0041aa1a f i libcpmt:xlocale.obj
 0001:00019a23       ??1?$collate@D@std@@MAE@XZ 0041aa23 f i libcpmt:xlocale.obj
 0001:00019a2a       ?do_compare@?$collate@D@std@@MBEHPBD000@Z 0041aa2a f i libcpmt:xlocale.obj
 0001:00019a49       ?do_hash@?$collate@D@std@@MBEJPBD0@Z 0041aa49 f i libcpmt:xlocale.obj
 0001:00019a63       ??_G?$collate@D@std@@MAEPAXI@Z 0041aa63 f i libcpmt:xlocale.obj
 0001:00019a63       ??_E?$collate@D@std@@MAEPAXI@Z 0041aa63 f i libcpmt:xlocale.obj
 0001:00019a80       ??0?$messages@D@std@@QAE@ABV_Locinfo@1@I@Z 0041aa80 f i libcpmt:xlocale.obj
 0001:00019a92       ??1?$messages@D@std@@MAE@XZ 0041aa92 f i libcpmt:xlocale.obj
 0001:00019a99       ?do_open@?$messages@D@std@@MBEHABV?$basic_string@DU?$char_traits@D@std@@V?$allocator@D@2@@2@ABVlocale@2@@Z 0041aa99 f i libcpmt:xlocale.obj
 0001:00019a9f       ?do_close@?$messages@D@std@@MBEXH@Z 0041aa9f f i libcpmt:xlocale.obj
 0001:00019aa2       ??_G?$messages@D@std@@MAEPAXI@Z 0041aaa2 f i libcpmt:xlocale.obj
 0001:00019aa2       ??_E?$messages@D@std@@MAEPAXI@Z 0041aaa2 f i libcpmt:xlocale.obj
 0001:00019abf       ??0?$money_get@DV?$istreambuf_iterator@DU?$char_traits@D@std@@@std@@@std@@QAE@ABV_Locinfo@1@I@Z 0041aabf f i libcpmt:xlocale.obj
 0001:00019ae0       ??1?$money_get@DV?$istreambuf_iterator@DU?$char_traits@D@std@@@std@@@std@@MAE@XZ 0041aae0 f i libcpmt:xlocale.obj
 0001:00019ae7       ??_E?$money_get@DV?$istreambuf_iterator@DU?$char_traits@D@std@@@std@@@std@@MAEPAXI@Z 0041aae7 f i libcpmt:xlocale.obj
 0001:00019ae7       ??_G?$money_get@DV?$istreambuf_iterator@DU?$char_traits@D@std@@@std@@@std@@MAEPAXI@Z 0041aae7 f i libcpmt:xlocale.obj
 0001:00019b04       ?decimal_point@?$_Mpunct@D@std@@QBEDXZ 0041ab04 f i libcpmt:xlocale.obj
 0001:00019b09       ?thousands_sep@?$_Mpunct@D@std@@QBEDXZ 0041ab09 f i libcpmt:xlocale.obj
 0001:00019b0e       ?frac_digits@?$_Mpunct@D@std@@QBEHXZ 0041ab0e f i libcpmt:xlocale.obj
 0001:00019b13       ?neg_format@?$_Mpunct@D@std@@QBE?AUpattern@money_base@2@XZ 0041ab13 f i libcpmt:xlocale.obj
 0001:00019b23       ??8?$_String_const_iterator@DU?$char_traits@D@std@@V?$allocator@D@2@@std@@QBE_NABV01@@Z 0041ab23 f i libcpmt:xlocale.obj
 0001:00019b4f       ??0?$money_put@DV?$ostreambuf_iterator@DU?$char_traits@D@std@@@std@@@std@@QAE@ABV_Locinfo@1@I@Z 0041ab4f f i libcpmt:xlocale.obj
 0001:00019b70       ??1?$money_put@DV?$ostreambuf_iterator@DU?$char_traits@D@std@@@std@@@std@@MAE@XZ 0041ab70 f i libcpmt:xlocale.obj
 0001:00019b77       ??_G?$money_put@DV?$ostreambuf_iterator@DU?$char_traits@D@std@@@std@@@std@@MAEPAXI@Z 0041ab77 f i libcpmt:xlocale.obj
 0001:00019b77       ??_E?$money_put@DV?$ostreambuf_iterator@DU?$char_traits@D@std@@@std@@@std@@MAEPAXI@Z 0041ab77 f i libcpmt:xlocale.obj
 0001:00019b94       ?pos_format@?$_Mpunct@D@std@@QBE?AUpattern@money_base@2@XZ 0041ab94 f i libcpmt:xlocale.obj
 0001:00019ba4       ??E?$ostreambuf_iterator@DU?$char_traits@D@std@@@std@@QAEAAV01@H@Z 0041aba4 f i libcpmt:xlocale.obj
 0001:00019ba9       ??1?$_Mpunct@D@std@@MAE@XZ 0041aba9 f i libcpmt:xlocale.obj
 0001:00019bbf       ?do_decimal_point@?$_Mpunct@D@std@@MBEDXZ 0041abbf f i libcpmt:xlocale.obj
 0001:00019bc3       ?do_thousands_sep@?$_Mpunct@D@std@@MBEDXZ 0041abc3 f i libcpmt:xlocale.obj
 0001:00019bc7       ?do_frac_digits@?$_Mpunct@D@std@@MBEHXZ 0041abc7 f i libcpmt:xlocale.obj
 0001:00019bcb       ?do_pos_format@?$_Mpunct@D@std@@MBE?AUpattern@money_base@2@XZ 0041abcb f i libcpmt:xlocale.obj
 0001:00019bd7       ?do_neg_format@?$_Mpunct@D@std@@MBE?AUpattern@money_base@2@XZ 0041abd7 f i libcpmt:xlocale.obj
 0001:00019be3       ??0?$time_put@DV?$ostreambuf_iterator@DU?$char_traits@D@std@@@std@@@std@@QAE@ABV_Locinfo@1@I@Z 0041abe3 f i libcpmt:xlocale.obj
 0001:00019c06       ??1?$time_put@DV?$ostreambuf_iterator@DU?$char_traits@D@std@@@std@@@std@@MAE@XZ 0041ac06 f i libcpmt:xlocale.obj
 0001:00019c20       ??_E?$time_put@DV?$ostreambuf_iterator@DU?$char_traits@D@std@@@std@@@std@@MAEPAXI@Z 0041ac20 f i libcpmt:xlocale.obj
 0001:00019c20       ??_G?$time_put@DV?$ostreambuf_iterator@DU?$char_traits@D@std@@@std@@@std@@MAEPAXI@Z 0041ac20 f i libcpmt:xlocale.obj
 0001:00019c3c       ??_G?$_Mpunct@D@std@@MAEPAXI@Z 0041ac3c f i libcpmt:xlocale.obj
 0001:00019c3c       ??_E?$_Mpunct@D@std@@MAEPAXI@Z 0041ac3c f i libcpmt:xlocale.obj
 0001:00019c58       ??E?$_String_const_iterator@DU?$char_traits@D@std@@V?$allocator@D@2@@std@@QAEAAV01@XZ 0041ac58 f i libcpmt:xlocale.obj
 0001:00019c91       ?_Put@?$money_put@DV?$ostreambuf_iterator@DU?$char_traits@D@std@@@std@@@std@@CA?AV?$ostreambuf_iterator@DU?$char_traits@D@std@@@2@V32@V?$_String_const_iterator@DU?$char_traits@D@std@@V?$allocator@D@2@@2@I@Z 0041ac91 f i libcpmt:xlocale.obj
 0001:00019ccc       ?_Rep@?$money_put@DV?$ostreambuf_iterator@DU?$char_traits@D@std@@@std@@@std@@CA?AV?$ostreambuf_iterator@DU?$char_traits@D@std@@@2@V32@DI@Z 0041accc f i libcpmt:xlocale.obj
 0001:00019cf6       ?_Init@?$_Mpunct@D@std@@IAEXABV_Locinfo@2@@Z 0041acf6 f i libcpmt:xlocale.obj
 0001:00019e12       ??0?$_String_const_iterator@DU?$char_traits@D@std@@V?$allocator@D@2@@std@@QAE@XZ 0041ae12 f i libcpmt:xlocale.obj
 0001:00019e1c       ??9?$_String_const_iterator@DU?$char_traits@D@std@@V?$allocator@D@2@@std@@QBE_NABV01@@Z 0041ae1c f i libcpmt:xlocale.obj
 0001:00019e2d       ??Z?$_String_iterator@DU?$char_traits@D@std@@V?$allocator@D@2@@std@@QAEAAV01@H@Z 0041ae2d f i libcpmt:xlocale.obj
 0001:00019e42       ??0?$_Mpunct@D@std@@QAE@ABV_Locinfo@1@I_N@Z 0041ae42 f i libcpmt:xlocale.obj
 0001:00019e7b       ?end@?$basic_string@DU?$char_traits@D@std@@V?$allocator@D@2@@std@@QAE?AV?$_String_iterator@DU?$char_traits@D@std@@V?$allocator@D@2@@2@XZ 0041ae7b f i libcpmt:xlocale.obj
 0001:00019ea0       ??G?$_String_iterator@DU?$char_traits@D@std@@V?$allocator@D@2@@std@@QBE?AV01@H@Z 0041aea0 f i libcpmt:xlocale.obj
 0001:00019ed0       ??0?$moneypunct@D$0A@@std@@QAE@ABV_Locinfo@1@I@Z 0041aed0 f i libcpmt:xlocale.obj
 0001:00019eee       ??1?$moneypunct@D$0A@@std@@MAE@XZ 0041aeee f i libcpmt:xlocale.obj
 0001:00019ef9       ??_E?$moneypunct@D$0A@@std@@MAEPAXI@Z 0041aef9 f i libcpmt:xlocale.obj
 0001:00019ef9       ??_G?$moneypunct@D$0A@@std@@MAEPAXI@Z 0041aef9 f i libcpmt:xlocale.obj
 0001:00019f1b       ??0?$moneypunct@D$00@std@@QAE@ABV_Locinfo@1@I@Z 0041af1b f i libcpmt:xlocale.obj
 0001:00019f39       ??1?$moneypunct@D$00@std@@MAE@XZ 0041af39 f i libcpmt:xlocale.obj
 0001:00019f44       ??_G?$moneypunct@D$00@std@@MAEPAXI@Z 0041af44 f i libcpmt:xlocale.obj
 0001:00019f44       ??_E?$moneypunct@D$00@std@@MAEPAXI@Z 0041af44 f i libcpmt:xlocale.obj
 0001:00019f66       ?grouping@?$_Mpunct@D@std@@QBE?AV?$basic_string@DU?$char_traits@D@std@@V?$allocator@D@2@@2@XZ 0041af66 f i libcpmt:xlocale.obj
 0001:00019f7d       ?curr_symbol@?$_Mpunct@D@std@@QBE?AV?$basic_string@DU?$char_traits@D@std@@V?$allocator@D@2@@2@XZ 0041af7d f i libcpmt:xlocale.obj
 0001:00019f94       ?positive_sign@?$_Mpunct@D@std@@QBE?AV?$basic_string@DU?$char_traits@D@std@@V?$allocator@D@2@@2@XZ 0041af94 f i libcpmt:xlocale.obj
 0001:00019fab       ?negative_sign@?$_Mpunct@D@std@@QBE?AV?$basic_string@DU?$char_traits@D@std@@V?$allocator@D@2@@2@XZ 0041afab f i libcpmt:xlocale.obj
 0001:00019fc2       ?resize@?$basic_string@DU?$char_traits@D@std@@V?$allocator@D@2@@std@@QAEXID@Z 0041afc2 f i libcpmt:xlocale.obj
 0001:00019fe6       ?do_get@?$messages@D@std@@MBE?AV?$basic_string@DU?$char_traits@D@std@@V?$allocator@D@2@@2@HHHABV32@@Z 0041afe6 f i libcpmt:xlocale.obj
 0001:0001a000       ?do_put@?$time_put@DV?$ostreambuf_iterator@DU?$char_traits@D@std@@@std@@@std@@MBE?AV?$ostreambuf_iterator@DU?$char_traits@D@std@@@2@V32@AAVios_base@2@DPBUtm@@DD@Z 0041b000 f i libcpmt:xlocale.obj
 0001:0001a0f5       ??0?$basic_string@DU?$char_traits@D@std@@V?$allocator@D@2@@std@@QAE@PBDI@Z 0041b0f5 f i libcpmt:xlocale.obj
 0001:0001a11b       ?resize@?$basic_string@DU?$char_traits@D@std@@V?$allocator@D@2@@std@@QAEXI@Z 0041b11b f i libcpmt:xlocale.obj
 0001:0001a129       ?do_transform@?$collate@D@std@@MBE?AV?$basic_string@DU?$char_traits@D@std@@V?$allocator@D@2@@2@PBD0@Z 0041b129 f i libcpmt:xlocale.obj
 0001:0001a1d4       ?do_grouping@?$_Mpunct@D@std@@MBE?AV?$basic_string@DU?$char_traits@D@std@@V?$allocator@D@2@@2@XZ 0041b1d4 f i libcpmt:xlocale.obj
 0001:0001a1ee       ?do_curr_symbol@?$_Mpunct@D@std@@MBE?AV?$basic_string@DU?$char_traits@D@std@@V?$allocator@D@2@@2@XZ 0041b1ee f i libcpmt:xlocale.obj
 0001:0001a208       ?do_positive_sign@?$_Mpunct@D@std@@MBE?AV?$basic_string@DU?$char_traits@D@std@@V?$allocator@D@2@@2@XZ 0041b208 f i libcpmt:xlocale.obj
 0001:0001a222       ?do_negative_sign@?$_Mpunct@D@std@@MBE?AV?$basic_string@DU?$char_traits@D@std@@V?$allocator@D@2@@2@XZ 0041b222 f i libcpmt:xlocale.obj
 0001:0001a23c       ??0?$collate@D@std@@QAE@I@Z 0041b23c f i libcpmt:xlocale.obj
 0001:0001a290       ??0?$messages@D@std@@QAE@I@Z 0041b290 f i libcpmt:xlocale.obj
 0001:0001a2d9       ??0?$money_get@DV?$istreambuf_iterator@DU?$char_traits@D@std@@@std@@@std@@QAE@I@Z 0041b2d9 f i libcpmt:xlocale.obj
 0001:0001a32d       ??0?$money_put@DV?$ostreambuf_iterator@DU?$char_traits@D@std@@@std@@@std@@QAE@I@Z 0041b32d f i libcpmt:xlocale.obj
 0001:0001a381       ?_Init@?$time_get@DV?$istreambuf_iterator@DU?$char_traits@D@std@@@std@@@std@@IAEXABV_Locinfo@2@@Z 0041b381 f i libcpmt:xlocale.obj
 0001:0001a3f8       ??0?$time_put@DV?$ostreambuf_iterator@DU?$char_traits@D@std@@@std@@@std@@QAE@I@Z 0041b3f8 f i libcpmt:xlocale.obj
 0001:0001a457       ??0?$_Mpunct@D@std@@QAE@I_N@Z 0041b457 f i libcpmt:xlocale.obj
 0001:0001a4bc       ?_Getcat@?$collate@D@std@@SAIPAPBVfacet@locale@2@@Z 0041b4bc f i libcpmt:xlocale.obj
 0001:0001a4ff       ?_Getcat@?$messages@D@std@@SAIPAPBVfacet@locale@2@@Z 0041b4ff f i libcpmt:xlocale.obj
 0001:0001a542       ?_Getcat@?$money_get@DV?$istreambuf_iterator@DU?$char_traits@D@std@@@std@@@std@@SAIPAPBVfacet@locale@2@@Z 0041b542 f i libcpmt:xlocale.obj
 0001:0001a585       ?_Getcat@?$money_put@DV?$ostreambuf_iterator@DU?$char_traits@D@std@@@std@@@std@@SAIPAPBVfacet@locale@2@@Z 0041b585 f i libcpmt:xlocale.obj
 0001:0001a5c8       ??0?$time_get@DV?$istreambuf_iterator@DU?$char_traits@D@std@@@std@@@std@@QAE@ABV_Locinfo@1@I@Z 0041b5c8 f i libcpmt:xlocale.obj
 0001:0001a5fb       ?do_date_order@?$time_get@DV?$istreambuf_iterator@DU?$char_traits@D@std@@@std@@@std@@MBE?AW4dateorder@time_base@2@XZ 0041b5fb f i libcpmt:xlocale.obj
 0001:0001a5ff       ?date_order@?$time_get@DV?$istreambuf_iterator@DU?$char_traits@D@std@@@std@@@std@@QBE?AW4dateorder@time_base@2@XZ 0041b5ff f i libcpmt:xlocale.obj
 0001:0001a604       ?get_monthname@?$time_get@DV?$istreambuf_iterator@DU?$char_traits@D@std@@@std@@@std@@QBE?AV?$istreambuf_iterator@DU?$char_traits@D@std@@@2@V32@0AAVios_base@2@AAHPAUtm@@@Z 0041b604 f i libcpmt:xlocale.obj
 0001:0001a639       ?get_year@?$time_get@DV?$istreambuf_iterator@DU?$char_traits@D@std@@@std@@@std@@QBE?AV?$istreambuf_iterator@DU?$char_traits@D@std@@@2@V32@0AAVios_base@2@AAHPAUtm@@@Z 0041b639 f i libcpmt:xlocale.obj
 0001:0001a66e       ??1?$time_get@DV?$istreambuf_iterator@DU?$char_traits@D@std@@@std@@@std@@MAE@XZ 0041b66e f i libcpmt:xlocale.obj
 0001:0001a684       ??_G?$time_get@DV?$istreambuf_iterator@DU?$char_traits@D@std@@@std@@@std@@MAEPAXI@Z 0041b684 f i libcpmt:xlocale.obj
 0001:0001a684       ??_E?$time_get@DV?$istreambuf_iterator@DU?$char_traits@D@std@@@std@@@std@@MAEPAXI@Z 0041b684 f i libcpmt:xlocale.obj
 0001:0001a6a0       ?_Getint@?$time_get@DV?$istreambuf_iterator@DU?$char_traits@D@std@@@std@@@std@@ABAHAAV?$istreambuf_iterator@DU?$char_traits@D@std@@@2@0HHAAH@Z 0041b6a0 f i libcpmt:xlocale.obj
 0001:0001a7e6       ?do_get_time@?$time_get@DV?$istreambuf_iterator@DU?$char_traits@D@std@@@std@@@std@@MBE?AV?$istreambuf_iterator@DU?$char_traits@D@std@@@2@V32@0AAVios_base@2@AAHPAUtm@@@Z 0041b7e6 f i libcpmt:xlocale.obj
 0001:0001a89f       ?do_get_date@?$time_get@DV?$istreambuf_iterator@DU?$char_traits@D@std@@@std@@@std@@MBE?AV?$istreambuf_iterator@DU?$char_traits@D@std@@@2@V32@0AAVios_base@2@AAHPAUtm@@@Z 0041b89f f i libcpmt:xlocale.obj
 0001:0001ac94       ?do_get_year@?$time_get@DV?$istreambuf_iterator@DU?$char_traits@D@std@@@std@@@std@@MBE?AV?$istreambuf_iterator@DU?$char_traits@D@std@@@2@V32@0AAVios_base@2@AAHPAUtm@@@Z 0041bc94 f i libcpmt:xlocale.obj
 0001:0001ad01       ?do_get_weekday@?$time_get@DV?$istreambuf_iterator@DU?$char_traits@D@std@@@std@@@std@@MBE?AV?$istreambuf_iterator@DU?$char_traits@D@std@@@2@V32@0AAVios_base@2@AAHPAUtm@@@Z 0041bd01 f i libcpmt:xlocale.obj
 0001:0001ad40       ?do_get_monthname@?$time_get@DV?$istreambuf_iterator@DU?$char_traits@D@std@@@std@@@std@@MBE?AV?$istreambuf_iterator@DU?$char_traits@D@std@@@2@V32@0AAVios_base@2@AAHPAUtm@@@Z 0041bd40 f i libcpmt:xlocale.obj
 0001:0001ad7f       ?_Getcat@?$time_put@DV?$ostreambuf_iterator@DU?$char_traits@D@std@@@std@@@std@@SAIPAPBVfacet@locale@2@@Z 0041bd7f f i libcpmt:xlocale.obj
 0001:0001adc2       ??0?$moneypunct@D$0A@@std@@QAE@I@Z 0041bdc2 f i libcpmt:xlocale.obj
 0001:0001addc       ??0?$moneypunct@D$00@std@@QAE@I@Z 0041bddc f i libcpmt:xlocale.obj
 0001:0001adf6       ??0?$time_get@DV?$istreambuf_iterator@DU?$char_traits@D@std@@@std@@@std@@QAE@I@Z 0041bdf6 f i libcpmt:xlocale.obj
 0001:0001ae55       ??$use_facet@V?$collate@D@std@@@std@@YAABV?$collate@D@0@ABVlocale@0@@Z 0041be55 f i libcpmt:xlocale.obj
 0001:0001aeee       ??$use_facet@V?$messages@D@std@@@std@@YAABV?$messages@D@0@ABVlocale@0@@Z 0041beee f i libcpmt:xlocale.obj
 0001:0001af87       ??$use_facet@V?$money_get@DV?$istreambuf_iterator@DU?$char_traits@D@std@@@std@@@std@@@std@@YAABV?$money_get@DV?$istreambuf_iterator@DU?$char_traits@D@std@@@std@@@0@ABVlocale@0@@Z 0041bf87 f i libcpmt:xlocale.obj
 0001:0001b020       ??$use_facet@V?$money_put@DV?$ostreambuf_iterator@DU?$char_traits@D@std@@@std@@@std@@@std@@YAABV?$money_put@DV?$ostreambuf_iterator@DU?$char_traits@D@std@@@std@@@0@ABVlocale@0@@Z 0041c020 f i libcpmt:xlocale.obj
 0001:0001b0b9       ??$use_facet@V?$time_put@DV?$ostreambuf_iterator@DU?$char_traits@D@std@@@std@@@std@@@std@@YAABV?$time_put@DV?$ostreambuf_iterator@DU?$char_traits@D@std@@@std@@@0@ABVlocale@0@@Z 0041c0b9 f i libcpmt:xlocale.obj
 0001:0001b152       ?_Getcat@?$moneypunct@D$0A@@std@@SAIPAPBVfacet@locale@2@@Z 0041c152 f i libcpmt:xlocale.obj
 0001:0001b195       ?_Getcat@?$moneypunct@D$00@std@@SAIPAPBVfacet@locale@2@@Z 0041c195 f i libcpmt:xlocale.obj
 0001:0001b1d8       ?_Getcat@?$time_get@DV?$istreambuf_iterator@DU?$char_traits@D@std@@@std@@@std@@SAIPAPBVfacet@locale@2@@Z 0041c1d8 f i libcpmt:xlocale.obj
 0001:0001b21b       ??$use_facet@V?$moneypunct@D$0A@@std@@@std@@YAABV?$moneypunct@D$0A@@0@ABVlocale@0@@Z 0041c21b f i libcpmt:xlocale.obj
 0001:0001b2b4       ??$use_facet@V?$moneypunct@D$00@std@@@std@@YAABV?$moneypunct@D$00@0@ABVlocale@0@@Z 0041c2b4 f i libcpmt:xlocale.obj
 0001:0001b34d       ??$use_facet@V?$time_get@DV?$istreambuf_iterator@DU?$char_traits@D@std@@@std@@@std@@@std@@YAABV?$time_get@DV?$istreambuf_iterator@DU?$char_traits@D@std@@@std@@@0@ABVlocale@0@@Z 0041c34d f i libcpmt:xlocale.obj
 0001:0001b3e6       ?_Makexloc@_Locimp@locale@std@@CAXABV_Locinfo@3@HPAV123@PBV23@@Z 0041c3e6 f   libcpmt:xlocale.obj
 0001:0001b72c       ?_Getmfld@?$money_get@DV?$istreambuf_iterator@DU?$char_traits@D@std@@@std@@@std@@ABE?AV?$basic_string@DU?$char_traits@D@std@@V?$allocator@D@2@@2@AAV?$istreambuf_iterator@DU?$char_traits@D@std@@@2@0_NAAVios_base@2@@Z 0041c72c f i libcpmt:xlocale.obj
 0001:0001bebe       ?_Putmfld@?$money_put@DV?$ostreambuf_iterator@DU?$char_traits@D@std@@@std@@@std@@ABE?AV?$ostreambuf_iterator@DU?$char_traits@D@std@@@2@V32@_NAAVios_base@2@D1V?$basic_string@DU?$char_traits@D@std@@V?$allocator@D@2@@2@@Z 0041cebe f i libcpmt:xlocale.obj
 0001:0001c44d       ?do_get@?$money_get@DV?$istreambuf_iterator@DU?$char_traits@D@std@@@std@@@std@@MBE?AV?$istreambuf_iterator@DU?$char_traits@D@std@@@2@V32@0_NAAVios_base@2@AAHAAO@Z 0041d44d f i libcpmt:xlocale.obj
 0001:0001c574       ?do_get@?$money_get@DV?$istreambuf_iterator@DU?$char_traits@D@std@@@std@@@std@@MBE?AV?$istreambuf_iterator@DU?$char_traits@D@std@@@2@V32@0_NAAVios_base@2@AAHAAV?$basic_string@DU?$char_traits@D@std@@V?$allocator@D@2@@2@@Z 0041d574 f i libcpmt:xlocale.obj
 0001:0001c5f0       ?do_put@?$money_put@DV?$ostreambuf_iterator@DU?$char_traits@D@std@@@std@@@std@@MBE?AV?$ostreambuf_iterator@DU?$char_traits@D@std@@@2@V32@_NAAVios_base@2@DO@Z 0041d5f0 f i libcpmt:xlocale.obj
 0001:0001c6fb       ?do_put@?$money_put@DV?$ostreambuf_iterator@DU?$char_traits@D@std@@@std@@@std@@MBE?AV?$ostreambuf_iterator@DU?$char_traits@D@std@@@2@V32@_NAAVios_base@2@DABV?$basic_string@DU?$char_traits@D@std@@V?$allocator@D@2@@2@@Z 0041d6fb f i libcpmt:xlocale.obj
 0001:0001c7a5       __Stoulx                   0041d7a5 f   libcpmt:xstoul.obj
 0001:0001c93b       __Stoul                    0041d93b f   libcpmt:xstoul.obj
 0001:0001c952       __Stolx                    0041d952 f   libcpmt:xstol.obj
 0001:0001c9f5       ___Stofx                   0041d9f5 f   libcpmt:xstof.obj
 0001:0001cb20       __Stofx                    0041db20 f   libcpmt:xstof.obj
 0001:0001cb40       __Stof                     0041db40 f   libcpmt:xstof.obj
 0001:0001cb5d       ___Stodx                   0041db5d f   libcpmt:xstod.obj
 0001:0001cc79       __Stodx                    0041dc79 f   libcpmt:xstod.obj
 0001:0001cce0       __Stod                     0041dce0 f   libcpmt:xstod.obj
 0001:0001ccfb       ___Stoldx                  0041dcfb f   libcpmt:xstold.obj
 0001:0001ce17       __Stoldx                   0041de17 f   libcpmt:xstold.obj
 0001:0001ce1c       __Stold                    0041de1c f   libcpmt:xstold.obj
 0001:0001ce71       __GetLocaleForCP           0041de71 f   libcpmt:xmbtowc.obj
 0001:0001cf54       __Mbrtowc                  0041df54 f   libcpmt:xmbtowc.obj
 0001:0001d0c5       __Strcoll                  0041e0c5 f   libcpmt:xstrcoll.obj
 0001:0001d156       __Getcoll                  0041e156 f   libcpmt:xstrcoll.obj
 0001:0001d16a       __Getdateorder             0041e16a f   libcpmt:xdateord.obj
 0001:0001d1b3       __Getwctype                0041e1b3 f   libcpmt:xgetwctype.obj
 0001:0001d1e0       __Getwctypes               0041e1e0 f   libcpmt:xgetwctype.obj
 0001:0001d20b       __Towlower                 0041e20b f   libcpmt:xtowlower.obj
 0001:0001d26f       __Towupper                 0041e26f f   libcpmt:xtowupper.obj
 0001:0001d2fb       __Wcscoll                  0041e2fb f   libcpmt:xwcscoll.obj
 0001:0001d3a7       __Wcsxfrm                  0041e3a7 f   libcpmt:xwcsxfrm.obj
 0001:0001d47e       __Strxfrm                  0041e47e f   libcpmt:xstrxfrm.obj
 0001:0001d528       __FDscale                  0041e528 f   libcpmt:xfdscale.obj
 0001:0001d6bc       __Stoxflt                  0041e6bc f   libcpmt:xstoxflt.obj
 0001:0001d952       __FDtentox                 0041e952 f   libcpmt:xfdtento.obj
 0001:0001da77       __Stoflt                   0041ea77 f   libcpmt:xstoflt.obj
 0001:0001dcc0       __Stopfx                   0041ecc0 f   libcpmt:xstopfx.obj
 0001:0001ddf7       __Dtentox                  0041edf7 f   libcpmt:xdtento.obj
 0001:0001df0f       __Dscale                   0041ef0f f   libcpmt:xdscale.obj
 0001:0001e18d       __LDtentox                 0041f18d f   libcpmt:xldtento.obj
 0001:0001e2a5       __LDscale                  0041f2a5 f   libcpmt:xldscale.obj
 0001:0001e2aa       __FDnorm                   0041f2aa f   libcpmt:xfdnorm.obj
 0001:0001e348       __FDunscale                0041f348 f   libcpmt:xfdunsca.obj
 0001:0001e3c3       __Dunscale                 0041f3c3 f   libcpmt:xdunscal.obj
 0001:0001e44e       __Dnorm                    0041f44e f   libcpmt:xdnorm.obj
 0001:0001e559       __LDunscale                0041f559 f   libcpmt:xldunsca.obj
 0001:0001e55e       ??0exception@std@@QAE@XZ   0041f55e f   LIBCMT:stdexcpt.obj
 0001:0001e56f       ??0exception@std@@QAE@ABQBD@Z 0041f56f f   LIBCMT:stdexcpt.obj
 0001:0001e5bd       ??0exception@std@@QAE@ABQBDH@Z 0041f5bd f   LIBCMT:stdexcpt.obj
 0001:0001e5d5       ??0exception@std@@QAE@ABV01@@Z 0041f5d5 f   LIBCMT:stdexcpt.obj
 0001:0001e62d       ??4exception@std@@QAEAAV01@ABV01@@Z 0041f62d f   LIBCMT:stdexcpt.obj
 0001:0001e683       ??1exception@std@@UAE@XZ   0041f683 f   LIBCMT:stdexcpt.obj
 0001:0001e699       ?what@exception@std@@UBEPBDXZ 0041f699 f   LIBCMT:stdexcpt.obj
 0001:0001e6a6       ??0bad_cast@std@@QAE@PBD@Z 0041f6a6 f   LIBCMT:stdexcpt.obj
 0001:0001e6bf       ??0bad_cast@std@@QAE@ABV01@@Z 0041f6bf f   LIBCMT:stdexcpt.obj
 0001:0001e6d7       ??1bad_cast@std@@UAE@XZ    0041f6d7 f   LIBCMT:stdexcpt.obj
 0001:0001e6e2       ??0bad_typeid@std@@QAE@PBD@Z 0041f6e2 f   LIBCMT:stdexcpt.obj
 0001:0001e6fb       ??0bad_typeid@std@@QAE@ABV01@@Z 0041f6fb f   LIBCMT:stdexcpt.obj
 0001:0001e713       ??1bad_typeid@std@@UAE@XZ  0041f713 f   LIBCMT:stdexcpt.obj
 0001:0001e71e       ??0__non_rtti_object@std@@QAE@PBD@Z 0041f71e f   LIBCMT:stdexcpt.obj
 0001:0001e736       ??0__non_rtti_object@std@@QAE@ABV01@@Z 0041f736 f   LIBCMT:stdexcpt.obj
 0001:0001e74e       ??1__non_rtti_object@std@@UAE@XZ 0041f74e f   LIBCMT:stdexcpt.obj
 0001:0001e759       ??_Eexception@std@@UAEPAXI@Z 0041f759 f i LIBCMT:stdexcpt.obj
 0001:0001e759       ??_Gexception@std@@UAEPAXI@Z 0041f759 f i LIBCMT:stdexcpt.obj
 0001:0001e775       ??_Gbad_cast@std@@UAEPAXI@Z 0041f775 f i LIBCMT:stdexcpt.obj
 0001:0001e775       ??_Ebad_cast@std@@UAEPAXI@Z 0041f775 f i LIBCMT:stdexcpt.obj
 0001:0001e797       ??_Ebad_typeid@std@@UAEPAXI@Z 0041f797 f i LIBCMT:stdexcpt.obj
 0001:0001e797       ??_Gbad_typeid@std@@UAEPAXI@Z 0041f797 f i LIBCMT:stdexcpt.obj
 0001:0001e7b9       ??_G__non_rtti_object@std@@UAEPAXI@Z 0041f7b9 f i LIBCMT:stdexcpt.obj
 0001:0001e7b9       ??_E__non_rtti_object@std@@UAEPAXI@Z 0041f7b9 f i LIBCMT:stdexcpt.obj
 0001:0001e7db       ??3@YAXPAX@Z               0041f7db f   LIBCMT:delete.obj
 0001:0001e7e0       _memcpy_s                  0041f7e0 f   LIBCMT:memcpy_s.obj
 0001:0001e860       _memchr                    0041f860 f   LIBCMT:memchr.obj
 0001:0001e90d       _memmove_s                 0041f90d f   LIBCMT:memmove_s.obj
 0001:0001e970       _memset                    0041f970 f   LIBCMT:memset.obj
 0001:0001e9ea       ??_V@YAXPAX@Z              0041f9ea f   LIBCMT:delete2.obj
 0001:0001e9ef       _free                      0041f9ef f   LIBCMT:free.obj
 0001:0001ea7d       __initp_misc_invarg        0041fa7d f   LIBCMT:invarg.obj
 0001:0001ea87       __invoke_watson            0041fa87 f   LIBCMT:invarg.obj
 0001:0001eb83       __set_invalid_parameter_handler 0041fb83 f   LIBCMT:invarg.obj
 0001:0001eba5       __get_invalid_parameter_handler 0041fba5 f   LIBCMT:invarg.obj
 0001:0001ebb2       ?_invoke_watson@@YAXPBG00II@Z 0041fbb2 f   LIBCMT:invarg.obj
 0001:0001ebbb       __invalid_parameter        0041fbbb f   LIBCMT:invarg.obj
 0001:0001ebdf       __invalid_parameter_noinfo 0041fbdf f   LIBCMT:invarg.obj
 0001:0001ebef       ?_invalid_parameter@@YAXPBG00II@Z 0041fbef f   LIBCMT:invarg.obj
 0001:0001ebf8       ??2@YAPAXI@Z               0041fbf8 f   LIBCMT:new.obj
 0001:0001ec62       __CxxThrowException@8      0041fc62 f   LIBCMT:throw.obj
 0001:0001ecac       ?name@type_info@@QBEPBDPAU__type_info_node@@@Z 0041fcac f   LIBCMT:typinfo.obj
 0001:0001ecbb       ??1type_info@@UAE@XZ       0041fcbb f   LIBCMT:typinfo.obj
 0001:0001ecc9       ??_Etype_info@@UAEPAXI@Z   0041fcc9 f i LIBCMT:typinfo.obj
 0001:0001ecc9       ??_Gtype_info@@UAEPAXI@Z   0041fcc9 f i LIBCMT:typinfo.obj
 0001:0001ece5       ?_name_internal_method@type_info@@QBEPBDPAU__type_info_node@@@Z 0041fce5 f   LIBCMT:typinfo.obj
 0001:0001ecf4       ?_type_info_dtor_internal_method@type_info@@QAEXXZ 0041fcf4 f   LIBCMT:typinfo.obj
 0001:0001ecfc       ??8type_info@@QBE_NABV0@@Z 0041fcfc f   LIBCMT:typinfo.obj
 0001:0001ed17       ??9type_info@@QBE_NABV0@@Z 0041fd17 f   LIBCMT:typinfo.obj
 0001:0001ed33       ?before@type_info@@QBEHABV1@@Z 0041fd33 f   LIBCMT:typinfo.obj
 0001:0001ed52       ?raw_name@type_info@@QBEPBDXZ 0041fd52 f   LIBCMT:typinfo.obj
 0001:0001ed56       ??0type_info@@AAE@ABV0@@Z  0041fd56 f   LIBCMT:typinfo.obj
 0001:0001ed61       ??4type_info@@AAEAAV0@ABV0@@Z 0041fd61 f   LIBCMT:typinfo.obj
 0001:0001ed66       ?_JumpToContinuation@@YGXPAXPAUEHRegistrationNode@@@Z 0041fd66 f   LIBCMT:trnsctrl.obj
 0001:0001ed96       ?_CallMemberFunction0@@YGXPAX0@Z 0041fd96 f   LIBCMT:trnsctrl.obj
 0001:0001ed9d       ?_CallMemberFunction1@@YGXPAX00@Z 0041fd9d f   LIBCMT:trnsctrl.obj
 0001:0001eda4       ?_CallMemberFunction2@@YGXPAX00H@Z 0041fda4 f   LIBCMT:trnsctrl.obj
 0001:0001edab       ?_UnwindNestedFrames@@YGXPAUEHRegistrationNode@@PAUEHExceptionRecord@@@Z 0041fdab f   LIBCMT:trnsctrl.obj
 0001:0001edfd       ___CxxFrameHandler         0041fdfd f   LIBCMT:trnsctrl.obj
 0001:0001ee33       ___CxxFrameHandler3        0041fe33 f   LIBCMT:trnsctrl.obj
 0001:0001ee69       ___CxxFrameHandler2        0041fe69 f   LIBCMT:trnsctrl.obj
 0001:0001ee9f       ___CxxLongjmpUnwind@4      0041fe9f f   LIBCMT:trnsctrl.obj
 0001:0001eee9       ?_CallSETranslator@@YAHPAUEHExceptionRecord@@PAUEHRegistrationNode@@PAX2PBU_s_FuncInfo@@H1@Z 0041fee9 f   LIBCMT:trnsctrl.obj
 0001:0001f05b       ?_GetRangeOfTrysToCheck@@YAPBU_s_TryBlockMapEntry@@PBU_s_FuncInfo@@HHPAI1@Z 0042005b f   LIBCMT:trnsctrl.obj
 0001:0001f0ce       __CreateFrameInfo          004200ce f   LIBCMT:trnsctrl.obj
 0001:0001f0f6       __IsExceptionObjectToBeDestroyed 004200f6 f   LIBCMT:trnsctrl.obj
 0001:0001f117       __FindAndUnlinkFrame       00420117 f   LIBCMT:trnsctrl.obj
 0001:0001f163       ?_CallCatchBlock2@@YAPAXPAUEHRegistrationNode@@PBU_s_FuncInfo@@PAXHK@Z 00420163 f   LIBCMT:trnsctrl.obj
 0001:0001f1c1       @__security_check_cookie@4 004201c1 f   LIBCMT:secchk.obj
 0001:0001f1d0       _fgetc                     004201d0 f   LIBCMT:fgetc.obj
 0001:0001f307       _getc                      00420307 f   LIBCMT:fgetc.obj
 0001:0001f43e       __getc_nolock              0042043e f   LIBCMT:fgetc.obj
 0001:0001f458       _fputc                     00420458 f   LIBCMT:fputc.obj
 0001:0001f597       _putc                      00420597 f   LIBCMT:fputc.obj
 0001:0001f6d6       __ungetc_nolock            004206d6 f   LIBCMT:ungetc.obj
 0001:0001f7f4       _ungetc                    004207f4 f   LIBCMT:ungetc.obj
 0001:0001f866       __flush                    00420866 f   LIBCMT:fflush.obj
 0001:0001f8c8       __fflush_nolock            004208c8 f   LIBCMT:fflush.obj
 0001:0001f9e4       _fflush                    004209e4 f   LIBCMT:fflush.obj
 0001:0001fa37       __flushall                 00420a37 f   LIBCMT:fflush.obj
 0001:0001fa40       _setvbuf                   00420a40 f   LIBCMT:setvbuf.obj
 0001:0001fb3e       __fwrite_nolock            00420b3e f   LIBCMT:fwrite.obj
 0001:0001fc58       _fwrite                    00420c58 f   LIBCMT:fwrite.obj
 0001:0001fce5       _fgetpos                   00420ce5 f   LIBCMT:fgetpos.obj
 0001:0001fd50       __fseek_nolock             00420d50 f   LIBCMT:fseek.obj
 0001:0001fdd7       _fseek                     00420dd7 f   LIBCMT:fseek.obj
 0001:0001fe5c       _fsetpos                   00420e5c f   LIBCMT:fsetpos.obj
 0001:0001fe9e       __fclose_nolock            00420e9e f   LIBCMT:fclose.obj
 0001:0001ff11       _fclose                    00420f11 f   LIBCMT:fclose.obj
 0001:0001ff8d       __set_osplatform           00420f8d f i LIBCMT:wincrt0.obj
 0001:0001ff97       __set_osver                00420f97 f i LIBCMT:wincrt0.obj
 0001:0001ffa1       __set_winver               00420fa1 f i LIBCMT:wincrt0.obj
 0001:0001ffab       __set_winmajor             00420fab f i LIBCMT:wincrt0.obj
 0001:0001ffb5       __set_winminor             00420fb5 f i LIBCMT:wincrt0.obj
 0001:00020204       _WinMainCRTStartup         00421204 f   LIBCMT:wincrt0.obj
 0001:0002020e       __MarkAllocaS              0042120e f i LIBCMT:a_map.obj
 0001:00020220       __freea                    00421220 f i LIBCMT:a_map.obj
 0001:0002023b       ??0_LocaleUpdate@@QAE@PAUlocaleinfo_struct@@@Z 0042123b f i LIBCMT:a_map.obj
 0001:000202bd       ??1_LocaleUpdate@@QAE@XZ   004212bd f i LIBCMT:a_map.obj
 0001:000202cb       ?GetLocaleT@_LocaleUpdate@@QAEPAUlocaleinfo_struct@@XZ 004212cb f i LIBCMT:a_map.obj
 0001:0002068a       ___crtLCMapStringA         0042168a f   LIBCMT:a_map.obj
 0001:000206cd       ___pwctype_func            004216cd f   LIBCMT:ctype.obj
 0001:000206d3       ___pctype_func             004216d3 f   LIBCMT:ctype.obj
 0001:000206fc       __isalpha_l                004216fc f i LIBCMT:_ctype.obj
 0001:00020750       _isalpha                   00421750 f i LIBCMT:_ctype.obj
 0001:0002077b       __isupper_l                0042177b f i LIBCMT:_ctype.obj
 0001:000207ca       _isupper                   004217ca f i LIBCMT:_ctype.obj
 0001:000207f3       __islower_l                004217f3 f i LIBCMT:_ctype.obj
 0001:00020842       _islower                   00421842 f i LIBCMT:_ctype.obj
 0001:0002086b       __isdigit_l                0042186b f i LIBCMT:_ctype.obj
 0001:000208ba       _isdigit                   004218ba f i LIBCMT:_ctype.obj
 0001:000208e3       __isxdigit_l               004218e3 f i LIBCMT:_ctype.obj
 0001:00020937       _isxdigit                  00421937 f i LIBCMT:_ctype.obj
 0001:00020962       __isspace_l                00421962 f i LIBCMT:_ctype.obj
 0001:000209b1       _isspace                   004219b1 f i LIBCMT:_ctype.obj
 0001:000209da       __ispunct_l                004219da f i LIBCMT:_ctype.obj
 0001:00020a29       _ispunct                   00421a29 f i LIBCMT:_ctype.obj
 0001:00020a52       __isalnum_l                00421a52 f i LIBCMT:_ctype.obj
 0001:00020aa6       _isalnum                   00421aa6 f i LIBCMT:_ctype.obj
 0001:00020ad1       __isprint_l                00421ad1 f i LIBCMT:_ctype.obj
 0001:00020b25       _isprint                   00421b25 f i LIBCMT:_ctype.obj
 0001:00020b50       __isgraph_l                00421b50 f i LIBCMT:_ctype.obj
 0001:00020ba4       _isgraph                   00421ba4 f i LIBCMT:_ctype.obj
 0001:00020bcf       __iscntrl_l                00421bcf f i LIBCMT:_ctype.obj
 0001:00020c1e       _iscntrl                   00421c1e f i LIBCMT:_ctype.obj
 0001:00020c47       ___isascii                 00421c47 f i LIBCMT:_ctype.obj
 0001:00020c54       ___toascii                 00421c54 f i LIBCMT:_ctype.obj
 0001:00020c5c       __iscsymf_l                00421c5c f i LIBCMT:_ctype.obj
 0001:00020c7b       ___iscsymf                 00421c7b f i LIBCMT:_ctype.obj
 0001:00020c95       __iscsym_l                 00421c95 f i LIBCMT:_ctype.obj
 0001:00020cb4       ___iscsym                  00421cb4 f i LIBCMT:_ctype.obj
 0001:00020cd0       ___init_ctype              00421cd0 f   LIBCMT:initctyp.obj
 0001:00021065       ____mb_cur_max_func        00422065 f   LIBCMT:initctyp.obj
 0001:0002108e       ____mb_cur_max_l_func      0042208e f   LIBCMT:initctyp.obj
 0001:000210a4       ____lc_codepage_func       004220a4 f   LIBCMT:initctyp.obj
 0001:000210ca       ____lc_collate_cp_func     004220ca f   LIBCMT:initctyp.obj
 0001:000210f0       ____lc_handle_func         004220f0 f   LIBCMT:initctyp.obj
 0001:00021120       _memcpy                    00422120 f   LIBCMT:memcpy.obj
 0001:00021485       _wait_a_bit                00422485 f i LIBCMT:crtheap.obj
 0001:000214a6       __set_malloc_crt_max_wait  004224a6 f   LIBCMT:crtheap.obj
 0001:000214b6       __malloc_crt               004224b6 f   LIBCMT:crtheap.obj
 0001:000214f6       __calloc_crt               004224f6 f   LIBCMT:crtheap.obj
 0001:0002153e       __realloc_crt              0042253e f   LIBCMT:crtheap.obj
 0001:00021589       __recalloc_crt             00422589 f   LIBCMT:crtheap.obj
 0001:000215d9       @_malloc_crt_fastcall@4    004225d9 f   LIBCMT:crtheap.obj
 0001:000215e1       @_calloc_crt_fastcall@8    004225e1 f   LIBCMT:crtheap.obj
 0001:000215eb       @_realloc_crt_fastcall@8   004225eb f   LIBCMT:crtheap.obj
 0001:000216a2       ___onexitinit              004226a2 f   LIBCMT:onexit.obj
 0001:000216d1       __onexit                   004226d1 f   LIBCMT:onexit.obj
 0001:0002170d       _atexit                    0042270d f   LIBCMT:onexit.obj
 0001:00021720       _strlen                    00422720 f   LIBCMT:strlen.obj
 0001:000217ab       __EH_prolog3               004227ab f   LIBCMT:ehprolg3.obj
 0001:000217de       __EH_prolog3_catch         004227de f   LIBCMT:ehprolg3.obj
 0001:00021814       __EH_prolog3_GS            00422814 f   LIBCMT:ehprolg3.obj
 0001:0002184a       __EH_prolog3_catch_GS      0042284a f   LIBCMT:ehprolg3.obj
 0001:00021883       __EH_epilog3               00422883 f   LIBCMT:ehprolg3.obj
 0001:00021897       __EH_epilog3_GS            00422897 f   LIBCMT:ehprolg3.obj
 0001:000218a6       __EH_epilog3_catch_GS      004228a6 f   LIBCMT:ehprolg3.obj
 0001:000218b5       ____setlc_active_func      004228b5 f   LIBCMT:setlocal.obj
 0001:000218bb       ____unguarded_readlc_active_add_func 004228bb f   LIBCMT:setlocal.obj
 0001:000218c1       ___freetlocinfo            004228c1 f   LIBCMT:setlocal.obj
 0001:00021a01       ___addlocaleref            00422a01 f   LIBCMT:setlocal.obj
 0001:00021a87       ___removelocaleref         00422a87 f   LIBCMT:setlocal.obj
 0001:00021b75       ___updatetlocinfo          00422b75 f   LIBCMT:setlocal.obj
 0001:00021beb       __configthreadlocale       00422beb f   LIBCMT:setlocal.obj
 0001:00021ca4       __free_locale              00422ca4 f   LIBCMT:setlocal.obj
 0001:00021d3a       ___free_locale             00422d3a f   LIBCMT:setlocal.obj
 0001:00021d3f       __get_current_locale       00422d3f f   LIBCMT:setlocal.obj
 0001:00021dc7       ___get_current_locale      00422dc7 f   LIBCMT:setlocal.obj
 0001:00021dcc       ___init_dummy              00422dcc f   LIBCMT:setlocal.obj
 0001:00021dcf       __strcats                  00422dcf f   LIBCMT:setlocal.obj
 0001:00021e0d       ___lc_strtolc              00422e0d f   LIBCMT:setlocal.obj
 0001:00021f36       ___lc_lctostr              00422f36 f   LIBCMT:setlocal.obj
 0001:00022112       __expandlocale             00423112 f   LIBCMT:setlocal.obj
 0001:000227aa       __create_locale            004237aa f   LIBCMT:setlocal.obj
 0001:0002289d       ___create_locale           0042389d f   LIBCMT:setlocal.obj
 0001:000228a2       _setlocale                 004238a2 f   LIBCMT:setlocal.obj
 0001:00023f84       _memcmp                    00424f84 f   LIBCMT:memcmp.obj
 0001:00025604       _localeconv                00426604 f   LIBCMT:lconv.obj
 0001:00025630       _strcspn                   00426630 f   LIBCMT:strcspn.obj
 0001:0002590a       __strtoi64                 0042690a f   LIBCMT:strtoq.obj
 0001:00025933       __strtoi64_l               00426933 f   LIBCMT:strtoq.obj
 0001:0002594e       __strtoui64                0042694e f   LIBCMT:strtoq.obj
 0001:00025978       __strtoui64_l              00426978 f   LIBCMT:strtoq.obj
 0001:00025993       __fpclear                  00426993 f   LIBCMT:fpinit.obj
 0001:00025994       __cfltcvt_init             00426994 f   LIBCMT:fpinit.obj
 0001:000259f4       ___setfflag                004269f4 f   LIBCMT:fpinit.obj
 0001:00025a04       __fpmath                   00426a04 f   LIBCMT:fpinit.obj
 0001:00025a22       _sprintf                   00426a22 f   LIBCMT:sprintf.obj
 0001:00025a9d       __sprintf_l                00426a9d f   LIBCMT:sprintf.obj
 0001:00025ab7       _sprintf_s                 00426ab7 f   LIBCMT:sprintf.obj
 0001:00025ad3       __sprintf_s_l              00426ad3 f   LIBCMT:sprintf.obj
 0001:00025af0       __snprintf_s               00426af0 f   LIBCMT:sprintf.obj
 0001:00025b0f       __snprintf_s_l             00426b0f f   LIBCMT:sprintf.obj
 0001:00025b2f       __sprintf_p                00426b2f f   LIBCMT:sprintf.obj
 0001:00025b4b       __sprintf_p_l              00426b4b f   LIBCMT:sprintf.obj
 0001:00025b68       __scprintf                 00426b68 f   LIBCMT:sprintf.obj
 0001:00025b79       __scprintf_p               00426b79 f   LIBCMT:sprintf.obj
 0001:00025b8a       __scprintf_l               00426b8a f   LIBCMT:sprintf.obj
 0001:00025ba0       __scprintf_p_l             00426ba0 f   LIBCMT:sprintf.obj
 0001:00025bb6       __fsopen                   00426bb6 f   LIBCMT:fopen.obj
 0001:00025c7a       _fopen                     00426c7a f   LIBCMT:fopen.obj
 0001:00025c8d       _fopen_s                   00426c8d f   LIBCMT:fopen.obj
 0001:00025d0c       __wcstombs_l_helper        00426d0c f   LIBCMT:wcstombs.obj
 0001:00025f52       __wcstombs_l               00426f52 f   LIBCMT:wcstombs.obj
 0001:00025f57       _wcstombs                  00426f57 f   LIBCMT:wcstombs.obj
 0001:00025f6e       __wcstombs_s_l             00426f6e f   LIBCMT:wcstombs.obj
 0001:0002601f       _wcstombs_s                0042701f f   LIBCMT:wcstombs.obj
 0001:0002603d       __wfsopen                  0042703d f   LIBCMT:wfopen.obj
 0001:00026103       __wfopen                   00427103 f   LIBCMT:wfopen.obj
 0001:00026116       __wfopen_s                 00427116 f   LIBCMT:wfopen.obj
 0001:00026166       __amsg_exit                00427166 f   LIBCMT:crt0dat.obj
 0001:0002618a       ___crtCorExitProcess       0042718a f   LIBCMT:crt0dat.obj
 0001:000261b0       ___crtExitProcess          004271b0 f   LIBCMT:crt0dat.obj
 0001:000261c5       __lockexit                 004271c5 f   LIBCMT:crt0dat.obj
 0001:000261ce       __unlockexit               004271ce f   LIBCMT:crt0dat.obj
 0001:000261ef       __initterm_e               004271ef f   LIBCMT:crt0dat.obj
 0001:0002620f       __get_osplatform           0042720f f   LIBCMT:crt0dat.obj
 0001:00026246       __get_osver                00427246 f   LIBCMT:crt0dat.obj
 0001:00026282       __get_winver               00427282 f   LIBCMT:crt0dat.obj
 0001:000262be       __get_winmajor             004272be f   LIBCMT:crt0dat.obj
 0001:000262fa       __get_winminor             004272fa f   LIBCMT:crt0dat.obj
 0001:00026336       __get_wpgmptr              00427336 f   LIBCMT:crt0dat.obj
 0001:0002636d       __get_pgmptr               0042736d f   LIBCMT:crt0dat.obj
 0001:000263a4       __cinit                    004273a4 f   LIBCMT:crt0dat.obj
 0001:00026504       _exit                      00427504 f   LIBCMT:crt0dat.obj
 0001:00026515       __exit                     00427515 f   LIBCMT:crt0dat.obj
 0001:00026526       __cexit                    00427526 f   LIBCMT:crt0dat.obj
 0001:00026535       __c_exit                   00427535 f   LIBCMT:crt0dat.obj
 0001:00026544       __init_pointers            00427544 f   LIBCMT:crt0dat.obj
 0001:00026590       __mbstowcs_l_helper        00427590 f   LIBCMT:mbstowcs.obj
 0001:00026718       __mbstowcs_l               00427718 f   LIBCMT:mbstowcs.obj
 0001:0002671d       _mbstowcs                  0042771d f   LIBCMT:mbstowcs.obj
 0001:00026745       __mbstowcs_s_l             00427745 f   LIBCMT:mbstowcs.obj
 0001:0002683b       _mbstowcs_s                0042783b f   LIBCMT:mbstowcs.obj
 0001:00026859       _abort                     00427859 f   LIBCMT:abort.obj
 0001:0002694c       __set_abort_behavior       0042794c f   LIBCMT:abort.obj
 0001:0002696a       __get_errno_from_oserr     0042796a f   LIBCMT:dosmap.obj
 0001:000269a5       __errno                    004279a5 f   LIBCMT:dosmap.obj
 0001:000269b8       ___doserrno                004279b8 f   LIBCMT:dosmap.obj
 0001:000269cb       __dosmaperr                004279cb f   LIBCMT:dosmap.obj
 0001:000269e9       __set_errno                004279e9 f   LIBCMT:dosmap.obj
 0001:00026a04       __get_errno                00427a04 f   LIBCMT:dosmap.obj
 0001:00026a2e       __set_doserrno             00427a2e f   LIBCMT:dosmap.obj
 0001:00026a49       __get_doserrno             00427a49 f   LIBCMT:dosmap.obj
 0001:00026a73       __Getdays_l                00427a73 f   LIBCMT:strftime.obj
 0001:00026b71       __Getdays                  00427b71 f   LIBCMT:strftime.obj
 0001:00026b7a       __Getmonths_l              00427b7a f   LIBCMT:strftime.obj
 0001:00026c78       __Getmonths                00427c78 f   LIBCMT:strftime.obj
 0001:00026c81       __Gettnames_l              00427c81 f   LIBCMT:strftime.obj
 0001:00026fd6       __Gettnames                00427fd6 f   LIBCMT:strftime.obj
 0001:000279a6       __Strftime_l               004289a6 f   LIBCMT:strftime.obj
 0001:00027b55       __strftime_l               00428b55 f   LIBCMT:strftime.obj
 0001:00027b73       _strftime                  00428b73 f   LIBCMT:strftime.obj
 0001:00027b90       __Strftime                 00428b90 f   LIBCMT:strftime.obj
 0001:00027bae       _wcslen                    00428bae f   LIBCMT:wcslen.obj
 0001:00027bc4       __tolower                  00428bc4 f   LIBCMT:tolower.obj
 0001:00027bcc       __tolower_l                00428bcc f   LIBCMT:tolower.obj
 0001:00027ce3       _tolower                   00428ce3 f   LIBCMT:tolower.obj
 0001:00027d0a       __strtod_l                 00428d0a f   LIBCMT:strtod.obj
 0001:00027e25       _strtod                    00428e25 f   LIBCMT:strtod.obj
 0001:00027f13       __itoa_s                   00428f13 f   LIBCMT:xtoas.obj
 0001:00027f3b       __ltoa_s                   00428f3b f   LIBCMT:xtoas.obj
 0001:00027f60       __ultoa_s                  00428f60 f   LIBCMT:xtoas.obj
 0001:0002806e       __i64toa_s                 0042906e f   LIBCMT:xtoas.obj
 0001:000280a1       __ui64toa_s                004290a1 f   LIBCMT:xtoas.obj
 0001:00028461       ___crtCompareStringA       00429461 f   LIBCMT:a_cmp.obj
 0001:000286c5       ___crtGetStringTypeW       004296c5 f   LIBCMT:w_str.obj
 0001:00028980       ___crtLCMapStringW         00429980 f   LIBCMT:w_map.obj
 0001:00028c2c       ___crtCompareStringW       00429c2c f   LIBCMT:w_cmp.obj
 0001:00028c6c       _strcpy_s                  00429c6c f   LIBCMT:strcpy_s.obj
 0001:00028cd1       _V6_HeapAlloc              00429cd1 f   LIBCMT:malloc.obj
 0001:00028d20       __heap_alloc               00429d20 f i LIBCMT:malloc.obj
 0001:00028d95       _malloc                    00429d95 f   LIBCMT:malloc.obj
 0001:00028e60       _memmove                   00429e60 f   LIBCMT:memmove.obj
 0001:0002921c       __VEC_memzero              0042a21c f   LIBCMT:p4_memset.obj
 0001:000292ab       __sse2_mathfcns_init       0042a2ab f   LIBCMT:mathfcns.obj
 0001:000292bf       __set_SSE2_enable          0042a2bf f   LIBCMT:mathfcns.obj
 0001:000292d3       ___heap_select             0042a2d3 f   LIBCMT:heapinit.obj
 0001:0002932e       __heap_init                0042a32e f   LIBCMT:heapinit.obj
 0001:00029388       __heap_term                0042a388 f   LIBCMT:heapinit.obj
 0001:000293fc       __get_heap_handle          0042a3fc f   LIBCMT:heapinit.obj
 0001:00029402       __mtinitlocks              0042a402 f   LIBCMT:mlock.obj
 0001:0002944b       __mtdeletelocks            0042a44b f   LIBCMT:mlock.obj
 0001:000294a0       __unlock                   0042a4a0 f   LIBCMT:mlock.obj
 0001:000294b5       __lockerr_exit             0042a4b5 f   LIBCMT:mlock.obj
 0001:000294cd       __mtinitlocknum            0042a4cd f   LIBCMT:mlock.obj
 0001:00029590       __lock                     0042a590 f   LIBCMT:mlock.obj
 0001:000295c1       __get_sbh_threshold        0042a5c1 f   LIBCMT:sbheap.obj
 0001:000295e2       __set_amblksiz             0042a5e2 f   LIBCMT:sbheap.obj
 0001:00029628       __get_amblksiz             0042a628 f   LIBCMT:sbheap.obj
 0001:00029664       ___sbh_heap_init           0042a664 f   LIBCMT:sbheap.obj
 0001:000296ac       ___sbh_find_block          0042a6ac f   LIBCMT:sbheap.obj
 0001:000296d7       ___sbh_free_block          0042a6d7 f   LIBCMT:sbheap.obj
 0001:000299eb       ___sbh_alloc_new_region    0042a9eb f   LIBCMT:sbheap.obj
 0001:00029a9b       ___sbh_alloc_new_group     0042aa9b f   LIBCMT:sbheap.obj
 0001:00029ba1       ___sbh_resize_block        0042aba1 f   LIBCMT:sbheap.obj
 0001:00029e80       ___sbh_heapmin             0042ae80 f   LIBCMT:sbheap.obj
 0001:00029f4d       ___sbh_heap_check          0042af4d f   LIBCMT:sbheap.obj
 0001:0002a22f       __set_sbh_threshold        0042b22f f   LIBCMT:sbheap.obj
 0001:0002a2d7       ___sbh_alloc_block         0042b2d7 f   LIBCMT:sbheap.obj
 0001:0002a5bc       __SEH_prolog4              0042b5bc f   LIBCMT:sehprolg4.obj
 0001:0002a601       __SEH_epilog4              0042b601 f   LIBCMT:sehprolg4.obj
 0001:0002a650       __except_handler4          0042b650 f   LIBCMT:chandler4.obj
 0001:0002a7e6       __crt_debugger_hook        0042b7e6 f   LIBCMT:dbghook.obj
 0001:0002a7ee       __encode_pointer           0042b7ee f   LIBCMT:tidtable.obj
 0001:0002a851       __encoded_null             0042b851 f   LIBCMT:tidtable.obj
 0001:0002a85a       __decode_pointer           0042b85a f   LIBCMT:tidtable.obj
 0001:0002a8bd       ___crtTlsAlloc@4           0042b8bd f   LIBCMT:tidtable.obj
 0001:0002a8c6       ___fls_getvalue@4          0042b8c6 f   LIBCMT:tidtable.obj
 0001:0002a8db       ___get_flsindex            0042b8db f   LIBCMT:tidtable.obj
 0001:0002a8e1       ___set_flsgetvalue         0042b8e1 f   LIBCMT:tidtable.obj
 0001:0002a90b       ___fls_setvalue@8          0042b90b f   LIBCMT:tidtable.obj
 0001:0002a924       __mtterm                   0042b924 f   LIBCMT:tidtable.obj
 0001:0002a961       __initptd                  0042b961 f   LIBCMT:tidtable.obj
 0001:0002aa15       __getptd_noexit            0042ba15 f   LIBCMT:tidtable.obj
 0001:0002aa98       __getptd                   0042ba98 f   LIBCMT:tidtable.obj
 0001:0002aab0       __freefls@4                0042bab0 f   LIBCMT:tidtable.obj
 0001:0002abd1       __freeptd                  0042bbd1 f   LIBCMT:tidtable.obj
 0001:0002ac3a       ___threadid                0042bc3a f   LIBCMT:tidtable.obj
 0001:0002ac40       ___threadhandle            0042bc40 f   LIBCMT:tidtable.obj
 0001:0002ac46       __mtinit                   0042bc46 f   LIBCMT:tidtable.obj
 0001:0002adca       __initp_heap_handler       0042bdca f   LIBCMT:handler.obj
 0001:0002add4       ?_set_new_handler@@YAP6AHI@ZP6AHI@Z@Z 0042bdd4 f   LIBCMT:handler.obj
 0001:0002ae05       ?_set_new_handler@@YAP6AHI@ZH@Z 0042be05 f   LIBCMT:handler.obj
 0001:0002ae0e       ?_query_new_handler@@YAP6AHI@ZXZ 0042be0e f   LIBCMT:handler.obj
 0001:0002ae1b       __callnewh                 0042be1b f   LIBCMT:handler.obj
 0001:0002ae3d       ?__CxxUnhandledExceptionFilter@@YGJPAU_EXCEPTION_POINTERS@@@Z 0042be3d f   LIBCMT:unhandld.obj
 0001:0002aea9       ?__CxxSetUnhandledExceptionFilter@@YAHXZ 0042bea9 f   LIBCMT:unhandld.obj
 0001:0002aeca       ?__CxxRestoreUnhandledExceptionFilter@@YAXXZ 0042beca f   LIBCMT:unhandld.obj
 0001:0002aeee       ?_Type_info_dtor@type_info@@CAXPAV1@@Z 0042beee f   LIBCMT:typname.obj
 0001:0002af5e       ?_Name_base@type_info@@CAPBDPBV1@PAU__type_info_node@@@Z 0042bf5e f   LIBCMT:typname.obj
 0001:0002b053       ?_Type_info_dtor_internal@type_info@@CAXPAV1@@Z 0042c053 f   LIBCMT:typname.obj
 0001:0002b0c3       ___unDNameHelper           0042c0c3 f   LIBCMT:typname.obj
 0001:0002b0f4       ?_Name_base_internal@type_info@@CAPBDPBV1@PAU__type_info_node@@@Z 0042c0f4 f   LIBCMT:typname.obj
 0001:0002b1df       ___clean_type_info_names_internal 0042c1df f   LIBCMT:typname.obj
 0001:0002b240       _strcmp                    0042c240 f   LIBCMT:strcmp.obj
 0001:0002b2c8       ??0bad_exception@std@@QAE@PBD@Z 0042c2c8 f i LIBCMT:frame.obj
 0001:0002b2e1       ??1bad_exception@std@@UAE@XZ 0042c2e1 f i LIBCMT:frame.obj
 0001:0002b2ec       ??_Gbad_exception@std@@UAEPAXI@Z 0042c2ec f i LIBCMT:frame.obj
 0001:0002b2ec       ??_Ebad_exception@std@@UAEPAXI@Z 0042c2ec f i LIBCMT:frame.obj
 0001:0002b30e       ___TypeMatch               0042c30e f   LIBCMT:frame.obj
 0001:0002b36a       ___FrameUnwindFilter       0042c36a f   LIBCMT:frame.obj
 0001:0002b3ae       ___FrameUnwindToState      0042c3ae f   LIBCMT:frame.obj
 0001:0002b4d4       ___DestructExceptionObject 0042c4d4 f   LIBCMT:frame.obj
 0001:0002b528       ___AdjustPointer           0042c528 f   LIBCMT:frame.obj
 0001:0002b54d       ?__uncaught_exception@@YA_NXZ 0042c54d f   LIBCMT:frame.obj
 0001:0002b560       ___CxxRegisterExceptionObject 0042c560 f   LIBCMT:frame.obj
 0001:0002b613       ___CxxDetectRethrow        0042c613 f   LIBCMT:frame.obj
 0001:0002b65f       ___CxxUnregisterExceptionObject 0042c65f f   LIBCMT:frame.obj
 0001:0002b79a       ___CxxQueryExceptionSize   0042c79a f   LIBCMT:frame.obj
 0001:0002b79e       ___CxxCallUnwindDtor       0042c79e f   LIBCMT:frame.obj
 0001:0002b7d0       ___CxxCallUnwindDelDtor    0042c7d0 f   LIBCMT:frame.obj
 0001:0002b803       ___CxxCallUnwindStdDelDtor 0042c803 f   LIBCMT:frame.obj
 0001:0002b835       ___CxxCallUnwindVecDtor    0042c835 f   LIBCMT:frame.obj
 0001:0002b962       ?_is_exception_typeof@@YAHABVtype_info@@PAU_EXCEPTION_POINTERS@@@Z 0042c962 f   LIBCMT:frame.obj
 0001:0002bb80       ___BuildCatchObjectHelper  0042cb80 f   LIBCMT:frame.obj
 0001:0002bcff       ___BuildCatchObject        0042ccff f   LIBCMT:frame.obj
 0001:0002bd90       ___CxxExceptionFilter      0042cd90 f   LIBCMT:frame.obj
 0001:0002c387       ??0bad_exception@std@@QAE@ABV01@@Z 0042d387 f i LIBCMT:frame.obj
 0001:0002c39f       ___InternalCxxFrameHandler 0042d39f f   LIBCMT:frame.obj
 0001:0002c483       ?terminate@@YAXXZ          0042d483 f   LIBCMT:hooks.obj
 0001:0002c4bc       ?unexpected@@YAXXZ         0042d4bc f   LIBCMT:hooks.obj
 0001:0002c4cf       ?_inconsistency@@YAXXZ     0042d4cf f   LIBCMT:hooks.obj
 0001:0002c506       __initp_eh_hooks           0042d506 f   LIBCMT:hooks.obj
 0001:0002c520       __CallSettingFrame@12      0042d520 f   LIBCMT:lowhelpr.obj
 0001:0002c547       __NLG_Return               0042d547     LIBCMT:lowhelpr.obj
 0001:0002c56c       ___report_gsfailure        0042d56c f   LIBCMT:gs_report.obj
 0001:0002c670       ___iob_func                0042d670 f   LIBCMT:_file.obj
 0001:0002c676       ___initstdio               0042d676 f   LIBCMT:_file.obj
 0001:0002c727       ___endstdio                0042d727 f   LIBCMT:_file.obj
 0001:0002c747       __lock_file                0042d747 f   LIBCMT:_file.obj
 0001:0002c776       __lock_file2               0042d776 f   LIBCMT:_file.obj
 0001:0002c799       __unlock_file              0042d799 f   LIBCMT:_file.obj
 0001:0002c7c8       __unlock_file2             0042d7c8 f   LIBCMT:_file.obj
 0001:0002c7eb       __filbuf                   0042d7eb f   LIBCMT:_filbuf.obj
 0001:0002c90b       __ioinit                   0042d90b f   LIBCMT:ioinit.obj
 0001:0002cb4b       __ioterm                   0042db4b f   LIBCMT:ioinit.obj
 0001:0002cb97       __fileno                   0042db97 f   LIBCMT:fileno.obj
 0001:0002cbc4       __flsbuf                   0042dbc4 f   LIBCMT:_flsbuf.obj
 0001:0002cd24       __getbuf                   0042dd24 f   LIBCMT:_getbuf.obj
 0001:0002cd68       __write_nolock             0042dd68 f   LIBCMT:write.obj
 0001:0002d32e       __write                    0042e32e f   LIBCMT:write.obj
 0001:0002d40a       __commit                   0042e40a f   LIBCMT:commit.obj
 0001:0002d4eb       __freebuf                  0042e4eb f   LIBCMT:_freebuf.obj
 0001:0002d517       __ftelli64_nolock          0042e517 f   LIBCMT:ftelli64.obj
 0001:0002d6cb       __ftelli64                 0042e6cb f   LIBCMT:ftelli64.obj
 0001:0002d715       __lseek_nolock             0042e715 f   LIBCMT:lseek.obj
 0001:0002d787       __lseek                    0042e787 f   LIBCMT:lseek.obj
 0001:0002d863       __ftell_nolock             0042e863 f   LIBCMT:ftell.obj
 0001:0002d9fb       _ftell                     0042e9fb f   LIBCMT:ftell.obj
 0001:0002da69       __fseeki64_nolock          0042ea69 f   LIBCMT:fseeki64.obj
 0001:0002db02       __fseeki64                 0042eb02 f   LIBCMT:fseeki64.obj
 0001:0002db51       __close_nolock             0042eb51 f   LIBCMT:close.obj
 0001:0002dbe5       __close                    0042ebe5 f   LIBCMT:close.obj
 0001:0002dcb2       __NMSG_WRITE               0042ecb2 f   LIBCMT:crt0msg.obj
 0001:0002de52       __GET_RTERRMSG             0042ee52 f   LIBCMT:crt0msg.obj
 0001:0002de72       __FF_MSGBANNER             0042ee72 f   LIBCMT:crt0msg.obj
 0001:0002deab       __initp_misc_winxfltr      0042eeab f   LIBCMT:winxfltr.obj
 0001:0002dede       __XcptFilter               0042eede f   LIBCMT:winxfltr.obj
 0001:0002e04d       ___CppXcptFilter           0042f04d f   LIBCMT:winxfltr.obj
 0001:0002e068       __wincmdln                 0042f068 f   LIBCMT:wincmdln.obj
 0001:0002e0c5       __setenvp                  0042f0c5 f   LIBCMT:stdenvp.obj
 0001:0002e1a0       __set_pgmptr               0042f1a0 f i LIBCMT:stdargv.obj
 0001:0002e342       __setargv                  0042f342 f   LIBCMT:stdargv.obj
 0001:0002e3fb       ___crtGetEnvironmentStringsA 0042f3fb f   LIBCMT:a_env.obj
 0001:0002e530       __RTC_Initialize           0042f530 f   LIBCMT:initsect.obj
 0001:0002e554       __RTC_Terminate            0042f554 f   LIBCMT:initsect.obj
 0001:0002e578       ___security_init_cookie    0042f578 f   LIBCMT:gs_support.obj
 0001:0002e81a       ___updatetmbcinfo          0042f81a f   LIBCMT:mbctype.obj
 0001:0002e938       __setmbcp_nolock           0042f938 f   LIBCMT:mbctype.obj
 0001:0002eae3       __getmbcp                  0042fae3 f   LIBCMT:mbctype.obj
 0001:0002eb1f       __setmbcp                  0042fb1f f   LIBCMT:mbctype.obj
 0001:0002ecb9       ___initmbctable            0042fcb9 f   LIBCMT:mbctype.obj
 0001:0002ecd7       ___ansicp                  0042fcd7 f   LIBCMT:convrtcp.obj
 0001:0002ed1e       ___convertcp               0042fd1e f   LIBCMT:convrtcp.obj
 0001:0002eed0       __alloca_probe_16          0042fed0 f   LIBCMT:alloca16.obj
 0001:0002eee6       __alloca_probe_8           0042fee6     LIBCMT:alloca16.obj
 0001:0002eefc       __isctype_l                0042fefc f   LIBCMT:isctype.obj
 0001:0002efb2       __isctype                  0042ffb2 f   LIBCMT:isctype.obj
 0001:0002f199       ___crtGetStringTypeA       00430199 f   LIBCMT:a_str.obj
 0001:0002f1d9       ___getlocaleinfo           004301d9 f   LIBCMT:inithelp.obj
 0001:0002f333       __initp_misc_purevirt      00430333 f   LIBCMT:inithelp.obj
 0001:0002f3c4       __VEC_memcpy               004303c4 f   LIBCMT:p4_memcpy.obj
 0001:0002f4a7       __calloc_impl              004304a7 f   LIBCMT:calloc.obj
 0001:0002f5c5       _calloc                    004305c5 f   LIBCMT:calloc.obj
 0001:0002f604       _realloc                   00430604 f   LIBCMT:realloc.obj
 0001:0002f81f       __recalloc                 0043081f f   LIBCMT:realloc.obj
 0001:0002f866       __msize                    00430866 f   LIBCMT:msize.obj
 0001:0002fd22       ___free_lc_time            00430d22 f   LIBCMT:inittime.obj
 0001:0002feb2       ___init_time               00430eb2 f   LIBCMT:inittime.obj
 0001:0002ff58       ___free_lconv_num          00430f58 f   LIBCMT:initnum.obj
 0001:0002ff98       ___init_numeric            00430f98 f   LIBCMT:initnum.obj
 0001:00030193       ___free_lconv_mon          00431193 f   LIBCMT:initmon.obj
 0001:0003021c       ___init_monetary           0043121c f   LIBCMT:initmon.obj
 0001:000304e0       ___init_collate            004314e0 f   LIBCMT:initcoll.obj
 0001:000304e3       _strcat_s                  004314e3 f   LIBCMT:strcat_s.obj
 0001:00030554       _strncpy_s                 00431554 f   LIBCMT:strncpy_s.obj
 0001:00030bc1       ___get_qualified_locale    00431bc1 f   LIBCMT:getqloc.obj
 0001:00030da4       _strncmp                   00431da4 f   LIBCMT:strncmp.obj
 0001:00030e70       _strpbrk                   00431e70 f   LIBCMT:strpbrk.obj
 0001:00030eb0       __allmul                   00431eb0 f   LIBCMT:llmul.obj
 0001:00030ef0       __aulldvrm                 00431ef0 f   LIBCMT:ulldvrm.obj
 0001:00030f85       ?strrchr@@YAPADPADH@Z      00431f85 f i LIBCMT:cvt.obj
 0001:00030f8a       __forcdecpt_l              00431f8a f   LIBCMT:cvt.obj
 0001:00030ffb       __cropzeros_l              00431ffb f   LIBCMT:cvt.obj
 0001:0003107b       __positive                 0043207b f   LIBCMT:cvt.obj
 0001:00031091       __fassign_l                00432091 f   LIBCMT:cvt.obj
 0001:000310d1       __fassign                  004320d1 f   LIBCMT:cvt.obj
 0001:00031105       __forcdecpt                00432105 f   LIBCMT:cvt.obj
 0001:00031113       __cropzeros                00432113 f   LIBCMT:cvt.obj
 0001:0003128e       __cftoe_l                  0043228e f   LIBCMT:cvt.obj
 0001:0003135c       __cftoe                    0043235c f   LIBCMT:cvt.obj
 0001:0003137a       __cftoa_l                  0043237a f   LIBCMT:cvt.obj
 0001:000316eb       __cftoa                    004326eb f   LIBCMT:cvt.obj
 0001:000317fe       __cftof_l                  004327fe f   LIBCMT:cvt.obj
 0001:000318b7       __cftof                    004328b7 f   LIBCMT:cvt.obj
 0001:000318d2       __cftog_l                  004328d2 f   LIBCMT:cvt.obj
 0001:000319ca       __cftog                    004329ca f   LIBCMT:cvt.obj
 0001:000319e8       __cfltcvt_l                004329e8 f   LIBCMT:cvt.obj
 0001:00031a6e       __cfltcvt                  00432a6e f   LIBCMT:cvt.obj
 0001:00031a8f       __initp_misc_cfltcvt_tab   00432a8f f   LIBCMT:cmiscdat.obj
 0001:00031aae       __setdefaultprecision      00432aae f   LIBCMT:fp8.obj
 0001:00031ad7       __ms_p5_test_fdiv          00432ad7 f   LIBCMT:testfdiv.obj
 0001:00031b13       __ms_p5_mp_test_fdiv       00432b13 f   LIBCMT:testfdiv.obj
 0001:00031bdd       _get_int_arg               00432bdd f i LIBCMT:output.obj
 0001:00031bea       _get_int64_arg             00432bea f i LIBCMT:output.obj
 0001:00031bfa       _get_short_arg             00432bfa f i LIBCMT:output.obj
 0001:00031c08       __output_l                 00432c08 f   LIBCMT:output.obj
 0001:000325a0       __vsprintf_l               004335a0 f   LIBCMT:vsprintf.obj
 0001:0003261c       _vsprintf                  0043361c f   LIBCMT:vsprintf.obj
 0001:00032633       __vscprintf_helper         00433633 f   LIBCMT:vsprintf.obj
 0001:00032688       __vscprintf                00433688 f   LIBCMT:vsprintf.obj
 0001:000326a0       __vscprintf_l              004336a0 f   LIBCMT:vsprintf.obj
 0001:000326ba       __vscprintf_p              004336ba f   LIBCMT:vsprintf.obj
 0001:000326d2       __vscprintf_p_l            004336d2 f   LIBCMT:vsprintf.obj
 0001:000326ec       __vsnprintf_helper         004336ec f   LIBCMT:vsnprnc.obj
 0001:000327b6       __vsnprintf_c              004337b6 f   LIBCMT:vsnprnc.obj
 0001:000327dd       __vsnprintf_c_l            004337dd f   LIBCMT:vsnprnc.obj
 0001:00032805       __vsprintf_s_l             00433805 f   LIBCMT:vsnprnc.obj
 0001:0003288b       _vsprintf_s                0043388b f   LIBCMT:vsnprnc.obj
 0001:000328a6       __vsnprintf_s_l            004338a6 f   LIBCMT:vsnprnc.obj
 0001:000329ab       __vsnprintf_s              004339ab f   LIBCMT:vsnprnc.obj
 0001:000329c9       __vsprintf_p               004339c9 f   LIBCMT:vsnprnc.obj
 0001:000329f0       __vsprintf_p_l             004339f0 f   LIBCMT:vsnprnc.obj
 0001:00032a18       __openfile                 00433a18 f   LIBCMT:_open.obj
 0001:00032cba       __getstream                00433cba f   LIBCMT:stream.obj
 0001:00032de0       __local_unwind4            00433de0 f   LIBCMT:exsup4.obj
 0001:00032eb6       __seh_longjmp_unwind4@4    00433eb6 f   LIBCMT:exsup4.obj
 0001:00032ed2       @_EH4_CallFilterFunc@8     00433ed2 f   LIBCMT:exsup4.obj
 0001:00032ee9       @_EH4_TransferToHandler@8  00433ee9 f   LIBCMT:exsup4.obj
 0001:00032f02       @_EH4_GlobalUnwind@4       00433f02 f   LIBCMT:exsup4.obj
 0001:00032f1c       @_EH4_LocalUnwind@16       00433f1c f   LIBCMT:exsup4.obj
 0001:00032f33       __wopenfile                00433f33 f   LIBCMT:_wopen.obj
 0001:000331c0       __ValidateImageBase        004341c0 f   LIBCMT:pesect.obj
 0001:000331f0       __FindPESection            004341f0 f   LIBCMT:pesect.obj
 0001:00033232       __IsNonwritableInCurrentImage 00434232 f   LIBCMT:pesect.obj
 0001:0003329e       __initp_misc_winsig        0043429e f   LIBCMT:winsig.obj
 0001:00033386       ___get_sigabrt             00434386 f   LIBCMT:winsig.obj
 0001:00033393       ___fpecode                 00434393 f   LIBCMT:winsig.obj
 0001:0003339c       ___pxcptinfoptrs           0043439c f   LIBCMT:winsig.obj
 0001:000333a5       _signal                    004343a5 f   LIBCMT:winsig.obj
 0001:000335e2       _raise                     004345e2 f   LIBCMT:winsig.obj
 0001:00033792       __initp_misc_rand_s        00434792 f   LIBCMT:rand_s.obj
 0001:0003379c       _rand_s                    0043479c f   LIBCMT:rand_s.obj
 0001:000338a0       __initp_misc_initcrit      004348a0 f   LIBCMT:initcrit.obj
 0001:000338ba       ___crtInitCritSecAndSpinCount 004348ba f   LIBCMT:initcrit.obj
 0001:0003397f       __isleadbyte_l             0043497f f i LIBCMT:_wctype.obj
 0001:000339b5       _isleadbyte                004349b5 f i LIBCMT:_wctype.obj
 0001:000339c3       __iswalpha_l               004349c3 f i LIBCMT:_wctype.obj
 0001:000339d9       _iswalpha                  004349d9 f i LIBCMT:_wctype.obj
 0001:000339ea       __iswupper_l               004349ea f i LIBCMT:_wctype.obj
 0001:000339fd       _iswupper                  004349fd f i LIBCMT:_wctype.obj
 0001:00033a0b       __iswlower_l               00434a0b f i LIBCMT:_wctype.obj
 0001:00033a1e       _iswlower                  00434a1e f i LIBCMT:_wctype.obj
 0001:00033a2c       __iswdigit_l               00434a2c f i LIBCMT:_wctype.obj
 0001:00033a3f       _iswdigit                  00434a3f f i LIBCMT:_wctype.obj
 0001:00033a4d       __iswxdigit_l              00434a4d f i LIBCMT:_wctype.obj
 0001:00033a63       _iswxdigit                 00434a63 f i LIBCMT:_wctype.obj
 0001:00033a74       __iswspace_l               00434a74 f i LIBCMT:_wctype.obj
 0001:00033a87       _iswspace                  00434a87 f i LIBCMT:_wctype.obj
 0001:00033a95       __iswpunct_l               00434a95 f i LIBCMT:_wctype.obj
 0001:00033aa8       _iswpunct                  00434aa8 f i LIBCMT:_wctype.obj
 0001:00033ab6       __iswalnum_l               00434ab6 f i LIBCMT:_wctype.obj
 0001:00033acc       _iswalnum                  00434acc f i LIBCMT:_wctype.obj
 0001:00033add       __iswprint_l               00434add f i LIBCMT:_wctype.obj
 0001:00033af3       _iswprint                  00434af3 f i LIBCMT:_wctype.obj
 0001:00033b04       __iswgraph_l               00434b04 f i LIBCMT:_wctype.obj
 0001:00033b1a       _iswgraph                  00434b1a f i LIBCMT:_wctype.obj
 0001:00033b2b       __iswcntrl_l               00434b2b f i LIBCMT:_wctype.obj
 0001:00033b3e       _iswcntrl                  00434b3e f i LIBCMT:_wctype.obj
 0001:00033b4c       _iswascii                  00434b4c f i LIBCMT:_wctype.obj
 0001:00033b58       __iswcsym_l                00434b58 f i LIBCMT:_wctype.obj
 0001:00033b7e       ___iswcsym                 00434b7e f i LIBCMT:_wctype.obj
 0001:00033b9f       __iswcsymf_l               00434b9f f i LIBCMT:_wctype.obj
 0001:00033bc5       ___iswcsymf                00434bc5 f i LIBCMT:_wctype.obj
 0001:00033be6       __get_daylight             00434be6 f   LIBCMT:timeset.obj
 0001:00033c1a       __get_dstbias              00434c1a f   LIBCMT:timeset.obj
 0001:00033c4e       __get_timezone             00434c4e f   LIBCMT:timeset.obj
 0001:00033c82       __get_tzname               00434c82 f   LIBCMT:timeset.obj
 0001:00033d24       ___daylight                00434d24 f   LIBCMT:timeset.obj
 0001:00033d2a       ___dstbias                 00434d2a f   LIBCMT:timeset.obj
 0001:00033d30       ___timezone                00434d30 f   LIBCMT:timeset.obj
 0001:00033d36       ___tzname                  00434d36 f   LIBCMT:timeset.obj
 0001:00033d3c       __set_daylight             00434d3c f i LIBCMT:tzset.obj
 0001:00033d48       __set_dstbias              00434d48 f i LIBCMT:tzset.obj
 0001:00033d54       __set_timezone             00434d54 f i LIBCMT:tzset.obj
 0001:00034442       ___tzset                   00435442 f   LIBCMT:tzset.obj
 0001:00034491       __tzset                    00435491 f   LIBCMT:tzset.obj
 0001:000344c9       __isindst                  004354c9 f   LIBCMT:tzset.obj
 0001:0003450a       ___ascii_stricmp           0043550a f   LIBCMT:stricmp.obj
 0001:0003453f       __stricmp_l                0043553f f   LIBCMT:stricmp.obj
 0001:00034612       __stricmp                  00435612 f   LIBCMT:stricmp.obj
 0001:00034670       __fltin2                   00435670 f   LIBCMT:cfin.obj
 0001:00034765       __get_sse2_info            00435765 f   LIBCMT:cpu_disp.obj
 0001:000347c5       ___sse2_available_init     004357c5 f   LIBCMT:cpu_disp.obj
 0001:000347d2       ?_ValidateRead@@YAHPBXI@Z  004357d2 f   LIBCMT:validate.obj
 0001:000347df       ?_ValidateWrite@@YAHPAXI@Z 004357df f   LIBCMT:validate.obj
 0001:000347ec       ?_ValidateExecute@@YAHP6GHXZ@Z 004357ec f   LIBCMT:validate.obj
 0001:000347f9       ??0Block@HeapManager@@QAE@XZ 004357f9 f i LIBCMT:undname.obj
 0001:000347ff       ?Constructor@HeapManager@@QAEXP6APAXI@ZP6AXPAX@Z@Z 004357ff f i LIBCMT:undname.obj
 0001:0003481a       ?Destructor@HeapManager@@QAEXXZ 0043581a f i LIBCMT:undname.obj
 0001:00034840       ?getNumberOfDimensions@UnDecorator@@CAHXZ 00435840 f   LIBCMT:undname.obj
 0001:000348a3       ?getTypeEncoding@UnDecorator@@CAHXZ 004358a3 f i LIBCMT:undname.obj
 0001:00034d17       ?doUnderScore@UnDecorator@@SAHXZ 00435d17 f i LIBCMT:undname.obj
 0001:00034d22       ?doMSKeywords@UnDecorator@@SAHXZ 00435d22 f i LIBCMT:undname.obj
 0001:00034d2f       ?doPtr64@UnDecorator@@SAHXZ 00435d2f f i LIBCMT:undname.obj
 0001:00034d3d       ?doFunctionReturns@UnDecorator@@SAHXZ 00435d3d f i LIBCMT:undname.obj
 0001:00034d4b       ?doAllocationModel@UnDecorator@@SAHXZ 00435d4b f i LIBCMT:undname.obj
 0001:00034d59       ?doAllocationLanguage@UnDecorator@@SAHXZ 00435d59 f i LIBCMT:undname.obj
 0001:00034d67       ?doThisTypes@UnDecorator@@SAHXZ 00435d67 f i LIBCMT:undname.obj
 0001:00034d79       ?doAccessSpecifiers@UnDecorator@@SAHXZ 00435d79 f i LIBCMT:undname.obj
 0001:00034d87       ?doThrowTypes@UnDecorator@@SAHXZ 00435d87 f i LIBCMT:undname.obj
 0001:00034d95       ?doMemberTypes@UnDecorator@@SAHXZ 00435d95 f i LIBCMT:undname.obj
 0001:00034da3       ?doNameOnly@UnDecorator@@SAHXZ 00435da3 f i LIBCMT:undname.obj
 0001:00034dae       ?doTypeOnly@UnDecorator@@SAHXZ 00435dae f i LIBCMT:undname.obj
 0001:00034db9       ?haveTemplateParameters@UnDecorator@@SAHXZ 00435db9 f i LIBCMT:undname.obj
 0001:00034dc4       ?doEcsu@UnDecorator@@SAHXZ 00435dc4 f i LIBCMT:undname.obj
 0001:00034dd2       ?doNoIdentCharCheck@UnDecorator@@SAHXZ 00435dd2 f i LIBCMT:undname.obj
 0001:00034ddd       ?doEllipsis@UnDecorator@@SAHXZ 00435ddd f i LIBCMT:undname.obj
 0001:00034deb       ?UScore@UnDecorator@@SAPBDW4Tokens@@@Z 00435deb f   LIBCMT:undname.obj
 0001:00034e04       ?getMemory@HeapManager@@QAEPAXIH@Z 00435e04 f   LIBCMT:undname.obj
 0001:00034e88       ??0DName@@QAE@XZ           00435e88 f i LIBCMT:undname.obj
 0001:00034e95       ??0DName@@QAE@PAVDNameNode@@@Z 00435e95 f i LIBCMT:undname.obj
 0001:00034ea7       ??0DName@@QAE@ABV0@@Z      00435ea7 f i LIBCMT:undname.obj
 0001:00034f43       ?status@DName@@QBE?AW4DNameStatus@@XZ 00435f43 f i LIBCMT:undname.obj
 0001:00034f4d       ?clearStatus@DName@@QAEXXZ 00435f4d f i LIBCMT:undname.obj
 0001:00034f52       ?setPtrRef@DName@@QAEAAV1@XZ 00435f52 f i LIBCMT:undname.obj
 0001:00034f59       ?isPtrRef@DName@@QBEHXZ    00435f59 f i LIBCMT:undname.obj
 0001:00034f63       ?setIsArray@DName@@QAEXXZ  00435f63 f i LIBCMT:undname.obj
 0001:00034f6b       ?isArray@DName@@QBEHXZ     00435f6b f i LIBCMT:undname.obj
 0001:00034f75       ?isNoTE@DName@@QBEHXZ      00435f75 f i LIBCMT:undname.obj
 0001:00034f7f       ?setIsNoTE@DName@@QAEXXZ   00435f7f f i LIBCMT:undname.obj
 0001:00034f87       ?isPinPtr@DName@@QBEHXZ    00435f87 f i LIBCMT:undname.obj
 0001:00034f91       ?setIsPinPtr@DName@@QAEXXZ 00435f91 f i LIBCMT:undname.obj
 0001:00034f99       ?isComArray@DName@@QBEHXZ  00435f99 f i LIBCMT:undname.obj
 0001:00034fa3       ?setIsComArray@DName@@QAEXXZ 00435fa3 f i LIBCMT:undname.obj
 0001:00034fab       ?isVCallThunk@DName@@QBEHXZ 00435fab f i LIBCMT:undname.obj
 0001:00034fb5       ?setIsVCallThunk@DName@@QAEXXZ 00435fb5 f i LIBCMT:undname.obj
 0001:00034fbd       ??4DName@@QAEAAV0@ABV0@@Z  00435fbd f   LIBCMT:undname.obj
 0001:00035038       ?isFull@Replicator@@QBEHXZ 00436038 f i LIBCMT:undname.obj
 0001:00035041       ??AReplicator@@QBEABVDName@@H@Z 00436041 f   LIBCMT:undname.obj
 0001:00035066       ??0DNameNode@@IAE@XZ       00436066 f   LIBCMT:undname.obj
 0001:00035073       ?nextNode@DNameNode@@QBEPAV1@XZ 00436073 f i LIBCMT:undname.obj
 0001:00035077       ??YDNameNode@@QAEAAV0@PAV0@@Z 00436077 f   LIBCMT:undname.obj
 0001:000350a0       ??0charNode@@QAE@D@Z       004360a0 f   LIBCMT:undname.obj
 0001:000350b6       ?length@charNode@@UBEHXZ   004360b6 f i LIBCMT:undname.obj
 0001:000350ba       ?getLastChar@charNode@@UBEDXZ 004360ba f i LIBCMT:undname.obj
 0001:000350be       ?getString@charNode@@UBEPADPADH@Z 004360be f   LIBCMT:undname.obj
 0001:000350d9       ?length@pcharNode@@UBEHXZ  004360d9 f i LIBCMT:undname.obj
 0001:000350dd       ??0pDNameNode@@QAE@PAVDName@@@Z 004360dd f   LIBCMT:undname.obj
 0001:0003510c       ??0DNameStatusNode@@QAE@W4DNameStatus@@@Z 0043610c f   LIBCMT:undname.obj
 0001:00035131       ?length@DNameStatusNode@@UBEHXZ 00436131 f i LIBCMT:undname.obj
 0001:00035135       ?getLastChar@DNameStatusNode@@UBEDXZ 00436135 f i LIBCMT:undname.obj
 0001:00035195       ?getDataIndirectType@UnDecorator@@CA?AVDName@@XZ 00436195 f i LIBCMT:undname.obj
 0001:000351c8       ?getThisType@UnDecorator@@CA?AVDName@@XZ 004361c8 f i LIBCMT:undname.obj
 0001:000351fc       ??2@YAPAXIAAVHeapManager@@H@Z 004361fc f i LIBCMT:undname.obj
 0001:0003520f       ??0DName@@QAE@PAV0@@Z      0043620f f   LIBCMT:undname.obj
 0001:00035265       ??0DName@@QAE@W4DNameStatus@@@Z 00436265 f   LIBCMT:undname.obj
 0001:000352c6       ?isValid@DName@@QBEHXZ     004362c6 f   LIBCMT:undname.obj
 0001:000352dd       ?isEmpty@DName@@QBEHXZ     004362dd f   LIBCMT:undname.obj
 0001:000352f2       ?isUDC@DName@@QBEHXZ       004362f2 f i LIBCMT:undname.obj
 0001:00035306       ?setIsUDC@DName@@QAEXXZ    00436306 f i LIBCMT:undname.obj
 0001:00035314       ?isUDTThunk@DName@@QBEHXZ  00436314 f i LIBCMT:undname.obj
 0001:00035328       ?length@DName@@QBEHXZ      00436328 f   LIBCMT:undname.obj
 0001:0003534d       ?getLastChar@DName@@QBEDXZ 0043634d f   LIBCMT:undname.obj
 0001:00035385       ?getString@DName@@QBEPADPADH@Z 00436385 f   LIBCMT:undname.obj
 0001:00035416       ??_5DName@@QAEAAV0@ABV0@@Z 00436416 f   LIBCMT:undname.obj
 0001:0003544b       ??4DName@@QAEAAV0@W4DNameStatus@@@Z 0043644b f   LIBCMT:undname.obj
 0001:000354cc       ??0Replicator@@QAE@XZ      004364cc f i LIBCMT:undname.obj
 0001:000354ea       ??YReplicator@@QAEAAV0@ABVDName@@@Z 004364ea f   LIBCMT:undname.obj
 0001:00035531       ?clone@DNameNode@@QAEPAV1@XZ 00436531 f   LIBCMT:undname.obj
 0001:00035578       ??0pcharNode@@QAE@PBDH@Z   00436578 f   LIBCMT:undname.obj
 0001:000355dd       ?getLastChar@pcharNode@@UBEDXZ 004365dd f i LIBCMT:undname.obj
 0001:000355ef       ?getString@pcharNode@@UBEPADPADH@Z 004365ef f   LIBCMT:undname.obj
 0001:00035620       ?length@pDNameNode@@UBEHXZ 00436620 f i LIBCMT:undname.obj
 0001:0003562f       ?getLastChar@pDNameNode@@UBEDXZ 0043662f f i LIBCMT:undname.obj
 0001:0003563e       ?getString@pDNameNode@@UBEPADPADH@Z 0043663e f   LIBCMT:undname.obj
 0001:0003565b       ?getString@DNameStatusNode@@UBEPADPADH@Z 0043665b f   LIBCMT:undname.obj
 0001:0003568e       ??0UnDecorator@@QAE@PADPBDHP6APADJ@ZK@Z 0043668e f i LIBCMT:undname.obj
 0001:00035701       ?getReturnType@UnDecorator@@CA?AVDName@@PAV2@@Z 00436701 f   LIBCMT:undname.obj
 0001:00035730       ?getStorageConvention@UnDecorator@@CA?AVDName@@XZ 00436730 f i LIBCMT:undname.obj
 0001:0003573f       ??YDName@@QAEAAV0@W4DNameStatus@@@Z 0043673f f   LIBCMT:undname.obj
 0001:000357b8       ??4DName@@QAEAAV0@PAV0@@Z  004367b8 f   LIBCMT:undname.obj
 0001:00035820       ?doPchar@DName@@AAEXPBDH@Z 00436820 f   LIBCMT:undname.obj
 0001:000358c6       ??0DName@@QAE@D@Z          004368c6 f   LIBCMT:undname.obj
 0001:000358ec       ??0DName@@QAE@PBD@Z        004368ec f   LIBCMT:undname.obj
 0001:0003591d       ??0DName@@QAE@AAPBDD@Z     0043691d f   LIBCMT:undname.obj
 0001:000359ed       ??0DName@@QAE@_K@Z         004369ed f   LIBCMT:undname.obj
 0001:00035a56       ??0DName@@QAE@_J@Z         00436a56 f   LIBCMT:undname.obj
 0001:00035aed       ??HDName@@QBE?AV0@W4DNameStatus@@@Z 00436aed f   LIBCMT:undname.obj
 0001:00035b1b       ??YDName@@QAEAAV0@ABV0@@Z  00436b1b f   LIBCMT:undname.obj
 0001:00035b7d       ??YDName@@QAEAAV0@PAV0@@Z  00436b7d f   LIBCMT:undname.obj
 0001:00035c08       ??4DName@@QAEAAV0@D@Z      00436c08 f   LIBCMT:undname.obj
 0001:00035c24       ??4DName@@QAEAAV0@PBD@Z    00436c24 f   LIBCMT:undname.obj
 0001:00035c4e       ?getCallingConvention@UnDecorator@@CA?AVDName@@XZ 00436c4e f   LIBCMT:undname.obj
 0001:00035cf4       ?getVCallThunkType@UnDecorator@@CA?AVDName@@XZ 00436cf4 f i LIBCMT:undname.obj
 0001:00035d2b       ??HDName@@QBE?AV0@ABV0@@Z  00436d2b f   LIBCMT:undname.obj
 0001:00035d7c       ??HDName@@QBE?AV0@PAV0@@Z  00436d7c f   LIBCMT:undname.obj
 0001:00035daa       ??YDName@@QAEAAV0@D@Z      00436daa f   LIBCMT:undname.obj
 0001:00035e14       ??YDName@@QAEAAV0@PBD@Z    00436e14 f   LIBCMT:undname.obj
 0001:00035e80       ?getArgumentList@UnDecorator@@CA?AVDName@@XZ 00436e80 f   LIBCMT:undname.obj
 0001:00035f60       ?getVdispMapType@UnDecorator@@CA?AVDName@@ABV2@@Z 00436f60 f i LIBCMT:undname.obj
 0001:00035faf       ??H@YA?AVDName@@DABV0@@Z   00436faf f i LIBCMT:undname.obj
 0001:00035fd1       ??H@YA?AVDName@@W4DNameStatus@@ABV0@@Z 00436fd1 f i LIBCMT:undname.obj
 0001:00035ff3       ??H@YA?AVDName@@PBDABV0@@Z 00436ff3 f i LIBCMT:undname.obj
 0001:00036015       ??HDName@@QBE?AV0@D@Z      00437015 f   LIBCMT:undname.obj
 0001:00036043       ??HDName@@QBE?AV0@PBD@Z    00437043 f   LIBCMT:undname.obj
 0001:00036071       ?getDimension@UnDecorator@@CA?AVDName@@_N@Z 00437071 f   LIBCMT:undname.obj
 0001:000361b2       ?getEnumType@UnDecorator@@CA?AVDName@@XZ 004371b2 f i LIBCMT:undname.obj
 0001:00036286       ?getArgumentTypes@UnDecorator@@CA?AVDName@@XZ 00437286 f   LIBCMT:undname.obj
 0001:0003634a       ?getThrowTypes@UnDecorator@@CA?AVDName@@XZ 0043734a f   LIBCMT:undname.obj
 0001:000363c8       ?getExtendedDataIndirectType@UnDecorator@@CA?AVDName@@AADAA_NH@Z 004373c8 f   LIBCMT:undname.obj
 0001:000364ed       ?getArrayType@UnDecorator@@CA?AVDName@@ABV2@@Z 004374ed f i LIBCMT:undname.obj
 0001:0003664c       ?getLexicalFrame@UnDecorator@@CA?AVDName@@XZ 0043764c f i LIBCMT:undname.obj
 0001:0003667d       ?getDisplacement@UnDecorator@@CA?AVDName@@XZ 0043767d f i LIBCMT:undname.obj
 0001:0003668f       ?getCallIndex@UnDecorator@@CA?AVDName@@XZ 0043768f f i LIBCMT:undname.obj
 0001:000366a1       ?getGuardNumber@UnDecorator@@CA?AVDName@@XZ 004376a1 f i LIBCMT:undname.obj
 0001:000366b3       ?getVfTableType@UnDecorator@@CA?AVDName@@ABV2@@Z 004376b3 f i LIBCMT:undname.obj
 0001:00036803       ?getStringEncoding@UnDecorator@@CA?AVDName@@PADH@Z 00437803 f   LIBCMT:undname.obj
 0001:000368a3       ?getSignedDimension@UnDecorator@@CA?AVDName@@XZ 004378a3 f   LIBCMT:undname.obj
 0001:000368f3       ?getTemplateConstant@UnDecorator@@CA?AVDName@@XZ 004378f3 f   LIBCMT:undname.obj
 0001:00036bae       ?getPtrRefDataType@UnDecorator@@CA?AVDName@@ABV2@H@Z 00437bae f i LIBCMT:undname.obj
 0001:00036c87       ?getVbTableType@UnDecorator@@CA?AVDName@@ABV2@@Z 00437c87 f i LIBCMT:undname.obj
 0001:00036c9b       ?getTemplateArgumentList@UnDecorator@@CA?AVDName@@XZ 00437c9b f   LIBCMT:undname.obj
 0001:00036e53       ?getOperatorName@UnDecorator@@CA?AVDName@@_NPA_N@Z 00437e53 f i LIBCMT:undname.obj
 0001:000373c2       ?getTemplateName@UnDecorator@@CA?AVDName@@_N@Z 004383c2 f   LIBCMT:undname.obj
 0001:00037515       ?getZName@UnDecorator@@CA?AVDName@@_N@Z 00438515 f   LIBCMT:undname.obj
 0001:000376ff       ?getScopedName@UnDecorator@@CA?AVDName@@XZ 004386ff f   LIBCMT:undname.obj
 0001:000377e3       ?getECSUName@UnDecorator@@CA?AVDName@@XZ 004387e3 f i LIBCMT:undname.obj
 0001:000377f2       ?getECSUDataType@UnDecorator@@CA?AVDName@@XZ 004387f2 f   LIBCMT:undname.obj
 0001:000378f2       ?getSymbolName@UnDecorator@@CA?AVDName@@XZ 004388f2 f i LIBCMT:undname.obj
 0001:00037938       ?getBasedType@UnDecorator@@CA?AVDName@@XZ 00438938 f   LIBCMT:undname.obj
 0001:000379ca       ?composeDeclaration@UnDecorator@@CA?AVDName@@ABV2@@Z 004389ca f i LIBCMT:undname.obj
 0001:0003850c       ?getDecoratedName@UnDecorator@@CA?AVDName@@XZ 0043950c f   LIBCMT:undname.obj
 0001:0003871d       ?getScope@UnDecorator@@CA?AVDName@@XZ 0043971d f   LIBCMT:undname.obj
 0001:000389a8       ?getFunctionIndirectType@UnDecorator@@CA?AVDName@@ABV2@@Z 004399a8 f   LIBCMT:undname.obj
 0001:00038ce9       ?getDataIndirectType@UnDecorator@@CA?AVDName@@ABV2@D0H@Z 00439ce9 f   LIBCMT:undname.obj
 0001:000391cd       ??BUnDecorator@@QAEPADXZ   0043a1cd f i LIBCMT:undname.obj
 0001:00039319       ?getPtrRefType@UnDecorator@@CA?AVDName@@ABV2@0D@Z 0043a319 f   LIBCMT:undname.obj
 0001:0003942f       ?getPointerType@UnDecorator@@CA?AVDName@@ABV2@0@Z 0043a42f f i LIBCMT:undname.obj
 0001:0003944a       ?getPointerTypeArray@UnDecorator@@CA?AVDName@@ABV2@0@Z 0043a44a f i LIBCMT:undname.obj
 0001:00039465       ?getReferenceType@UnDecorator@@CA?AVDName@@ABV2@0@Z 0043a465 f i LIBCMT:undname.obj
 0001:00039480       ___unDName                 0043a480 f   LIBCMT:undname.obj
 0001:00039523       ___unDNameEx               0043a523 f   LIBCMT:undname.obj
 0001:000395c6       ?getBasicDataType@UnDecorator@@CA?AVDName@@ABV2@@Z 0043a5c6 f   LIBCMT:undname.obj
 0001:0003993a       ?getPrimaryDataType@UnDecorator@@CA?AVDName@@ABV2@@Z 0043a93a f   LIBCMT:undname.obj
 0001:00039a78       ?getDataType@UnDecorator@@CA?AVDName@@PAV2@@Z 0043aa78 f   LIBCMT:undname.obj
 0001:00039b29       ?getExternalDataType@UnDecorator@@CA?AVDName@@ABV2@@Z 0043ab29 f i LIBCMT:undname.obj
 0001:00039b90       __global_unwind2           0043ab90 f   LIBCMT:exsup.obj
 0001:00039bf5       __local_unwind2            0043abf5 f   LIBCMT:exsup.obj
 0001:00039c79       __abnormal_termination     0043ac79 f   LIBCMT:exsup.obj
 0001:00039c9c       __NLG_Notify1              0043ac9c f   LIBCMT:exsup.obj
 0001:00039ca5       __NLG_Notify               0043aca5 f   LIBCMT:exsup.obj
 0001:00039cbc       __NLG_Dispatch             0043acbc     LIBCMT:exsup.obj
 0001:00039cbc       __NLG_Dispatch2            0043acbc     LIBCMT:exsup.obj
 0001:00039cc4       __NLG_Call                 0043acc4 f   LIBCMT:exsup.obj
 0001:00039cc6       __NLG_Return2              0043acc6     LIBCMT:exsup.obj
 0001:00039cc7       __fcloseall                0043acc7 f   LIBCMT:closeall.obj
 0001:00039d66       __read_nolock              0043ad66 f   LIBCMT:read.obj
 0001:0003a308       __read                     0043b308 f   LIBCMT:read.obj
 0001:0003a3e4       __lseeki64_nolock          0043b3e4 f   LIBCMT:lseeki64.obj
 0001:0003a467       __lseeki64                 0043b467 f   LIBCMT:lseeki64.obj
 0001:0003a580       __isatty                   0043b580 f   LIBCMT:isatty.obj
 0001:0003a5de       __putwch_nolock            0043b5de f   LIBCMT:putwch.obj
 0001:0003a6a0       __cputws                   0043b6a0 f   LIBCMT:putwch.obj
 0001:0003a73b       __putwch                   0043b73b f   LIBCMT:putwch.obj
 0001:0003a781       __mbtowc_l                 0043b781 f   LIBCMT:mbtowc.obj
 0001:0003a894       _mbtowc                    0043b894 f   LIBCMT:mbtowc.obj
 0001:0003a8ab       __set_osfhnd               0043b8ab f   LIBCMT:osfinfo.obj
 0001:0003a928       __free_osfhnd              0043b928 f   LIBCMT:osfinfo.obj
 0001:0003a9a9       __get_osfhandle            0043b9a9 f   LIBCMT:osfinfo.obj
 0001:0003aa1a       ___lock_fhandle            0043ba1a f   LIBCMT:osfinfo.obj
 0001:0003aaba       __unlock_fhandle           0043baba f   LIBCMT:osfinfo.obj
 0001:0003aadc       __alloc_osfhnd             0043badc f   LIBCMT:osfinfo.obj
 0001:0003ac7b       __open_osfhandle           0043bc7b f   LIBCMT:osfinfo.obj
 0001:0003ad90       ___crtMessageBoxA          0043bd90 f   LIBCMT:crtmbox.obj
 0001:0003af2e       __set_error_mode           0043bf2e f   LIBCMT:errmode.obj
 0001:0003af74       ___set_app_type            0043bf74 f   LIBCMT:errmode.obj
 0001:0003af7e       ___get_app_type            0043bf7e f   LIBCMT:errmode.obj
 0001:0003afd5       __ismbbkalnum_l            0043bfd5 f   LIBCMT:ismbbyte.obj
 0001:0003afea       __ismbbkalnum              0043bfea f   LIBCMT:ismbbyte.obj
 0001:0003affd       __ismbbkprint_l            0043bffd f   LIBCMT:ismbbyte.obj
 0001:0003b012       __ismbbkprint              0043c012 f   LIBCMT:ismbbyte.obj
 0001:0003b025       __ismbbkpunct_l            0043c025 f   LIBCMT:ismbbyte.obj
 0001:0003b03a       __ismbbkpunct              0043c03a f   LIBCMT:ismbbyte.obj
 0001:0003b04d       __ismbbalnum_l             0043c04d f   LIBCMT:ismbbyte.obj
 0001:0003b065       __ismbbalnum               0043c065 f   LIBCMT:ismbbyte.obj
 0001:0003b07b       __ismbbalpha_l             0043c07b f   LIBCMT:ismbbyte.obj
 0001:0003b093       __ismbbalpha               0043c093 f   LIBCMT:ismbbyte.obj
 0001:0003b0a9       __ismbbgraph_l             0043c0a9 f   LIBCMT:ismbbyte.obj
 0001:0003b0c1       __ismbbgraph               0043c0c1 f   LIBCMT:ismbbyte.obj
 0001:0003b0d7       __ismbbprint_l             0043c0d7 f   LIBCMT:ismbbyte.obj
 0001:0003b0ef       __ismbbprint               0043c0ef f   LIBCMT:ismbbyte.obj
 0001:0003b105       __ismbbpunct_l             0043c105 f   LIBCMT:ismbbyte.obj
 0001:0003b11a       __ismbbpunct               0043c11a f   LIBCMT:ismbbyte.obj
 0001:0003b12d       __ismbblead_l              0043c12d f   LIBCMT:ismbbyte.obj
 0001:0003b142       __ismbblead                0043c142 f   LIBCMT:ismbbyte.obj
 0001:0003b155       __ismbbtrail_l             0043c155 f   LIBCMT:ismbbyte.obj
 0001:0003b16a       __ismbbtrail               0043c16a f   LIBCMT:ismbbyte.obj
 0001:0003b17d       __ismbbkana_l              0043c17d f   LIBCMT:ismbbyte.obj
 0001:0003b1d0       __ismbbkana                0043c1d0 f   LIBCMT:ismbbyte.obj
 0001:0003b1de       _atol                      0043c1de f   LIBCMT:atox.obj
 0001:0003b1ef       __atol_l                   0043c1ef f   LIBCMT:atox.obj
 0001:0003b204       _atoi                      0043c204 f   LIBCMT:atox.obj
 0001:0003b209       __atoi_l                   0043c209 f   LIBCMT:atox.obj
 0001:0003b20e       __atoi64                   0043c20e f   LIBCMT:atox.obj
 0001:0003b21f       __atoi64_l                 0043c21f f   LIBCMT:atox.obj
 0001:0003b240       __chkstk                   0043c240 f   LIBCMT:chkstk.obj
 0001:0003b240       __alloca_probe             0043c240     LIBCMT:chkstk.obj
 0001:0003b3a6       ___crtGetLocaleInfoW       0043c3a6 f   LIBCMT:w_loc.obj
 0001:0003b51e       ___crtGetLocaleInfoA       0043c51e f   LIBCMT:a_loc.obj
 0001:0003b559       __strnicmp_l               0043c559 f   LIBCMT:strnicmp.obj
 0001:0003b649       __strnicmp                 0043c649 f   LIBCMT:strnicmp.obj
 0001:0003b6b0       _strrchr                   0043c6b0 f   LIBCMT:strrchr.obj
 0001:0003b6dd       __atodbl_l                 0043c6dd f   LIBCMT:atodbl.obj
 0001:0003b783       __atodbl                   0043c783 f   LIBCMT:atodbl.obj
 0001:0003b796       __atoldbl_l                0043c796 f   LIBCMT:atodbl.obj
 0001:0003b83d       __atoldbl                  0043c83d f   LIBCMT:atodbl.obj
 0001:0003b850       __atoflt_l                 0043c850 f   LIBCMT:atodbl.obj
 0001:0003b8f6       __atoflt                   0043c8f6 f   LIBCMT:atodbl.obj
 0001:0003b909       __set_output_format        0043c909 f   LIBCMT:outputformat.obj
 0001:0003b940       __get_output_format        0043c940 f   LIBCMT:outputformat.obj
 0001:0003b946       __fptostr                  0043c946 f   LIBCMT:_fptostr.obj
 0001:0003ba03       ___dtold                   0043ca03 f   LIBCMT:cfout.obj
 0001:0003babe       __fltout2                  0043cabe f   LIBCMT:cfout.obj
 0001:0003bb50       __alldvrm                  0043cb50 f   LIBCMT:lldvrm.obj
 0001:0003bc30       __aullshr                  0043cc30 f   LIBCMT:ullshr.obj
 0001:0003bc4f       __fptrap                   0043cc4f f   LIBCMT:crt0fp.obj
 0001:0003bc58       __controlfp_s              0043cc58 f   LIBCMT:contrlfp.obj
 0001:0003bcc2       _printf                    0043ccc2 f   LIBCMT:printf.obj
 0001:0003bd71       __printf_l                 0043cd71 f   LIBCMT:printf.obj
 0001:0003bd87       __printf_s_l               0043cd87 f   LIBCMT:printf.obj
 0001:0003bd9d       _printf_s                  0043cd9d f   LIBCMT:printf.obj
 0001:0003bdb1       __printf_p_l               0043cdb1 f   LIBCMT:printf.obj
 0001:0003bdc7       __printf_p                 0043cdc7 f   LIBCMT:printf.obj
 0001:0003bddb       __set_printf_count_output  0043cddb f   LIBCMT:printf.obj
 0001:0003be00       __get_printf_count_output  0043ce00 f   LIBCMT:printf.obj
 0001:0003be16       __wctomb_s_l               0043ce16 f   LIBCMT:wctomb.obj
 0001:0003bf75       _wctomb_s                  0043cf75 f   LIBCMT:wctomb.obj
 0001:0003bf90       __wctomb_l                 0043cf90 f   LIBCMT:wctomb.obj
 0001:0003bfdf       _wctomb                    0043cfdf f   LIBCMT:wctomb.obj
 0001:0003c00f       __validate_param_reuseA    0043d00f f   LIBCMT:outputp.obj
 0001:0003c1d9       _get_crtdouble_arg         0043d1d9 f i LIBCMT:outputp.obj
 0001:0003c1e9       __output_p_l               0043d1e9 f   LIBCMT:outputp.obj
 0001:0003d216       __output_s_l               0043e216 f   LIBCMT:outputs.obj
 0001:0003e204       __open                     0043f204 f   LIBCMT:open.obj
 0001:0003e2ba       __sopen_helper             0043f2ba f   LIBCMT:open.obj
 0001:0003e386       __sopen                    0043f386 f   LIBCMT:open.obj
 0001:0003e3b6       __sopen_s                  0043f3b6 f   LIBCMT:open.obj
 0001:0003e3d4       __mbsicmp_l                0043f3d4 f   LIBCMT:mbsicmp.obj
 0001:0003e5ee       __mbsicmp                  0043f5ee f   LIBCMT:mbsicmp.obj
 0001:0003e601       __mbsnbcmp_l               0043f601 f   LIBCMT:mbsnbcmp.obj
 0001:0003e76a       __mbsnbcmp                 0043f76a f   LIBCMT:mbsnbcmp.obj
 0001:0003edc0       __wopen                    0043fdc0 f   LIBCMT:wopen.obj
 0001:0003ee76       __wsopen_helper            0043fe76 f   LIBCMT:wopen.obj
 0001:0003ef42       __wsopen                   0043ff42 f   LIBCMT:wopen.obj
 0001:0003ef72       __wsopen_s                 0043ff72 f   LIBCMT:wopen.obj
 0001:0003ef90       __wcsicmp_l                0043ff90 f   LIBCMT:wcsicmp.obj
 0001:0003f09f       __wcsicmp                  0044009f f   LIBCMT:wcsicmp.obj
 0001:0003f130       _wcsncmp                   00440130 f   LIBCMT:wcsncmp.obj
 0001:0003f165       __iswctype_l               00440165 f   LIBCMT:iswctype.obj
 0001:0003f1e7       _iswctype                  004401e7 f   LIBCMT:iswctype.obj
 0001:0003f255       _is_wctype                 00440255 f   LIBCMT:iswctype.obj
 0001:0003f25a       __getenv_helper_nolock     0044025a f   LIBCMT:getenv.obj
 0001:0003f410       _getenv                    00440410 f   LIBCMT:getenv.obj
 0001:0003f493       _getenv_s                  00440493 f   LIBCMT:getenv.obj
 0001:0003f56b       __dupenv_s                 0044056b f   LIBCMT:getenv.obj
 0001:0003f651       ___addl                    00440651 f i LIBCMT:intrncvt.obj
 0001:0003f672       __ZeroTail                 00440672 f i LIBCMT:intrncvt.obj
 0001:0003f6b7       __IncMan                   004406b7 f i LIBCMT:intrncvt.obj
 0001:0003f721       __RoundMan                 00440721 f i LIBCMT:intrncvt.obj
 0001:0003f80f       __CopyMan                  0044080f f i LIBCMT:intrncvt.obj
 0001:0003f82a       __FillZeroMan              0044082a f i LIBCMT:intrncvt.obj
 0001:0003f836       __IsZeroMan                00440836 f i LIBCMT:intrncvt.obj
 0001:0003f84f       __ShrMan                   0044084f f i LIBCMT:intrncvt.obj
 0001:0003f8e7       __ld12cvt                  004408e7 f i LIBCMT:intrncvt.obj
 0001:0003fe10       __ld12tod                  00440e10 f   LIBCMT:intrncvt.obj
 0001:00040352       __ld12tof                  00441352 f   LIBCMT:intrncvt.obj
 0001:00040894       __ld12told                 00441894 f   LIBCMT:intrncvt.obj
 0001:00040956       ___shl_12                  00441956 f i LIBCMT:strgtold.obj
 0001:00040984       ___shr_12                  00441984 f i LIBCMT:strgtold.obj
 0001:000409b1       ___ld12mul                 004419b1 f i LIBCMT:strgtold.obj
 0001:00040c25       ___multtenpow12            00441c25 f i LIBCMT:strgtold.obj
 0001:00040f2f       ___strgtold12_l            00441f2f f   LIBCMT:strgtold.obj
 0001:000415f3       ___STRINGTOLD_L            004425f3 f   LIBCMT:strgtold.obj
 0001:0004164c       __purecall                 0044264c f   LIBCMT:purevirt.obj
 0001:00041676       __set_purecall_handler     00442676 f   LIBCMT:purevirt.obj
 0001:00041698       __get_purecall_handler     00442698 f   LIBCMT:purevirt.obj
 0001:000416a5       ___initconin               004426a5 f   LIBCMT:initcon.obj
 0001:000416c4       ___initconout              004426c4 f   LIBCMT:initcon.obj
 0001:000416e3       ___termcon                 004426e3 f   LIBCMT:initcon.obj
 0001:0004193b       _strtol                    0044293b f   LIBCMT:strtol.obj
 0001:00041964       __strtol_l                 00442964 f   LIBCMT:strtol.obj
 0001:0004197f       _strtoul                   0044297f f   LIBCMT:strtol.obj
 0001:000419a9       __strtoul_l                004429a9 f   LIBCMT:strtol.obj
 0001:000419d0       ___ascii_strnicmp          004429d0 f   LIBCMT:_strnicm.obj
 0001:00041a31       ___add_12                  00442a31 f i LIBCMT:x10fout.obj
 0001:00041a9e       _$I10_OUTPUT               00442a9e f   LIBCMT:x10fout.obj
 0001:00042366       __set_controlfp            00443366 f   LIBCMT:ieee87.obj
 0001:000426bc       __statusfp                 004436bc f   LIBCMT:ieee87.obj
 0001:0004274c       __fpreset                  0044374c f   LIBCMT:ieee87.obj
 0001:0004297c       __statusfp2                0044397c f   LIBCMT:ieee87.obj
 0001:000429d4       __clearfp                  004439d4 f   LIBCMT:ieee87.obj
 0001:00042aab       ___control87_2             00443aab f   LIBCMT:ieee87.obj
 0001:00042db5       __control87                00443db5 f i LIBCMT:ieee87.obj
 0001:000430b8       __controlfp                004440b8 f   LIBCMT:ieee87.obj
 0001:000433c1       __stbuf                    004443c1 f   LIBCMT:_sftbuf.obj
 0001:00043457       __ftbuf                    00444457 f   LIBCMT:_sftbuf.obj
 0001:00043486       _vprintf_helper            00444486 f   LIBCMT:vprintf.obj
 0001:00043516       __vprintf_l                00444516 f   LIBCMT:vprintf.obj
 0001:00043530       __vprintf_s_l              00444530 f   LIBCMT:vprintf.obj
 0001:0004354a       __vprintf_p_l              0044454a f   LIBCMT:vprintf.obj
 0001:00043564       _vprintf                   00444564 f   LIBCMT:vprintf.obj
 0001:0004357c       _vprintf_s                 0044457c f   LIBCMT:vprintf.obj
 0001:00043594       __vprintf_p                00444594 f   LIBCMT:vprintf.obj
 0001:000435ac       __chsize_nolock            004445ac f   LIBCMT:chsize.obj
 0001:00043760       __chsize_s                 00444760 f   LIBCMT:chsize.obj
 0001:0004384d       __chsize                   0044484d f   LIBCMT:chsize.obj
 0001:00043865       __setmode_nolock           00444865 f   LIBCMT:setmode.obj
 0001:00043921       __set_fmode                00444921 f   LIBCMT:setmode.obj
 0001:00043967       __get_fmode                00444967 f   LIBCMT:setmode.obj
 0001:0004399b       __setmode                  0044499b f   LIBCMT:setmode.obj
 0001:00043a92       __towlower_l               00444a92 f   LIBCMT:towlower.obj
 0001:00043b3f       _towlower                  00444b3f f   LIBCMT:towlower.obj
 0001:00043b4d       __mbsnbicoll_l             00444b4d f   LIBCMT:mbsnbico.obj
 0001:00043c39       __mbsnbicoll               00444c39 f   LIBCMT:mbsnbico.obj
 0001:00043c50       ___wtomb_environ           00444c50 f   LIBCMT:wtombenv.obj
 0001:00043ce5       _strnlen                   00444ce5 f   LIBCMT:strlen_s.obj
 0001:00043cff       ___mtold12                 00444cff f   LIBCMT:mantold.obj
 0001:00043ecb       __statfp                   00444ecb f   LIBCMT:fpctrl.obj
 0001:00043ed6       __clrfp                    00444ed6 f   LIBCMT:fpctrl.obj
 0001:00043ee2       __ctrlfp                   00444ee2 f   LIBCMT:fpctrl.obj
 0001:00043f09       __set_statfp               00444f09 f   LIBCMT:fpctrl.obj
 0001:00043f5f       ___get_fpsr_sse2           00444f5f f   LIBCMT:fpctrl.obj
 0001:00043f7b       ___set_fpsr_sse2           00444f7b f   LIBCMT:fpctrl.obj
 0001:00043fed       ___fclrf_sse2              00444fed f   LIBCMT:fpctrl.obj
 0001:00044005       ___statfp_sse2             00445005 f   LIBCMT:fpctrl.obj
 0001:00044018       ___clrfp_sse2              00445018 f   LIBCMT:fpctrl.obj
 0001:00044030       ___ctrlfp_sse2             00445030 f   LIBCMT:fpctrl.obj
 0001:00044064       ___set_statfp_sse2         00445064 f   LIBCMT:fpctrl.obj
 0001:0004407a       __strnicoll_l              0044507a f   LIBCMT:strnicol.obj
 0001:00044172       __strnicoll                00445172 f   LIBCMT:strnicol.obj
 0001:00044243       ___crtsetenv               00445243 f   LIBCMT:setenv.obj
 0001:0004448a       __strdup                   0044548a f   LIBCMT:strdup.obj
 0001:000444da       __mbschr_l                 004454da f   LIBCMT:mbschr.obj
 0001:00044594       __mbschr                   00445594 f   LIBCMT:mbschr.obj
 0001:000445c0       _strchr                    004455c0 f   LIBCMT:strchr.obj
 0001:000445c6       ___from_strstr_to_strchr   004455c6     LIBCMT:strchr.obj
 0001:0004467e       _InterlockedIncrement@4    0044567e f   kernel32:KERNEL32.dll
 0001:00044684       _InterlockedDecrement@4    00445684 f   kernel32:KERNEL32.dll
 0001:0004468a       _Sleep@4                   0044568a f   kernel32:KERNEL32.dll
 0001:00044690       _InterlockedExchange@8     00445690 f   kernel32:KERNEL32.dll
 0001:00044696       _InitializeCriticalSection@4 00445696 f   kernel32:KERNEL32.dll
 0001:0004469c       _DeleteCriticalSection@4   0044569c f   kernel32:KERNEL32.dll
 0001:000446a2       _EnterCriticalSection@4    004456a2 f   kernel32:KERNEL32.dll
 0001:000446a8       _LeaveCriticalSection@4    004456a8 f   kernel32:KERNEL32.dll
 0001:000446ae       _WideCharToMultiByte@32    004456ae f   kernel32:KERNEL32.dll
 0001:000446b4       _InterlockedCompareExchange@12 004456b4 f   kernel32:KERNEL32.dll
 0001:000446ba       _MultiByteToWideChar@24    004456ba f   kernel32:KERNEL32.dll
 0001:000446c0       _GetLocaleInfoA@16         004456c0 f   kernel32:KERNEL32.dll
 0001:000446c6       _GetLastError@0            004456c6 f   kernel32:KERNEL32.dll
 0001:000446cc       _HeapFree@12               004456cc f   kernel32:KERNEL32.dll
 0001:000446d2       _TerminateProcess@8        004456d2 f   kernel32:KERNEL32.dll
 0001:000446d8       _GetCurrentProcess@0       004456d8 f   kernel32:KERNEL32.dll
 0001:000446de       _UnhandledExceptionFilter@4 004456de f   kernel32:KERNEL32.dll
 0001:000446e4       _SetUnhandledExceptionFilter@4 004456e4 f   kernel32:KERNEL32.dll
 0001:000446ea       _IsDebuggerPresent@0       004456ea f   kernel32:KERNEL32.dll
 0001:000446f0       _RaiseException@16         004456f0 f   kernel32:KERNEL32.dll
 0001:000446f6       _RtlUnwind@16              004456f6 f   kernel32:KERNEL32.dll
 0001:000446fc       _GetCommandLineA@0         004456fc f   kernel32:KERNEL32.dll
 0001:00044702       _GetVersionExA@4           00445702 f   kernel32:KERNEL32.dll
 0001:00044708       _HeapAlloc@12              00445708 f   kernel32:KERNEL32.dll
 0001:0004470e       _GetProcessHeap@0          0044570e f   kernel32:KERNEL32.dll
 0001:00044714       _GetStartupInfoA@4         00445714 f   kernel32:KERNEL32.dll
 0001:0004471a       _LCMapStringA@24           0044571a f   kernel32:KERNEL32.dll
 0001:00044720       _LCMapStringW@24           00445720 f   kernel32:KERNEL32.dll
 0001:00044726       _GetCPInfo@8               00445726 f   kernel32:KERNEL32.dll
 0001:0004472c       _GetProcAddress@8          0044572c f   kernel32:KERNEL32.dll
 0001:00044732       _GetModuleHandleA@4        00445732 f   kernel32:KERNEL32.dll
 0001:00044738       _ExitProcess@4             00445738 f   kernel32:KERNEL32.dll
 0001:0004473e       _GetTimeFormatA@24         0044573e f   kernel32:KERNEL32.dll
 0001:00044744       _GetDateFormatA@24         00445744 f   kernel32:KERNEL32.dll
 0001:0004474a       _CompareStringA@24         0044574a f   kernel32:KERNEL32.dll
 0001:00044750       _CompareStringW@24         00445750 f   kernel32:KERNEL32.dll
 0001:00044756       _GetStringTypeA@20         00445756 f   kernel32:KERNEL32.dll
 0001:0004475c       _GetStringTypeW@16         0044575c f   kernel32:KERNEL32.dll
 0001:00044762       _HeapDestroy@4             00445762 f   kernel32:KERNEL32.dll
 0001:00044768       _HeapCreate@12             00445768 f   kernel32:KERNEL32.dll
 0001:0004476e       _VirtualFree@12            0044576e f   kernel32:KERNEL32.dll
 0001:00044774       _FatalAppExitA@8           00445774 f   kernel32:KERNEL32.dll
 0001:0004477a       _VirtualAlloc@16           0044577a f   kernel32:KERNEL32.dll
 0001:00044780       _HeapReAlloc@16            00445780 f   kernel32:KERNEL32.dll
 0001:00044786       _TlsGetValue@4             00445786 f   kernel32:KERNEL32.dll
 0001:0004478c       _TlsAlloc@0                0044578c f   kernel32:KERNEL32.dll
 0001:00044792       _TlsSetValue@8             00445792 f   kernel32:KERNEL32.dll
 0001:00044798       _TlsFree@4                 00445798 f   kernel32:KERNEL32.dll
 0001:0004479e       _SetLastError@4            0044579e f   kernel32:KERNEL32.dll
 0001:000447a4       _GetCurrentThreadId@0      004457a4 f   kernel32:KERNEL32.dll
 0001:000447aa       _GetCurrentThread@0        004457aa f   kernel32:KERNEL32.dll
 0001:000447b0       _SetHandleCount@4          004457b0 f   kernel32:KERNEL32.dll
 0001:000447b6       _GetStdHandle@4            004457b6 f   kernel32:KERNEL32.dll
 0001:000447bc       _GetFileType@4             004457bc f   kernel32:KERNEL32.dll
 0001:000447c2       _WriteFile@20              004457c2 f   kernel32:KERNEL32.dll
 0001:000447c8       _GetConsoleCP@0            004457c8 f   kernel32:KERNEL32.dll
 0001:000447ce       _GetConsoleMode@8          004457ce f   kernel32:KERNEL32.dll
 0001:000447d4       _FlushFileBuffers@4        004457d4 f   kernel32:KERNEL32.dll
 0001:000447da       _SetFilePointer@16         004457da f   kernel32:KERNEL32.dll
 0001:000447e0       _CloseHandle@4             004457e0 f   kernel32:KERNEL32.dll
 0001:000447e6       _GetModuleFileNameA@12     004457e6 f   kernel32:KERNEL32.dll
 0001:000447ec       _FreeEnvironmentStringsA@4 004457ec f   kernel32:KERNEL32.dll
 0001:000447f2       _GetEnvironmentStrings@0   004457f2 f   kernel32:KERNEL32.dll
 0001:000447f8       _FreeEnvironmentStringsW@4 004457f8 f   kernel32:KERNEL32.dll
 0001:000447fe       _GetEnvironmentStringsW@0  004457fe f   kernel32:KERNEL32.dll
 0001:00044804       _QueryPerformanceCounter@4 00445804 f   kernel32:KERNEL32.dll
 0001:0004480a       _GetTickCount@0            0044580a f   kernel32:KERNEL32.dll
 0001:00044810       _GetCurrentProcessId@0     00445810 f   kernel32:KERNEL32.dll
 0001:00044816       _GetSystemTimeAsFileTime@4 00445816 f   kernel32:KERNEL32.dll
 0001:0004481c       _GetACP@0                  0044581c f   kernel32:KERNEL32.dll
 0001:00044822       _GetOEMCP@0                00445822 f   kernel32:KERNEL32.dll
 0001:00044828       _HeapSize@12               00445828 f   kernel32:KERNEL32.dll
 0001:0004482e       _GetUserDefaultLCID@0      0044582e f   kernel32:KERNEL32.dll
 0001:00044834       _EnumSystemLocalesA@8      00445834 f   kernel32:KERNEL32.dll
 0001:0004483a       _IsValidLocale@8           0044583a f   kernel32:KERNEL32.dll
 0001:00044840       _IsValidCodePage@4         00445840 f   kernel32:KERNEL32.dll
 0001:00044846       _SetConsoleCtrlHandler@8   00445846 f   kernel32:KERNEL32.dll
 0001:0004484c       _FreeLibrary@4             0044584c f   kernel32:KERNEL32.dll
 0001:00044852       _LoadLibraryA@4            00445852 f   kernel32:KERNEL32.dll
 0001:00044858       _GetTimeZoneInformation@4  00445858 f   kernel32:KERNEL32.dll
 0001:0004485e       _ReadFile@20               0044585e f   kernel32:KERNEL32.dll
 0001:00044864       _WriteConsoleA@20          00445864 f   kernel32:KERNEL32.dll
 0001:0004486a       _GetConsoleOutputCP@0      0044586a f   kernel32:KERNEL32.dll
 0001:00044870       _WriteConsoleW@20          00445870 f   kernel32:KERNEL32.dll
 0001:00044876       _SetStdHandle@8            00445876 f   kernel32:KERNEL32.dll
 0001:0004487c       _GetLocaleInfoW@16         0044587c f   kernel32:KERNEL32.dll
 0001:00044882       _CreateFileA@28            00445882 f   kernel32:KERNEL32.dll
 0001:00044888       _CreateFileW@28            00445888 f   kernel32:KERNEL32.dll
 0001:0004488e       _SetEndOfFile@4            0044588e f   kernel32:KERNEL32.dll
 0001:00044894       _SetEnvironmentVariableA@8 00445894 f   kernel32:KERNEL32.dll
 0002:00000000       __imp__tfe_StopEngine      00449000     coengine:Coengine.dll
 0002:00000004       __imp__tfe_GetActionWord   00449004     coengine:Coengine.dll
 0002:00000008       __imp__tfe_ProcessNextLine 00449008     coengine:Coengine.dll
 0002:0000000c       __imp__tfe_StartEngine     0044900c     coengine:Coengine.dll
 0002:00000010       __imp__tfe_GenerateReport  00449010     coengine:Coengine.dll
 0002:00000014       \177Coengine_NULL_THUNK_DATA 00449014     coengine:Coengine.dll
 0002:00000018       __imp__SetEnvironmentVariableA@8 00449018     kernel32:KERNEL32.dll
 0002:0000001c       __imp__SetEndOfFile@4      0044901c     kernel32:KERNEL32.dll
 0002:00000020       __imp__CreateFileW@28      00449020     kernel32:KERNEL32.dll
 0002:00000024       __imp__CreateFileA@28      00449024     kernel32:KERNEL32.dll
 0002:00000028       __imp__GetLocaleInfoW@16   00449028     kernel32:KERNEL32.dll
 0002:0000002c       __imp__SetStdHandle@8      0044902c     kernel32:KERNEL32.dll
 0002:00000030       __imp__InterlockedIncrement@4 00449030     kernel32:KERNEL32.dll
 0002:00000034       __imp__InterlockedDecrement@4 00449034     kernel32:KERNEL32.dll
 0002:00000038       __imp__Sleep@4             00449038     kernel32:KERNEL32.dll
 0002:0000003c       __imp__InterlockedExchange@8 0044903c     kernel32:KERNEL32.dll
 0002:00000040       __imp__InitializeCriticalSection@4 00449040     kernel32:KERNEL32.dll
 0002:00000044       __imp__DeleteCriticalSection@4 00449044     kernel32:KERNEL32.dll
 0002:00000048       __imp__EnterCriticalSection@4 00449048     kernel32:KERNEL32.dll
 0002:0000004c       __imp__LeaveCriticalSection@4 0044904c     kernel32:KERNEL32.dll
 0002:00000050       __imp__WideCharToMultiByte@32 00449050     kernel32:KERNEL32.dll
 0002:00000054       __imp__InterlockedCompareExchange@12 00449054     kernel32:KERNEL32.dll
 0002:00000058       __imp__MultiByteToWideChar@24 00449058     kernel32:KERNEL32.dll
 0002:0000005c       __imp__GetLocaleInfoA@16   0044905c     kernel32:KERNEL32.dll
 0002:00000060       __imp__GetLastError@0      00449060     kernel32:KERNEL32.dll
 0002:00000064       __imp__HeapFree@12         00449064     kernel32:KERNEL32.dll
 0002:00000068       __imp__TerminateProcess@8  00449068     kernel32:KERNEL32.dll
 0002:0000006c       __imp__GetCurrentProcess@0 0044906c     kernel32:KERNEL32.dll
 0002:00000070       __imp__UnhandledExceptionFilter@4 00449070     kernel32:KERNEL32.dll
 0002:00000074       __imp__SetUnhandledExceptionFilter@4 00449074     kernel32:KERNEL32.dll
 0002:00000078       __imp__IsDebuggerPresent@0 00449078     kernel32:KERNEL32.dll
 0002:0000007c       __imp__RaiseException@16   0044907c     kernel32:KERNEL32.dll
 0002:00000080       __imp__RtlUnwind@16        00449080     kernel32:KERNEL32.dll
 0002:00000084       __imp__GetCommandLineA@0   00449084     kernel32:KERNEL32.dll
 0002:00000088       __imp__GetVersionExA@4     00449088     kernel32:KERNEL32.dll
 0002:0000008c       __imp__HeapAlloc@12        0044908c     kernel32:KERNEL32.dll
 0002:00000090       __imp__GetProcessHeap@0    00449090     kernel32:KERNEL32.dll
 0002:00000094       __imp__GetStartupInfoA@4   00449094     kernel32:KERNEL32.dll
 0002:00000098       __imp__LCMapStringA@24     00449098     kernel32:KERNEL32.dll
 0002:0000009c       __imp__LCMapStringW@24     0044909c     kernel32:KERNEL32.dll
 0002:000000a0       __imp__GetCPInfo@8         004490a0     kernel32:KERNEL32.dll
 0002:000000a4       __imp__GetProcAddress@8    004490a4     kernel32:KERNEL32.dll
 0002:000000a8       __imp__GetModuleHandleA@4  004490a8     kernel32:KERNEL32.dll
 0002:000000ac       __imp__ExitProcess@4       004490ac     kernel32:KERNEL32.dll
 0002:000000b0       __imp__GetTimeFormatA@24   004490b0     kernel32:KERNEL32.dll
 0002:000000b4       __imp__GetDateFormatA@24   004490b4     kernel32:KERNEL32.dll
 0002:000000b8       __imp__CompareStringA@24   004490b8     kernel32:KERNEL32.dll
 0002:000000bc       __imp__CompareStringW@24   004490bc     kernel32:KERNEL32.dll
 0002:000000c0       __imp__GetStringTypeA@20   004490c0     kernel32:KERNEL32.dll
 0002:000000c4       __imp__GetStringTypeW@16   004490c4     kernel32:KERNEL32.dll
 0002:000000c8       __imp__HeapDestroy@4       004490c8     kernel32:KERNEL32.dll
 0002:000000cc       __imp__HeapCreate@12       004490cc     kernel32:KERNEL32.dll
 0002:000000d0       __imp__VirtualFree@12      004490d0     kernel32:KERNEL32.dll
 0002:000000d4       __imp__FatalAppExitA@8     004490d4     kernel32:KERNEL32.dll
 0002:000000d8       __imp__VirtualAlloc@16     004490d8     kernel32:KERNEL32.dll
 0002:000000dc       __imp__HeapReAlloc@16      004490dc     kernel32:KERNEL32.dll
 0002:000000e0       __imp__TlsGetValue@4       004490e0     kernel32:KERNEL32.dll
 0002:000000e4       __imp__TlsAlloc@0          004490e4     kernel32:KERNEL32.dll
 0002:000000e8       __imp__TlsSetValue@8       004490e8     kernel32:KERNEL32.dll
 0002:000000ec       __imp__TlsFree@4           004490ec     kernel32:KERNEL32.dll
 0002:000000f0       __imp__SetLastError@4      004490f0     kernel32:KERNEL32.dll
 0002:000000f4       __imp__GetCurrentThreadId@0 004490f4     kernel32:KERNEL32.dll
 0002:000000f8       __imp__GetCurrentThread@0  004490f8     kernel32:KERNEL32.dll
 0002:000000fc       __imp__SetHandleCount@4    004490fc     kernel32:KERNEL32.dll
 0002:00000100       __imp__GetStdHandle@4      00449100     kernel32:KERNEL32.dll
 0002:00000104       __imp__GetFileType@4       00449104     kernel32:KERNEL32.dll
 0002:00000108       __imp__WriteFile@20        00449108     kernel32:KERNEL32.dll
 0002:0000010c       __imp__GetConsoleCP@0      0044910c     kernel32:KERNEL32.dll
 0002:00000110       __imp__GetConsoleMode@8    00449110     kernel32:KERNEL32.dll
 0002:00000114       __imp__FlushFileBuffers@4  00449114     kernel32:KERNEL32.dll
 0002:00000118       __imp__SetFilePointer@16   00449118     kernel32:KERNEL32.dll
 0002:0000011c       __imp__CloseHandle@4       0044911c     kernel32:KERNEL32.dll
 0002:00000120       __imp__GetModuleFileNameA@12 00449120     kernel32:KERNEL32.dll
 0002:00000124       __imp__FreeEnvironmentStringsA@4 00449124     kernel32:KERNEL32.dll
 0002:00000128       __imp__GetEnvironmentStrings@0 00449128     kernel32:KERNEL32.dll
 0002:0000012c       __imp__FreeEnvironmentStringsW@4 0044912c     kernel32:KERNEL32.dll
 0002:00000130       __imp__GetEnvironmentStringsW@0 00449130     kernel32:KERNEL32.dll
 0002:00000134       __imp__QueryPerformanceCounter@4 00449134     kernel32:KERNEL32.dll
 0002:00000138       __imp__GetTickCount@0      00449138     kernel32:KERNEL32.dll
 0002:0000013c       __imp__GetCurrentProcessId@0 0044913c     kernel32:KERNEL32.dll
 0002:00000140       __imp__GetSystemTimeAsFileTime@4 00449140     kernel32:KERNEL32.dll
 0002:00000144       __imp__GetACP@0            00449144     kernel32:KERNEL32.dll
 0002:00000148       __imp__GetOEMCP@0          00449148     kernel32:KERNEL32.dll
 0002:0000014c       __imp__HeapSize@12         0044914c     kernel32:KERNEL32.dll
 0002:00000150       __imp__GetUserDefaultLCID@0 00449150     kernel32:KERNEL32.dll
 0002:00000154       __imp__EnumSystemLocalesA@8 00449154     kernel32:KERNEL32.dll
 0002:00000158       __imp__IsValidLocale@8     00449158     kernel32:KERNEL32.dll
 0002:0000015c       __imp__IsValidCodePage@4   0044915c     kernel32:KERNEL32.dll
 0002:00000160       __imp__SetConsoleCtrlHandler@8 00449160     kernel32:KERNEL32.dll
 0002:00000164       __imp__FreeLibrary@4       00449164     kernel32:KERNEL32.dll
 0002:00000168       __imp__LoadLibraryA@4      00449168     kernel32:KERNEL32.dll
 0002:0000016c       __imp__GetTimeZoneInformation@4 0044916c     kernel32:KERNEL32.dll
 0002:00000170       __imp__ReadFile@20         00449170     kernel32:KERNEL32.dll
 0002:00000174       __imp__WriteConsoleA@20    00449174     kernel32:KERNEL32.dll
 0002:00000178       __imp__GetConsoleOutputCP@0 00449178     kernel32:KERNEL32.dll
 0002:0000017c       __imp__WriteConsoleW@20    0044917c     kernel32:KERNEL32.dll
 0002:00000180       \177KERNEL32_NULL_THUNK_DATA 00449180     kernel32:KERNEL32.dll
 0002:00000184       __imp__napi_FreeLibrary@4  00449184     napiwrapper:NapiWrapper.dll
 0002:00000188       __imp__napi_LoadLibrary@4  00449188     napiwrapper:NapiWrapper.dll
 0002:0000018c       __imp__napi_ExecuteActionWord@4 0044918c     napiwrapper:NapiWrapper.dll
 0002:00000190       \177NapiWrapper_NULL_THUNK_DATA 00449190     napiwrapper:NapiWrapper.dll
 0002:00000194       __imp__MessageBoxA@16      00449194     user32:USER32.dll
 0002:00000198       \177USER32_NULL_THUNK_DATA 00449198     user32:USER32.dll
 0002:0000019c       ___xc_a                    0044919c     LIBCMT:crt0init.obj
 0002:000001b0       ___xc_z                    004491b0     LIBCMT:crt0init.obj
 0002:000001b4       ___xi_a                    004491b4     LIBCMT:crt0init.obj
 0002:000001d4       ___xi_z                    004491d4     LIBCMT:crt0init.obj
 0002:000001d8       ___xp_a                    004491d8     LIBCMT:crt0init.obj
 0002:000001e4       ___xp_z                    004491e4     LIBCMT:crt0init.obj
 0002:000001e8       ___xt_a                    004491e8     LIBCMT:crt0init.obj
 0002:000001f0       ___xt_z                    004491f0     LIBCMT:crt0init.obj
 0002:0000021c       ??_C@_0P@GHFPNOJB@bad?5allocation?$AA@ 0044921c     IniFile.obj
 0002:0000022c       ?collate@?$_Locbase@H@std@@2HB 0044922c     IniFile.obj
 0002:00000230       ?ctype@?$_Locbase@H@std@@2HB 00449230     IniFile.obj
 0002:00000234       ?monetary@?$_Locbase@H@std@@2HB 00449234     IniFile.obj
 0002:00000238       ?numeric@?$_Locbase@H@std@@2HB 00449238     IniFile.obj
 0002:0000023c       ?time@?$_Locbase@H@std@@2HB 0044923c     IniFile.obj
 0002:00000240       ?messages@?$_Locbase@H@std@@2HB 00449240     IniFile.obj
 0002:00000244       ?all@?$_Locbase@H@std@@2HB 00449244     IniFile.obj
 0002:00000248       ?none@?$_Locbase@H@std@@2HB 00449248     IniFile.obj
 0002:0000024c       ?table_size@?$ctype@D@std@@2IB 0044924c     IniFile.obj
 0002:00000250       ?skipws@?$_Iosb@H@std@@2W4_Fmtflags@12@B 00449250     IniFile.obj
 0002:00000254       ?unitbuf@?$_Iosb@H@std@@2W4_Fmtflags@12@B 00449254     IniFile.obj
 0002:00000258       ?uppercase@?$_Iosb@H@std@@2W4_Fmtflags@12@B 00449258     IniFile.obj
 0002:0000025c       ?showbase@?$_Iosb@H@std@@2W4_Fmtflags@12@B 0044925c     IniFile.obj
 0002:00000260       ?showpoint@?$_Iosb@H@std@@2W4_Fmtflags@12@B 00449260     IniFile.obj
 0002:00000264       ?showpos@?$_Iosb@H@std@@2W4_Fmtflags@12@B 00449264     IniFile.obj
 0002:00000268       ?left@?$_Iosb@H@std@@2W4_Fmtflags@12@B 00449268     IniFile.obj
 0002:0000026c       ?right@?$_Iosb@H@std@@2W4_Fmtflags@12@B 0044926c     IniFile.obj
 0002:00000270       ?internal@?$_Iosb@H@std@@2W4_Fmtflags@12@B 00449270     IniFile.obj
 0002:00000274       ?dec@?$_Iosb@H@std@@2W4_Fmtflags@12@B 00449274     IniFile.obj
 0002:00000278       ?oct@?$_Iosb@H@std@@2W4_Fmtflags@12@B 00449278     IniFile.obj
 0002:0000027c       ?hex@?$_Iosb@H@std@@2W4_Fmtflags@12@B 0044927c     IniFile.obj
 0002:00000280       ?scientific@?$_Iosb@H@std@@2W4_Fmtflags@12@B 00449280     IniFile.obj
 0002:00000284       ?fixed@?$_Iosb@H@std@@2W4_Fmtflags@12@B 00449284     IniFile.obj
 0002:00000288       ?boolalpha@?$_Iosb@H@std@@2W4_Fmtflags@12@B 00449288     IniFile.obj
 0002:0000028c       ?_Stdio@?$_Iosb@H@std@@2W4_Fmtflags@12@B 0044928c     IniFile.obj
 0002:00000290       ?adjustfield@?$_Iosb@H@std@@2W4_Fmtflags@12@B 00449290     IniFile.obj
 0002:00000294       ?basefield@?$_Iosb@H@std@@2W4_Fmtflags@12@B 00449294     IniFile.obj
 0002:00000298       ?floatfield@?$_Iosb@H@std@@2W4_Fmtflags@12@B 00449298     IniFile.obj
 0002:0000029c       ?goodbit@?$_Iosb@H@std@@2W4_Iostate@12@B 0044929c     IniFile.obj
 0002:000002a0       ?eofbit@?$_Iosb@H@std@@2W4_Iostate@12@B 004492a0     IniFile.obj
 0002:000002a4       ?failbit@?$_Iosb@H@std@@2W4_Iostate@12@B 004492a4     IniFile.obj
 0002:000002a8       ?badbit@?$_Iosb@H@std@@2W4_Iostate@12@B 004492a8     IniFile.obj
 0002:000002ac       ?_Hardfail@?$_Iosb@H@std@@2W4_Iostate@12@B 004492ac     IniFile.obj
 0002:000002b0       ?in@?$_Iosb@H@std@@2W4_Openmode@12@B 004492b0     IniFile.obj
 0002:000002b4       ?out@?$_Iosb@H@std@@2W4_Openmode@12@B 004492b4     IniFile.obj
 0002:000002b8       ?ate@?$_Iosb@H@std@@2W4_Openmode@12@B 004492b8     IniFile.obj
 0002:000002bc       ?app@?$_Iosb@H@std@@2W4_Openmode@12@B 004492bc     IniFile.obj
 0002:000002c0       ?trunc@?$_Iosb@H@std@@2W4_Openmode@12@B 004492c0     IniFile.obj
 0002:000002c4       ?_Nocreate@?$_Iosb@H@std@@2W4_Openmode@12@B 004492c4     IniFile.obj
 0002:000002c8       ?_Noreplace@?$_Iosb@H@std@@2W4_Openmode@12@B 004492c8     IniFile.obj
 0002:000002cc       ?binary@?$_Iosb@H@std@@2W4_Openmode@12@B 004492cc     IniFile.obj
 0002:000002d0       ?beg@?$_Iosb@H@std@@2W4_Seekdir@12@B 004492d0     IniFile.obj
 0002:000002d4       ?cur@?$_Iosb@H@std@@2W4_Seekdir@12@B 004492d4     IniFile.obj
 0002:000002d8       ?end@?$_Iosb@H@std@@2W4_Seekdir@12@B 004492d8     IniFile.obj
 0002:000002dc       ??_7ios_base@std@@6B@      004492dc     IniFile.obj
 0002:000002e0       ??_7?$basic_istream@DU?$char_traits@D@std@@@std@@6B@ 004492e0     IniFile.obj
 0002:000002e4       ??_7?$basic_ios@DU?$char_traits@D@std@@@std@@6B@ 004492e4     IniFile.obj
 0002:000002e8       ??_7?$basic_streambuf@DU?$char_traits@D@std@@@std@@6B@ 004492e8     IniFile.obj
 0002:00000320       ??_7?$basic_filebuf@DU?$char_traits@D@std@@@std@@6B@ 00449320     IniFile.obj
 0002:00000358       ??_7failure@ios_base@std@@6B@ 00449358     IniFile.obj
 0002:00000360       ??_C@_0BA@ELKIONDK@bad?5locale?5name?$AA@ 00449360     IniFile.obj
 0002:00000370       ??_C@_01NBENCBCI@?$CK?$AA@ 00449370     IniFile.obj
 0002:00000374       ??_C@_01GFHCPBMG@C?$AA@    00449374     IniFile.obj
 0002:00000378       ??_C@_0BF@OOHOMBOF@ios_base?3?3eofbit?5set?$AA@ 00449378     IniFile.obj
 0002:00000390       ??_C@_0BG@FMKFHCIL@ios_base?3?3failbit?5set?$AA@ 00449390     IniFile.obj
 0002:000003a8       ??_C@_0BF@PHHKMMFD@ios_base?3?3badbit?5set?$AA@ 004493a8     IniFile.obj
 0002:000003c0       ??_C@_08EPJLHIJG@bad?5cast?$AA@ 004493c0     IniFile.obj
 0002:000003cc       ??_7?$basic_ifstream@DU?$char_traits@D@std@@@std@@6B@ 004493cc     IniFile.obj
 0002:000003d0       ??_C@_0BE@JONHPENG@map?1set?$DMT?$DO?5too?5long?$AA@ 004493d0     IniFile.obj
 0002:000003e4       ??_C@_0BM@PAPJHAGI@invalid?5map?1set?$DMT?$DO?5iterator?$AA@ 004493e4     IniFile.obj
 0002:00000400       ??_8?$basic_istream@DU?$char_traits@D@std@@@std@@7B@ 00449400     IniFile.obj
 0002:00000408       ??_8?$basic_ifstream@DU?$char_traits@D@std@@@std@@7B@ 00449408     IniFile.obj
 0002:00000410       ??_C@_09BIKBKDC@TestFrame?$AA@ 00449410     TestFrame.obj
 0002:00000420       ??_C@_0GJ@GCGCCLMN@Error?5occurred?5during?5the?5proces@ 00449420     TestFrame.obj
 0002:00000490       ??_C@_0ED@EBDDGFPK@TestFrame?5Engine?5could?5not?5be?5st@ 00449490     TestFrame.obj
 0002:000004d4       ??_C@_0CG@KDLDNGOJ@Could?5not?5open?5the?5specified?5ini@ 004494d4     TestFrame.obj
 0002:000004fc       ??_C@_07BGPNANBL@Library?$AA@ 004494fc     TestFrame.obj
 0002:00000504       ??_C@_07JAKHCILM@IniFile?$AA@ 00449504     TestFrame.obj
 0002:0000050c       ??_C@_06IFBEBKA@Report?$AA@ 0044950c     TestFrame.obj
 0002:00000514       ??_C@_07CDAMOABA@Cluster?$AA@ 00449514     TestFrame.obj
 0002:0000051c       ??_C@_0BK@NLFOOJOC@Error?5loading?5libraries?3?5?$AA@ 0044951c     TestFrame.obj
 0002:0000053c       ??_7bad_alloc@std@@6B@     0044953c     libcpmt:locale0.obj
 0002:00000548       ??_7facet@locale@std@@6B@  00449548     libcpmt:locale0.obj
 0002:00000550       ??_7_Locimp@locale@std@@6B@ 00449550     libcpmt:locale0.obj
 0002:00000554       ??_C@_00CNPNBAHC@?$AA@     00449554     libcpmt:locale0.obj
 0002:00000558       ?_BADOFF@std@@3JB          00449558     libcpmt:ios.obj
 0002:00000560       ??_7logic_error@std@@6B@   00449560     libcpmt:string.obj
 0002:0000056c       ??_7invalid_argument@std@@6B@ 0044956c     libcpmt:string.obj
 0002:00000578       ??_7length_error@std@@6B@  00449578     libcpmt:string.obj
 0002:00000584       ??_7out_of_range@std@@6B@  00449584     libcpmt:string.obj
 0002:0000058c       ??_C@_0BA@JFNIOLAK@string?5too?5long?$AA@ 0044958c     libcpmt:string.obj
 0002:0000059c       ??_C@_0BI@CFPLBAOH@invalid?5string?5position?$AA@ 0044959c     libcpmt:string.obj
 0002:000005b4       ??_C@_0BI@ILCMCLF@invalid?5string?5argument?$AA@ 004495b4     libcpmt:string.obj
 0002:000005cc       ??_C@_05LAPONLG@false?$AA@ 004495cc     libcpmt:locale.obj
 0002:000005d4       ??_C@_04LOAJBDKD@true?$AA@ 004495d4     libcpmt:locale.obj
 0002:000005e0       ??_7codecvt_base@std@@6B@  004495e0     libcpmt:locale.obj
 0002:000005f4       ??_7ctype_base@std@@6B@    004495f4     libcpmt:locale.obj
 0002:000005fc       ??_7?$ctype@D@std@@6B@     004495fc     libcpmt:locale.obj
 0002:0000062c       ??_7?$num_get@DV?$istreambuf_iterator@DU?$char_traits@D@std@@@std@@@std@@6B@ 0044962c     libcpmt:locale.obj
 0002:00000660       ??_7?$num_put@DV?$ostreambuf_iterator@DU?$char_traits@D@std@@@std@@@std@@6B@ 00449660     libcpmt:locale.obj
 0002:00000688       ??_7?$codecvt@DDH@std@@6B@ 00449688     libcpmt:locale.obj
 0002:000006ac       ??_7?$numpunct@D@std@@6B@  004496ac     libcpmt:locale.obj
 0002:000006c8       ??_7runtime_error@std@@6B@ 004496c8     libcpmt:locale.obj
 0002:000006d0       ??_C@_0BH@HHDGIIFB@0123456789abcdefABCDEF?$AA@ 004496d0     libcpmt:locale.obj
 0002:000006e8       ??_C@_01KGKMHCOC@e?$AA@    004496e8     libcpmt:locale.obj
 0002:000006ec       ??_C@_01DDCIFGEA@E?$AA@    004496ec     libcpmt:locale.obj
 0002:000006f0       ??_C@_02EAOCLKAK@ld?$AA@   004496f0     libcpmt:locale.obj
 0002:000006f4       ??_C@_02BDDLJJBK@lu?$AA@   004496f4     libcpmt:locale.obj
 0002:000006f8       ??_C@_02HIKPPMOK@Ld?$AA@   004496f8     libcpmt:locale.obj
 0002:000006fc       ??_C@_02CLHGNPPK@Lu?$AA@   004496fc     libcpmt:locale.obj
 0002:00000700       __real@38aa95a5b7f87a0f    00449700     libcpmt:locale.obj
 0002:00000708       __real@4202a05f20000000    00449708     libcpmt:locale.obj
 0002:00000710       __real@4733426172c74d82    00449710     libcpmt:locale.obj
 0002:00000718       __real@0000000000000000    00449718     libcpmt:locale.obj
 0002:00000720       ??_C@_02BBAHNLBA@?$CFp?$AA@ 00449720     libcpmt:locale.obj
 0002:00000724       ?ProcessDetach@NativeDll@<CrtImplementationDetails>@@0IB 00449724     libcpmt:fiopen.obj
 0002:00000728       ?ProcessAttach@NativeDll@<CrtImplementationDetails>@@0IB 00449728     libcpmt:fiopen.obj
 0002:0000072c       ?ThreadAttach@NativeDll@<CrtImplementationDetails>@@0IB 0044972c     libcpmt:fiopen.obj
 0002:00000730       ?ThreadDetach@NativeDll@<CrtImplementationDetails>@@0IB 00449730     libcpmt:fiopen.obj
 0002:00000734       ?ProcessVerifier@NativeDll@<CrtImplementationDetails>@@0IB 00449734     libcpmt:fiopen.obj
 0002:00000738       ??_C@_13BPINEIPE@?$AAr?$AA?$AA@ 00449738     libcpmt:fiopen.obj
 0002:00000778       ??_C@_13CIFDLIMG@?$AAw?$AA?$AA@ 00449778     libcpmt:fiopen.obj
 0002:0000077c       ??_C@_13FNCBLAIF@?$AAa?$AA?$AA@ 0044977c     libcpmt:fiopen.obj
 0002:00000780       ??_C@_15JJPIMNBO@?$AAr?$AAb?$AA?$AA@ 00449780     libcpmt:fiopen.obj
 0002:00000788       ??_C@_15MJDFFMKN@?$AAw?$AAb?$AA?$AA@ 00449788     libcpmt:fiopen.obj
 0002:00000790       ??_C@_15BMLKLNCL@?$AAa?$AAb?$AA?$AA@ 00449790     libcpmt:fiopen.obj
 0002:00000798       ??_C@_15HPOENKKJ@?$AAr?$AA?$CL?$AA?$AA@ 00449798     libcpmt:fiopen.obj
 0002:000007a0       ??_C@_15CPCJELBK@?$AAw?$AA?$CL?$AA?$AA@ 004497a0     libcpmt:fiopen.obj
 0002:000007a8       ??_C@_15PKKGKKJM@?$AAa?$AA?$CL?$AA?$AA@ 004497a8     libcpmt:fiopen.obj
 0002:000007b0       ??_C@_17IIOMHMAG@?$AAr?$AA?$CL?$AAb?$AA?$AA@ 004497b0     libcpmt:fiopen.obj
 0002:000007b8       ??_C@_17MAAMHCGC@?$AAw?$AA?$CL?$AAb?$AA?$AA@ 004497b8     libcpmt:fiopen.obj
 0002:000007c0       ??_C@_17HKNIEKMO@?$AAa?$AA?$CL?$AAb?$AA?$AA@ 004497c0     libcpmt:fiopen.obj
 0002:000007cc       ??_7messages_base@std@@6B@ 004497cc     libcpmt:wlocale.obj
 0002:000007d4       ??_7money_base@std@@6B@    004497d4     libcpmt:wlocale.obj
 0002:000007dc       ??_7time_base@std@@6B@     004497dc     libcpmt:wlocale.obj
 0002:000007e0       ??_C@_04FJCIEOIB@$?$CLxv?$AA@ 004497e0     libcpmt:wlocale.obj
 0002:000007e8       ??_C@_0HJ@PJOMAIHM@?$CLv$x?$CLv$xv$?$CLxv?$CL$xv$?$CLx?$CL$vx?$CL$vx$v?$CLx@ 004497e8     libcpmt:wlocale.obj
 0002:00000868       ??_7?$codecvt@_WDH@std@@6B@ 00449868     libcpmt:wlocale.obj
 0002:0000088c       ??_7?$codecvt@GDH@std@@6B@ 0044988c     libcpmt:wlocale.obj
 0002:000008b4       ??_7?$ctype@_W@std@@6B@    004498b4     libcpmt:wlocale.obj
 0002:000008f4       ??_7?$ctype@G@std@@6B@     004498f4     libcpmt:wlocale.obj
 0002:00000934       ??_7?$time_put@_WV?$ostreambuf_iterator@_WU?$char_traits@_W@std@@@std@@@std@@6B@ 00449934     libcpmt:wlocale.obj
 0002:00000940       ??_7?$num_get@_WV?$istreambuf_iterator@_WU?$char_traits@_W@std@@@std@@@std@@6B@ 00449940     libcpmt:wlocale.obj
 0002:00000974       ??_7?$num_put@_WV?$ostreambuf_iterator@_WU?$char_traits@_W@std@@@std@@@std@@6B@ 00449974     libcpmt:wlocale.obj
 0002:0000099c       ??_7?$collate@_W@std@@6B@  0044999c     libcpmt:wlocale.obj
 0002:000009b0       ??_7?$messages@_W@std@@6B@ 004499b0     libcpmt:wlocale.obj
 0002:000009c4       ??_7?$money_get@_WV?$istreambuf_iterator@_WU?$char_traits@_W@std@@@std@@@std@@6B@ 004499c4     libcpmt:wlocale.obj
 0002:000009d4       ??_7?$money_put@_WV?$ostreambuf_iterator@_WU?$char_traits@_W@std@@@std@@@std@@6B@ 004499d4     libcpmt:wlocale.obj
 0002:000009e4       ??_7?$_Mpunct@_W@std@@6B@  004499e4     libcpmt:wlocale.obj
 0002:00000a10       ??_7?$num_get@GV?$istreambuf_iterator@GU?$char_traits@G@std@@@std@@@std@@6B@ 00449a10     libcpmt:wlocale.obj
 0002:00000a44       ??_7?$num_put@GV?$ostreambuf_iterator@GU?$char_traits@G@std@@@std@@@std@@6B@ 00449a44     libcpmt:wlocale.obj
 0002:00000a6c       ??_7?$collate@G@std@@6B@   00449a6c     libcpmt:wlocale.obj
 0002:00000a80       ??_7?$messages@G@std@@6B@  00449a80     libcpmt:wlocale.obj
 0002:00000a94       ??_7?$money_get@GV?$istreambuf_iterator@GU?$char_traits@G@std@@@std@@@std@@6B@ 00449a94     libcpmt:wlocale.obj
 0002:00000aa4       ??_7?$money_put@GV?$ostreambuf_iterator@GU?$char_traits@G@std@@@std@@@std@@6B@ 00449aa4     libcpmt:wlocale.obj
 0002:00000ab4       ??_7?$_Mpunct@G@std@@6B@   00449ab4     libcpmt:wlocale.obj
 0002:00000ae0       ??_7?$time_put@GV?$ostreambuf_iterator@GU?$char_traits@G@std@@@std@@@std@@6B@ 00449ae0     libcpmt:wlocale.obj
 0002:00000ae8       ??_C@_01JOAMLHOP@?9?$AA@   00449ae8     libcpmt:wlocale.obj
 0002:00000af0       ??_7?$numpunct@_W@std@@6B@ 00449af0     libcpmt:wlocale.obj
 0002:00000b0c       ??_7?$numpunct@G@std@@6B@  00449b0c     libcpmt:wlocale.obj
 0002:00000b28       ??_7?$moneypunct@_W$0A@@std@@6B@ 00449b28     libcpmt:wlocale.obj
 0002:00000b54       ??_7?$moneypunct@_W$00@std@@6B@ 00449b54     libcpmt:wlocale.obj
 0002:00000b80       ??_7?$moneypunct@G$0A@@std@@6B@ 00449b80     libcpmt:wlocale.obj
 0002:00000bac       ??_7?$moneypunct@G$00@std@@6B@ 00449bac     libcpmt:wlocale.obj
 0002:00000bd4       ??_C@_04IHCGILC@?$CB?$CFx?$AA?$AA@ 00449bd4     libcpmt:wlocale.obj
 0002:00000be0       ??_C@_0FG@EOHGAEB@?3Sun?3Sunday?3Mon?3Monday?3Tue?3Tuesd@ 00449be0     libcpmt:wlocale.obj
 0002:00000c38       ??_C@_0IH@HPGJLCCK@?3Jan?3January?3Feb?3February?3Mar?3Ma@ 00449c38     libcpmt:wlocale.obj
 0002:00000cc4       ??_7?$time_get@_WV?$istreambuf_iterator@_WU?$char_traits@_W@std@@@std@@@std@@6B@ 00449cc4     libcpmt:wlocale.obj
 0002:00000ce4       ??_7?$time_get@GV?$istreambuf_iterator@GU?$char_traits@G@std@@@std@@@std@@6B@ 00449ce4     libcpmt:wlocale.obj
 0002:00000d00       ??_C@_05NNKBBLJI@?$CF?40Lf?$AA@ 00449d00     libcpmt:wlocale.obj
 0002:00000d0c       ??_7?$collate@D@std@@6B@   00449d0c     libcpmt:xlocale.obj
 0002:00000d20       ??_7?$messages@D@std@@6B@  00449d20     libcpmt:xlocale.obj
 0002:00000d34       ??_7?$money_get@DV?$istreambuf_iterator@DU?$char_traits@D@std@@@std@@@std@@6B@ 00449d34     libcpmt:xlocale.obj
 0002:00000d44       ??_7?$money_put@DV?$ostreambuf_iterator@DU?$char_traits@D@std@@@std@@@std@@6B@ 00449d44     libcpmt:xlocale.obj
 0002:00000d54       ??_7?$_Mpunct@D@std@@6B@   00449d54     libcpmt:xlocale.obj
 0002:00000d80       ??_7?$time_put@DV?$ostreambuf_iterator@DU?$char_traits@D@std@@@std@@@std@@6B@ 00449d80     libcpmt:xlocale.obj
 0002:00000d8c       ??_7?$moneypunct@D$0A@@std@@6B@ 00449d8c     libcpmt:xlocale.obj
 0002:00000db8       ??_7?$moneypunct@D$00@std@@6B@ 00449db8     libcpmt:xlocale.obj
 0002:00000de4       ??_7?$time_get@DV?$istreambuf_iterator@DU?$char_traits@D@std@@@std@@@std@@6B@ 00449de4     libcpmt:xlocale.obj
 0002:00000e50       __real@41b0000000000000    00449e50     libcpmt:xstof.obj
 0002:00000e58       __real@41cdcd6500000000    00449e58     libcpmt:xstof.obj
 0002:00000e60       __real@00000000            00449e60     libcpmt:xstof.obj
 0002:00000e68       __real@4024000000000000    00449e68     libcpmt:xstod.obj
 0002:00000ebc       __real@0a4fb11e            00449ebc     libcpmt:xfdtento.obj
 0002:00000ec0       __real@3ff0000000000000    00449ec0     libcpmt:xfdtento.obj
 0002:00000ec8       __real@3f800000            00449ec8     libcpmt:xfdtento.obj
 0002:00000f20       __real@0ac8062864ac6f43    00449f20     libcpmt:xdtento.obj
 0002:00000f78       ??_7exception@std@@6B@     00449f78     LIBCMT:stdexcpt.obj
 0002:00000f80       ??_C@_0BC@EOODALEL@Unknown?5exception?$AA@ 00449f80     LIBCMT:stdexcpt.obj
 0002:00000f98       ??_7bad_cast@std@@6B@      00449f98     LIBCMT:stdexcpt.obj
 0002:00000fa4       ??_7bad_typeid@std@@6B@    00449fa4     LIBCMT:stdexcpt.obj
 0002:00000fb0       ??_7__non_rtti_object@std@@6B@ 00449fb0     LIBCMT:stdexcpt.obj
 0002:00000fdc       ??_7type_info@@6B@         00449fdc     LIBCMT:typinfo.obj
 0002:00000fe0       ??_C@_13NOLLCAOD@?$AA?$AA?$AA?$AA@ 00449fe0     LIBCMT:a_map.obj
 0002:00000fe8       ___newctype                00449fe8     LIBCMT:ctype.obj
 0002:000012e8       __wctype                   0044a2e8     LIBCMT:ctype.obj
 0002:000014f0       ___newclmap                0044a4f0     LIBCMT:ctype.obj
 0002:00001670       ___newcumap                0044a670     LIBCMT:ctype.obj
 0002:000017f0       ??_C@_07LCBHPJJN@LC_TIME?$AA@ 0044a7f0     LIBCMT:setlocal.obj
 0002:000017f8       ??_C@_0L@DLHIECNL@LC_NUMERIC?$AA@ 0044a7f8     LIBCMT:setlocal.obj
 0002:00001804       ??_C@_0M@MIENIKLA@LC_MONETARY?$AA@ 0044a804     LIBCMT:setlocal.obj
 0002:00001810       ??_C@_08EADHIDAD@LC_CTYPE?$AA@ 0044a810     LIBCMT:setlocal.obj
 0002:0000181c       ??_C@_0L@KFJHEKIK@LC_COLLATE?$AA@ 0044a81c     LIBCMT:setlocal.obj
 0002:00001828       ??_C@_06NEFDFEKB@LC_ALL?$AA@ 0044a828     LIBCMT:setlocal.obj
 0002:00001830       ___lc_category             0044a830     LIBCMT:setlocal.obj
 0002:000018f8       ??_C@_03EGDHDPFD@_?4?0?$AA@ 0044a8f8     LIBCMT:setlocal.obj
 0002:000018fc       ??_C@_01LFCBOECM@?4?$AA@   0044a8fc     LIBCMT:setlocal.obj
 0002:00001900       ??_C@_01IDAFKMJL@_?$AA@    0044a900     LIBCMT:setlocal.obj
 0002:00001904       ??_C@_01ICJEACDI@?$DL?$AA@ 0044a904     LIBCMT:setlocal.obj
 0002:00001908       ??_C@_01NEMOKFLO@?$DN?$AA@ 0044a908     LIBCMT:setlocal.obj
 0002:0000190c       ??_C@_02BALPLPBG@?$DN?$DL?$AA@ 0044a90c     LIBCMT:setlocal.obj
 0002:00001910       __FPinit                   0044a910     LIBCMT:fpinit.obj
 0002:00001914       __FPmtinit                 0044a914     LIBCMT:fpinit.obj
 0002:00001918       __FPmtterm                 0044a918     LIBCMT:fpinit.obj
 0002:0000191c       ??_C@_0P@MIGLKIOC@CorExitProcess?$AA@ 0044a91c     LIBCMT:crt0dat.obj
 0002:0000192c       ??_C@_0M@MBOPBNBK@mscoree?4dll?$AA@ 0044a92c     LIBCMT:crt0dat.obj
 0002:00001938       ??_C@_08JCCMCCIL@HH?3mm?3ss?$AA@ 0044a938     LIBCMT:strftime.obj
 0002:00001944       ??_C@_0BE@CKGJFCPC@dddd?0?5MMMM?5dd?0?5yyyy?$AA@ 0044a944     LIBCMT:strftime.obj
 0002:00001958       ??_C@_08BPBNCDIB@MM?1dd?1yy?$AA@ 0044a958     LIBCMT:strftime.obj
 0002:00001964       ??_C@_02CJNFDJBF@PM?$AA@   0044a964     LIBCMT:strftime.obj
 0002:00001968       ??_C@_02DEDBPAFC@AM?$AA@   0044a968     LIBCMT:strftime.obj
 0002:0000196c       ??_C@_08EDHMEBNP@December?$AA@ 0044a96c     LIBCMT:strftime.obj
 0002:00001978       ??_C@_08HCHEGEOA@November?$AA@ 0044a978     LIBCMT:strftime.obj
 0002:00001984       ??_C@_07JJNFCEND@October?$AA@ 0044a984     LIBCMT:strftime.obj
 0002:0000198c       ??_C@_09BHHEALKD@September?$AA@ 0044a98c     LIBCMT:strftime.obj
 0002:00001998       ??_C@_06LBBHFDDG@August?$AA@ 0044a998     LIBCMT:strftime.obj
 0002:000019a0       ??_C@_04MIEPOIFP@July?$AA@ 0044a9a0     LIBCMT:strftime.obj
 0002:000019a8       ??_C@_04CNLMGBGM@June?$AA@ 0044a9a8     LIBCMT:strftime.obj
 0002:000019b0       ??_C@_05DMJDNLEJ@April?$AA@ 0044a9b0     LIBCMT:strftime.obj
 0002:000019b8       ??_C@_05HPCKOFNC@March?$AA@ 0044a9b8     LIBCMT:strftime.obj
 0002:000019c0       ??_C@_08GNJGEPFN@February?$AA@ 0044a9c0     LIBCMT:strftime.obj
 0002:000019cc       ??_C@_07CGJPFGJA@January?$AA@ 0044a9cc     LIBCMT:strftime.obj
 0002:000019d4       ??_C@_03MKABNOCG@Dec?$AA@  0044a9d4     LIBCMT:strftime.obj
 0002:000019d8       ??_C@_03JPJOFNIA@Nov?$AA@  0044a9d8     LIBCMT:strftime.obj
 0002:000019dc       ??_C@_03BMAOKBAD@Oct?$AA@  0044a9dc     LIBCMT:strftime.obj
 0002:000019e0       ??_C@_03GGCAPAJC@Sep?$AA@  0044a9e0     LIBCMT:strftime.obj
 0002:000019e4       ??_C@_03IFJFEIGA@Aug?$AA@  0044a9e4     LIBCMT:strftime.obj
 0002:000019e8       ??_C@_03LBGABGKK@Jul?$AA@  0044a9e8     LIBCMT:strftime.obj
 0002:000019ec       ??_C@_03IDFGHECI@Jun?$AA@  0044a9ec     LIBCMT:strftime.obj
 0002:000019f0       ??_C@_03CNMDKL@May?$AA@    0044a9f0     LIBCMT:strftime.obj
 0002:000019f4       ??_C@_03LEOLGMJP@Apr?$AA@  0044a9f4     LIBCMT:strftime.obj
 0002:000019f8       ??_C@_03ODNJBKGA@Mar?$AA@  0044a9f8     LIBCMT:strftime.obj
 0002:000019fc       ??_C@_03HJBDCHOM@Feb?$AA@  0044a9fc     LIBCMT:strftime.obj
 0002:00001a00       ??_C@_03JIHJHPIE@Jan?$AA@  0044aa00     LIBCMT:strftime.obj
 0002:00001a04       ??_C@_08INBOOONO@Saturday?$AA@ 0044aa04     LIBCMT:strftime.obj
 0002:00001a10       ??_C@_06JECMNKMI@Friday?$AA@ 0044aa10     LIBCMT:strftime.obj
 0002:00001a18       ??_C@_08HACCIKIA@Thursday?$AA@ 0044aa18     LIBCMT:strftime.obj
 0002:00001a24       ??_C@_09DLIGFAKA@Wednesday?$AA@ 0044aa24     LIBCMT:strftime.obj
 0002:00001a30       ??_C@_07BAAGCFCM@Tuesday?$AA@ 0044aa30     LIBCMT:strftime.obj
 0002:00001a38       ??_C@_06JLEDEDGH@Monday?$AA@ 0044aa38     LIBCMT:strftime.obj
 0002:00001a40       ??_C@_06OOPIFAJ@Sunday?$AA@ 0044aa40     LIBCMT:strftime.obj
 0002:00001a48       ??_C@_03FEFJNEK@Sat?$AA@   0044aa48     LIBCMT:strftime.obj
 0002:00001a4c       ??_C@_03IDIOELNC@Fri?$AA@  0044aa4c     LIBCMT:strftime.obj
 0002:00001a50       ??_C@_03IOFIKPDN@Thu?$AA@  0044aa50     LIBCMT:strftime.obj
 0002:00001a54       ??_C@_03MHOMLAJA@Wed?$AA@  0044aa54     LIBCMT:strftime.obj
 0002:00001a58       ??_C@_03NAGEINEP@Tue?$AA@  0044aa58     LIBCMT:strftime.obj
 0002:00001a5c       ??_C@_03PDAGKDH@Mon?$AA@   0044aa5c     LIBCMT:strftime.obj
 0002:00001a60       ??_C@_03KOEHGMDN@Sun?$AA@  0044aa60     LIBCMT:strftime.obj
 0002:00001a64       ??_C@_03EBAPMIKO@a?1p?$AA@ 0044aa64     LIBCMT:strftime.obj
 0002:00001a68       ??_C@_05JAMEPDIN@am?1pm?$AA@ 0044aa68     LIBCMT:strftime.obj
 0002:00001a70       ??_C@_0O@NLDKAIKN@EncodePointer?$AA@ 0044aa70     LIBCMT:tidtable.obj
 0002:00001a80       ??_C@_0N@NHGLKGEC@KERNEL32?4DLL?$AA@ 0044aa80     LIBCMT:tidtable.obj
 0002:00001a90       ??_C@_0O@KBPMFGHI@DecodePointer?$AA@ 0044aa90     LIBCMT:tidtable.obj
 0002:00001aa0       ??_C@_07PEJMOBNF@FlsFree?$AA@ 0044aaa0     LIBCMT:tidtable.obj
 0002:00001aa8       ??_C@_0M@JCPCPOEF@FlsSetValue?$AA@ 0044aaa8     LIBCMT:tidtable.obj
 0002:00001ab4       ??_C@_0M@GDNOONDI@FlsGetValue?$AA@ 0044aab4     LIBCMT:tidtable.obj
 0002:00001ac0       ??_C@_08KNHFBNJ@FlsAlloc?$AA@ 0044aac0     LIBCMT:tidtable.obj
 0002:00001acc       __pDestructExceptionObject 0044aacc     LIBCMT:frame.obj
 0002:00001ad4       ??_7bad_exception@std@@6B@ 0044aad4     LIBCMT:frame.obj
 0002:00001adc       ??_C@_0O@DPKOEFFH@bad?5exception?$AA@ 0044aadc     LIBCMT:frame.obj
 0002:00001af4       ??_C@_0P@GGKDKEEG@runtime?5error?5?$AA@ 0044aaf4     LIBCMT:crt0msg.obj
 0002:00001b04       ??_C@_02PCIJFNDE@?$AN?6?$AA@ 0044ab04     LIBCMT:crt0msg.obj
 0002:00001b08       ??_C@_0O@MJNIPGOH@TLOSS?5error?$AN?6?$AA@ 0044ab08     LIBCMT:crt0msg.obj
 0002:00001b18       ??_C@_0N@BONNPDHF@SING?5error?$AN?6?$AA@ 0044ab18     LIBCMT:crt0msg.obj
 0002:00001b28       ??_C@_0P@MBDAJNE@DOMAIN?5error?$AN?6?$AA@ 0044ab28     LIBCMT:crt0msg.obj
 0002:00001b38       ??_C@_0JL@DFDOOABL@R6034?$AN?6An?5application?5has?5made?5a@ 0044ab38     LIBCMT:crt0msg.obj
 0002:00001bd8       ??_C@_0PH@EPAFIJ@R6033?$AN?6?9?5Attempt?5to?5use?5MSIL?5cod@ 0044abd8     LIBCMT:crt0msg.obj
 0002:00001cd0       ??_C@_0DD@BKEEABMM@R6032?$AN?6?9?5not?5enough?5space?5for?5lo@ 0044acd0     LIBCMT:crt0msg.obj
 0002:00001d08       ??_C@_0GD@OFKILIED@R6031?$AN?6?9?5Attempt?5to?5initialize?5t@ 0044ad08     LIBCMT:crt0msg.obj
 0002:00001d6c       ??_C@_0BP@LPMHJOKI@R6030?$AN?6?9?5CRT?5not?5initialized?$AN?6?$AA@ 0044ad6c     LIBCMT:crt0msg.obj
 0002:00001d8c       ??_C@_0CF@KJDAIALP@R6028?$AN?6?9?5unable?5to?5initialize?5he@ 0044ad8c     LIBCMT:crt0msg.obj
 0002:00001db4       ??_C@_0DF@GAKBPDFP@R6027?$AN?6?9?5not?5enough?5space?5for?5lo@ 0044adb4     LIBCMT:crt0msg.obj
 0002:00001dec       ??_C@_0DF@IBLNNAIG@R6026?$AN?6?9?5not?5enough?5space?5for?5st@ 0044adec     LIBCMT:crt0msg.obj
 0002:00001e24       ??_C@_0CG@IOHKGFNJ@R6025?$AN?6?9?5pure?5virtual?5function?5c@ 0044ae24     LIBCMT:crt0msg.obj
 0002:00001e4c       ??_C@_0DF@JIJJFJDC@R6024?$AN?6?9?5not?5enough?5space?5for?5_o@ 0044ae4c     LIBCMT:crt0msg.obj
 0002:00001e84       ??_C@_0CJ@EGEJHFME@R6019?$AN?6?9?5unable?5to?5open?5console?5@ 0044ae84     LIBCMT:crt0msg.obj
 0002:00001eb0       ??_C@_0CB@GNHNIELH@R6018?$AN?6?9?5unexpected?5heap?5error?$AN?6@ 0044aeb0     LIBCMT:crt0msg.obj
 0002:00001ed4       ??_C@_0CN@FOLDKNG@R6017?$AN?6?9?5unexpected?5multithread?5@ 0044aed4     LIBCMT:crt0msg.obj
 0002:00001f04       ??_C@_0CM@FAHFJNHO@R6016?$AN?6?9?5not?5enough?5space?5for?5th@ 0044af04     LIBCMT:crt0msg.obj
 0002:00001f30       ??_C@_0JG@LBKMGKLD@?$AN?6This?5application?5has?5requested@ 0044af30     LIBCMT:crt0msg.obj
 0002:00001fc8       ??_C@_0CM@FLCNIPKK@R6009?$AN?6?9?5not?5enough?5space?5for?5en@ 0044afc8     LIBCMT:crt0msg.obj
 0002:00001ff4       ??_C@_0CK@KMMJOAPP@R6008?$AN?6?9?5not?5enough?5space?5for?5ar@ 0044aff4     LIBCMT:crt0msg.obj
 0002:00002020       ??_C@_0CF@HOHMHDEK@R6002?$AN?6?9?5floating?5point?5not?5load@ 0044b020     LIBCMT:crt0msg.obj
 0002:00002048       ??_C@_0CF@GOGNBNAK@Microsoft?5Visual?5C?$CL?$CL?5Runtime?5Lib@ 0044b048     LIBCMT:crt0msg.obj
 0002:00002070       ??_C@_02PHMGELLB@?6?6?$AA@ 0044b070     LIBCMT:crt0msg.obj
 0002:00002074       ??_C@_03KHICJKCI@?4?4?4?$AA@ 0044b074     LIBCMT:crt0msg.obj
 0002:00002078       ??_C@_0BH@DNAGHKFM@?$DMprogram?5name?5unknown?$DO?$AA@ 0044b078     LIBCMT:crt0msg.obj
 0002:00002090       ??_C@_0BK@OFGJDLJJ@Runtime?5Error?$CB?6?6Program?3?5?$AA@ 0044b090     LIBCMT:crt0msg.obj
 0002:000020ac       ??_C@_0O@FMJNFNKE@united?9states?$AA@ 0044b0ac     LIBCMT:getqloc.obj
 0002:000020bc       ??_C@_0P@NDHFFKCA@united?9kingdom?$AA@ 0044b0bc     LIBCMT:getqloc.obj
 0002:000020cc       ??_C@_0BC@HHDADLGF@trinidad?5?$CG?5tobago?$AA@ 0044b0cc     LIBCMT:getqloc.obj
 0002:000020e0       ??_C@_0M@IOAEBDAC@south?9korea?$AA@ 0044b0e0     LIBCMT:getqloc.obj
 0002:000020ec       ??_C@_0N@FIELFKIJ@south?9africa?$AA@ 0044b0ec     LIBCMT:getqloc.obj
 0002:000020fc       ??_C@_0M@OPNDHCMC@south?5korea?$AA@ 0044b0fc     LIBCMT:getqloc.obj
 0002:00002108       ??_C@_0N@MDEOEPFI@south?5africa?$AA@ 0044b108     LIBCMT:getqloc.obj
 0002:00002118       ??_C@_06FKAPCJLB@slovak?$AA@ 0044b118     LIBCMT:getqloc.obj
 0002:00002120       ??_C@_0M@EFJANOAL@puerto?9rico?$AA@ 0044b120     LIBCMT:getqloc.obj
 0002:0000212c       ??_C@_08PGOJKDAI@pr?9china?$AA@ 0044b12c     LIBCMT:getqloc.obj
 0002:00002138       ??_C@_08JHDOMCMI@pr?5china?$AA@ 0044b138     LIBCMT:getqloc.obj
 0002:00002144       ??_C@_02JHCHFBLL@nz?$AA@   0044b144     LIBCMT:getqloc.obj
 0002:00002148       ??_C@_0M@LINHDHKP@new?9zealand?$AA@ 0044b148     LIBCMT:getqloc.obj
 0002:00002154       ??_C@_09IIIPPBDB@hong?9kong?$AA@ 0044b154     LIBCMT:getqloc.obj
 0002:00002160       ??_C@_07HJLCKBG@holland?$AA@ 0044b160     LIBCMT:getqloc.obj
 0002:00002168       ??_C@_0O@LEHGMHAG@great?5britain?$AA@ 0044b168     LIBCMT:getqloc.obj
 0002:00002178       ??_C@_07FACOMELA@england?$AA@ 0044b178     LIBCMT:getqloc.obj
 0002:00002180       ??_C@_05JIHCEICB@czech?$AA@ 0044b180     LIBCMT:getqloc.obj
 0002:00002188       ??_C@_05BBJOBLGB@china?$AA@ 0044b188     LIBCMT:getqloc.obj
 0002:00002190       ??_C@_07GPKPHICP@britain?$AA@ 0044b190     LIBCMT:getqloc.obj
 0002:00002198       ??_C@_07MHIPBHMG@america?$AA@ 0044b198     LIBCMT:getqloc.obj
 0002:000021a0       ??_C@_03KIALPMKC@usa?$AA@  0044b1a0     LIBCMT:getqloc.obj
 0002:000021a4       ??_C@_02FGJGKGGD@us?$AA@   0044b1a4     LIBCMT:getqloc.obj
 0002:000021a8       ??_C@_02NEINDODK@uk?$AA@   0044b1a8     LIBCMT:getqloc.obj
 0002:000021ac       ??_C@_05JMPCFJFJ@swiss?$AA@ 0044b1ac     LIBCMT:getqloc.obj
 0002:000021b4       ??_C@_0BA@HLOCPIOD@swedish?9finland?$AA@ 0044b1b4     LIBCMT:getqloc.obj
 0002:000021c4       ??_C@_0BC@PKCNIABK@spanish?9venezuela?$AA@ 0044b1c4     LIBCMT:getqloc.obj
 0002:000021d8       ??_C@_0BA@GBHHMIJI@spanish?9uruguay?$AA@ 0044b1d8     LIBCMT:getqloc.obj
 0002:000021e8       ??_C@_0BE@BHDOHPMC@spanish?9puerto?5rico?$AA@ 0044b1e8     LIBCMT:getqloc.obj
 0002:000021fc       ??_C@_0N@KMOIDGGN@spanish?9peru?$AA@ 0044b1fc     LIBCMT:getqloc.obj
 0002:0000220c       ??_C@_0BB@HMHLPGPH@spanish?9paraguay?$AA@ 0044b20c     LIBCMT:getqloc.obj
 0002:00002220       ??_C@_0P@MCPKNGFD@spanish?9panama?$AA@ 0044b220     LIBCMT:getqloc.obj
 0002:00002230       ??_C@_0BC@IHOHGAIL@spanish?9nicaragua?$AA@ 0044b230     LIBCMT:getqloc.obj
 0002:00002244       ??_C@_0P@KLMJDNFJ@spanish?9modern?$AA@ 0044b244     LIBCMT:getqloc.obj
 0002:00002254       ??_C@_0BA@BPAPGBCM@spanish?9mexican?$AA@ 0044b254     LIBCMT:getqloc.obj
 0002:00002264       ??_C@_0BB@PDECHHHE@spanish?9honduras?$AA@ 0044b264     LIBCMT:getqloc.obj
 0002:00002278       ??_C@_0BC@KLHKFGDB@spanish?9guatemala?$AA@ 0044b278     LIBCMT:getqloc.obj
 0002:0000228c       ??_C@_0BE@MFOOKJAI@spanish?9el?5salvador?$AA@ 0044b28c     LIBCMT:getqloc.obj
 0002:000022a0       ??_C@_0BA@FCOKFPFC@spanish?9ecuador?$AA@ 0044b2a0     LIBCMT:getqloc.obj
 0002:000022b0       ??_C@_0BL@PLMGIMOO@spanish?9dominican?5republic?$AA@ 0044b2b0     LIBCMT:getqloc.obj
 0002:000022cc       ??_C@_0BD@HLGDNMHB@spanish?9costa?5rica?$AA@ 0044b2cc     LIBCMT:getqloc.obj
 0002:000022e0       ??_C@_0BB@PKCBKCPE@spanish?9colombia?$AA@ 0044b2e0     LIBCMT:getqloc.obj
 0002:000022f4       ??_C@_0O@MCBIJGNE@spanish?9chile?$AA@ 0044b2f4     LIBCMT:getqloc.obj
 0002:00002304       ??_C@_0BA@BEFEIGJJ@spanish?9bolivia?$AA@ 0044b304     LIBCMT:getqloc.obj
 0002:00002314       ??_C@_0BC@EMECMPD@spanish?9argentina?$AA@ 0044b314     LIBCMT:getqloc.obj
 0002:00002328       ??_C@_0BF@EALFLENP@portuguese?9brazilian?$AA@ 0044b328     LIBCMT:getqloc.obj
 0002:00002340       ??_C@_0BC@HBLEBLNN@norwegian?9nynorsk?$AA@ 0044b340     LIBCMT:getqloc.obj
 0002:00002354       ??_C@_0BB@HMACDDCK@norwegian?9bokmal?$AA@ 0044b354     LIBCMT:getqloc.obj
 0002:00002368       ??_C@_09BAFFPPHE@norwegian?$AA@ 0044b368     LIBCMT:getqloc.obj
 0002:00002374       ??_C@_0O@EAJFJDFG@italian?9swiss?$AA@ 0044b374     LIBCMT:getqloc.obj
 0002:00002384       ??_C@_0O@CNOMPGD@irish?9english?$AA@ 0044b384     LIBCMT:getqloc.obj
 0002:00002394       ??_C@_0N@EDHBGCKG@german?9swiss?$AA@ 0044b394     LIBCMT:getqloc.obj
 0002:000023a4       ??_C@_0BC@JACMHNBP@german?9luxembourg?$AA@ 0044b3a4     LIBCMT:getqloc.obj
 0002:000023b8       ??_C@_0BE@HBGMGFEG@german?9lichtenstein?$AA@ 0044b3b8     LIBCMT:getqloc.obj
 0002:000023cc       ??_C@_0BA@HKKBIBKL@german?9austrian?$AA@ 0044b3cc     LIBCMT:getqloc.obj
 0002:000023dc       ??_C@_0N@GCAEPEBK@french?9swiss?$AA@ 0044b3dc     LIBCMT:getqloc.obj
 0002:000023ec       ??_C@_0BC@DJFJJCK@french?9luxembourg?$AA@ 0044b3ec     LIBCMT:getqloc.obj
 0002:00002400       ??_C@_0BA@NNCEDFIC@french?9canadian?$AA@ 0044b400     LIBCMT:getqloc.obj
 0002:00002410       ??_C@_0P@CMPOCLM@french?9belgian?$AA@ 0044b410     LIBCMT:getqloc.obj
 0002:00002420       ??_C@_0M@GHHDJOK@english?9usa?$AA@ 0044b420     LIBCMT:getqloc.obj
 0002:0000242c       ??_C@_0L@PLDJKEIL@english?9us?$AA@ 0044b42c     LIBCMT:getqloc.obj
 0002:00002438       ??_C@_0L@HJCCDMNC@english?9uk?$AA@ 0044b438     LIBCMT:getqloc.obj
 0002:00002444       ??_C@_0BK@CKLIAGJB@english?9trinidad?5y?5tobago?$AA@ 0044b444     LIBCMT:getqloc.obj
 0002:00002460       ??_C@_0BF@JMJMGNNF@english?9south?5africa?$AA@ 0044b460     LIBCMT:getqloc.obj
 0002:00002478       ??_C@_0L@DKIIFDFD@english?9nz?$AA@ 0044b478     LIBCMT:getqloc.obj
 0002:00002484       ??_C@_0BA@ONHGJCLH@english?9jamaica?$AA@ 0044b484     LIBCMT:getqloc.obj
 0002:00002494       ??_C@_0M@HJBGHOPO@english?9ire?$AA@ 0044b494     LIBCMT:getqloc.obj
 0002:000024a0       ??_C@_0BC@LFEKMIFB@english?9caribbean?$AA@ 0044b4a0     LIBCMT:getqloc.obj
 0002:000024b4       ??_C@_0M@OLDPFKHI@english?9can?$AA@ 0044b4b4     LIBCMT:getqloc.obj
 0002:000024c0       ??_C@_0P@OMDEHBMP@english?9belize?$AA@ 0044b4c0     LIBCMT:getqloc.obj
 0002:000024d0       ??_C@_0M@KFHFPFED@english?9aus?$AA@ 0044b4d0     LIBCMT:getqloc.obj
 0002:000024dc       ??_C@_0BB@MNMBKDFE@english?9american?$AA@ 0044b4dc     LIBCMT:getqloc.obj
 0002:000024f0       ??_C@_0O@KIDLNNBA@dutch?9belgian?$AA@ 0044b4f0     LIBCMT:getqloc.obj
 0002:00002500       ??_C@_0BE@JBKABBMH@chinese?9traditional?$AA@ 0044b500     LIBCMT:getqloc.obj
 0002:00002514       ??_C@_0BC@MJJMPKCG@chinese?9singapore?$AA@ 0044b514     LIBCMT:getqloc.obj
 0002:00002528       ??_C@_0BD@FDKADDCP@chinese?9simplified?$AA@ 0044b528     LIBCMT:getqloc.obj
 0002:0000253c       ??_C@_0BB@DBEFDDME@chinese?9hongkong?$AA@ 0044b53c     LIBCMT:getqloc.obj
 0002:00002550       ??_C@_07DHNMFMCI@chinese?$AA@ 0044b550     LIBCMT:getqloc.obj
 0002:00002558       ??_C@_03FNDDCHI@chi?$AA@   0044b558     LIBCMT:getqloc.obj
 0002:0000255c       ??_C@_03BMMIADDJ@chh?$AA@  0044b55c     LIBCMT:getqloc.obj
 0002:00002560       ??_C@_08OAIPJDGI@canadian?$AA@ 0044b560     LIBCMT:getqloc.obj
 0002:0000256c       ??_C@_07HBPMNPNJ@belgian?$AA@ 0044b56c     LIBCMT:getqloc.obj
 0002:00002574       ??_C@_0L@OEKOPBEL@australian?$AA@ 0044b574     LIBCMT:getqloc.obj
 0002:00002580       ??_C@_0BB@MEIMBEDG@american?9english?$AA@ 0044b580     LIBCMT:getqloc.obj
 0002:00002594       ??_C@_0BB@DFMDPDGB@american?5english?$AA@ 0044b594     LIBCMT:getqloc.obj
 0002:000025a8       ??_C@_08IJLOKOLL@american?$AA@ 0044b5a8     LIBCMT:getqloc.obj
 0002:000025b8       ___rg_language             0044b5b8     LIBCMT:getqloc.obj
 0002:000027c0       ___rg_country              0044b7c0     LIBCMT:getqloc.obj
 0002:00002878       ___rglangidNotDefault      0044b878     LIBCMT:getqloc.obj
 0002:0000288c       ??_C@_03NFKLAGEF@OCP?$AA@  0044b88c     LIBCMT:getqloc.obj
 0002:00002890       ??_C@_03DFHEHBHG@ACP?$AA@  0044b890     LIBCMT:getqloc.obj
 0002:00002894       ??_C@_0BC@NFIEMBLL@Norwegian?9Nynorsk?$AA@ 0044b894     LIBCMT:getqloc.obj
 0002:000028a8       ??_C@_05KLBDPFGC@e?$CL000?$AA@ 0044b8a8     LIBCMT:cvt.obj
 0002:000028b0       __real@4150017ec0000000    0044b8b0     LIBCMT:testfdiv.obj
 0002:000028b8       __real@4147ffff80000000    0044b8b8     LIBCMT:testfdiv.obj
 0002:000028c0       ??_C@_0BK@NHEOCAHP@IsProcessorFeaturePresent?$AA@ 0044b8c0     LIBCMT:testfdiv.obj
 0002:000028dc       ??_C@_08CPNIBGIE@KERNEL32?$AA@ 0044b8dc     LIBCMT:testfdiv.obj
 0002:000028e8       ??_C@_1O@CEDCILHN@?$AA?$CI?$AAn?$AAu?$AAl?$AAl?$AA?$CJ?$AA?$AA@ 0044b8e8     LIBCMT:output.obj
 0002:000028f8       ??_C@_06OJHGLDPL@?$CInull?$CJ?$AA@ 0044b8f8     LIBCMT:output.obj
 0002:00002900       ___lookuptable             0044b900     LIBCMT:output.obj
 0002:000029bc       ??_C@_0BC@JEAENNKH@SystemFunction036?$AA@ 0044b9bc     LIBCMT:rand_s.obj
 0002:000029d0       ??_C@_0N@JJPEKNFO@ADVAPI32?4DLL?$AA@ 0044b9d0     LIBCMT:rand_s.obj
 0002:000029e0       ??_C@_0CG@PKBDLMEO@InitializeCriticalSectionAndSpin@ 0044b9e0     LIBCMT:initcrit.obj
 0002:00002a08       ??_C@_0N@MDJJJHMB@kernel32?4dll?$AA@ 0044ba08     LIBCMT:initcrit.obj
 0002:00002a18       ___dnames                  0044ba18     LIBCMT:timeset.obj
 0002:00002a30       ___mnames                  0044ba30     LIBCMT:timeset.obj
 0002:00002a58       ??_C@_02CLFPBFFP@TZ?$AA@   0044ba58     LIBCMT:tzset.obj
 0002:00002a5c       ??_C@_0BK@CFCOFLF@?5Complete?5Object?5Locator?8?$AA@ 0044ba5c     LIBCMT:undname.obj
 0002:00002a78       ??_C@_0BN@MECKDCOJ@?5Class?5Hierarchy?5Descriptor?8?$AA@ 0044ba78     LIBCMT:undname.obj
 0002:00002a98       ??_C@_0BD@LGICGFMM@?5Base?5Class?5Array?8?$AA@ 0044ba98     LIBCMT:undname.obj
 0002:00002aac       ??_C@_0BM@LDKODKLH@?5Base?5Class?5Descriptor?5at?5?$CI?$AA@ 0044baac     LIBCMT:undname.obj
 0002:00002ac8       ??_C@_0BC@DAFEJGAK@?5Type?5Descriptor?8?$AA@ 0044bac8     LIBCMT:undname.obj
 0002:00002adc       ??_C@_0BM@PMGGMLDN@?$GAlocal?5static?5thread?5guard?8?$AA@ 0044badc     LIBCMT:undname.obj
 0002:00002af8       ??_C@_0CL@FGIJHLCE@?$GAmanaged?5vector?5copy?5constructor@ 0044baf8     LIBCMT:undname.obj
 0002:00002b24       ??_C@_0CJ@GJELGAMM@?$GAvector?5vbase?5copy?5constructor?5i@ 0044bb24     LIBCMT:undname.obj
 0002:00002b50       ??_C@_0CD@CGAJBKEJ@?$GAvector?5copy?5constructor?5iterato@ 0044bb50     LIBCMT:undname.obj
 0002:00002b74       ??_C@_0CB@PDBIFEP@?$GAdynamic?5atexit?5destructor?5for?5?8@ 0044bb74     LIBCMT:undname.obj
 0002:00002b98       ??_C@_0BL@CLIPGLGB@?$GAdynamic?5initializer?5for?5?8?$AA@ 0044bb98     LIBCMT:undname.obj
 0002:00002bb4       ??_C@_0CM@FCBBDIGB@?$GAeh?5vector?5vbase?5copy?5constructo@ 0044bbb4     LIBCMT:undname.obj
 0002:00002be0       ??_C@_0CG@HLDDJMAG@?$GAeh?5vector?5copy?5constructor?5iter@ 0044bbe0     LIBCMT:undname.obj
 0002:00002c08       ??_C@_0CF@IMGKMJNO@?$GAmanaged?5vector?5destructor?5itera@ 0044bc08     LIBCMT:undname.obj
 0002:00002c30       ??_C@_0CG@CFDHKGGD@?$GAmanaged?5vector?5constructor?5iter@ 0044bc30     LIBCMT:undname.obj
 0002:00002c58       ??_C@_0BN@CKNJLHMB@?$GAplacement?5delete?$FL?$FN?5closure?8?$AA@ 0044bc58     LIBCMT:undname.obj
 0002:00002c78       ??_C@_0BL@CNOONJFP@?$GAplacement?5delete?5closure?8?$AA@ 0044bc78     LIBCMT:undname.obj
 0002:00002c94       ??_C@_0P@HJKNJFNN@?$GAomni?5callsig?8?$AA@ 0044bc94     LIBCMT:undname.obj
 0002:00002ca4       ??_C@_09LBNFPBCA@?5delete?$FL?$FN?$AA@ 0044bca4     LIBCMT:undname.obj
 0002:00002cb0       ??_C@_06FHBGPFGH@?5new?$FL?$FN?$AA@ 0044bcb0     LIBCMT:undname.obj
 0002:00002cb8       ??_C@_0CE@IIHCMGGL@?$GAlocal?5vftable?5constructor?5closu@ 0044bcb8     LIBCMT:undname.obj
 0002:00002cdc       ??_C@_0BA@KKLDJDLB@?$GAlocal?5vftable?8?$AA@ 0044bcdc     LIBCMT:undname.obj
 0002:00002cec       ??_C@_05KHLCHHI@?$GARTTI?$AA@ 0044bcec     LIBCMT:undname.obj
 0002:00002cf4       ??_C@_03KLGMFNMG@?$GAEH?$AA@ 0044bcf4     LIBCMT:undname.obj
 0002:00002cf8       ??_C@_0BA@KBCDOMBN@?$GAudt?5returning?8?$AA@ 0044bcf8     LIBCMT:undname.obj
 0002:00002d08       ??_C@_0BL@LLKPOHJI@?$GAcopy?5constructor?5closure?8?$AA@ 0044bd08     LIBCMT:undname.obj
 0002:00002d24       ??_C@_0CH@OOJPLCPH@?$GAeh?5vector?5vbase?5constructor?5ite@ 0044bd24     LIBCMT:undname.obj
 0002:00002d4c       ??_C@_0CA@GCEOPDGL@?$GAeh?5vector?5destructor?5iterator?8?$AA@ 0044bd4c     LIBCMT:undname.obj
 0002:00002d6c       ??_C@_0CB@JONCMFFK@?$GAeh?5vector?5constructor?5iterator?8@ 0044bd6c     LIBCMT:undname.obj
 0002:00002d90       ??_C@_0BL@NILFHHPC@?$GAvirtual?5displacement?5map?8?$AA@ 0044bd90     LIBCMT:undname.obj
 0002:00002dac       ??_C@_0CE@IKBNEHA@?$GAvector?5vbase?5constructor?5iterat@ 0044bdac     LIBCMT:undname.obj
 0002:00002dd0       ??_C@_0BN@LFPFMEDL@?$GAvector?5destructor?5iterator?8?$AA@ 0044bdd0     LIBCMT:undname.obj
 0002:00002df0       ??_C@_0BO@PFGOCPJJ@?$GAvector?5constructor?5iterator?8?$AA@ 0044bdf0     LIBCMT:undname.obj
 0002:00002e10       ??_C@_0BN@IMDCHIKM@?$GAscalar?5deleting?5destructor?8?$AA@ 0044be10     LIBCMT:undname.obj
 0002:00002e30       ??_C@_0BO@OBMKPJIG@?$GAdefault?5constructor?5closure?8?$AA@ 0044be30     LIBCMT:undname.obj
 0002:00002e50       ??_C@_0BN@DEGPLNFK@?$GAvector?5deleting?5destructor?8?$AA@ 0044be50     LIBCMT:undname.obj
 0002:00002e70       ??_C@_0BD@JDLKDPAB@?$GAvbase?5destructor?8?$AA@ 0044be70     LIBCMT:undname.obj
 0002:00002e84       ??_C@_08OBABFOLI@?$GAstring?8?$AA@ 0044be84     LIBCMT:undname.obj
 0002:00002e90       ??_C@_0BF@KDPPACIK@?$GAlocal?5static?5guard?8?$AA@ 0044be90     LIBCMT:undname.obj
 0002:00002ea8       ??_C@_08LLFFHHDJ@?$GAtypeof?8?$AA@ 0044bea8     LIBCMT:undname.obj
 0002:00002eb4       ??_C@_07FEEIOKP@?$GAvcall?8?$AA@ 0044beb4     LIBCMT:undname.obj
 0002:00002ebc       ??_C@_09BLBHBJP@?$GAvbtable?8?$AA@ 0044bebc     LIBCMT:undname.obj
 0002:00002ec8       ??_C@_09IFPLHPGF@?$GAvftable?8?$AA@ 0044bec8     LIBCMT:undname.obj
 0002:00002ed4       ??_C@_02MHEGNOJ@?$FO?$DN?$AA@ 0044bed4     LIBCMT:undname.obj
 0002:00002ed8       ??_C@_02DHLNPPGH@?$HM?$DN?$AA@ 0044bed8     LIBCMT:undname.obj
 0002:00002edc       ??_C@_02FGJGFEAB@?$CG?$DN?$AA@ 0044bedc     LIBCMT:undname.obj
 0002:00002ee0       ??_C@_03CDNPDDLA@?$DM?$DM?$DN?$AA@ 0044bee0     LIBCMT:undname.obj
 0002:00002ee4       ??_C@_03IKFCCPFF@?$DO?$DO?$DN?$AA@ 0044bee4     LIBCMT:undname.obj
 0002:00002ee8       ??_C@_02FENAOKFI@?$CF?$DN?$AA@ 0044bee8     LIBCMT:undname.obj
 0002:00002eec       ??_C@_02FJEHGPIO@?1?$DN?$AA@ 0044beec     LIBCMT:undname.obj
 0002:00002ef0       ??_C@_02FKMDLLOA@?9?$DN?$AA@ 0044bef0     LIBCMT:undname.obj
 0002:00002ef4       ??_C@_02FOEOMHFC@?$CL?$DN?$AA@ 0044bef4     LIBCMT:undname.obj
 0002:00002ef8       ??_C@_02FPIMKNGF@?$CK?$DN?$AA@ 0044bef8     LIBCMT:undname.obj
 0002:00002efc       ??_C@_02NONPIBCD@?$HM?$HM?$AA@ 0044befc     LIBCMT:undname.obj
 0002:00002f00       ??_C@_02PPKAJPJL@?$CG?$CG?$AA@ 0044bf00     LIBCMT:undname.obj
 0002:00002f04       ??_C@_01DNKMNLPK@?$HM?$AA@ 0044bf04     LIBCMT:undname.obj
 0002:00002f08       ??_C@_01JKBOJNNK@?$FO?$AA@ 0044bf08     LIBCMT:undname.obj
 0002:00002f0c       ??_C@_01PJKLJHI@?$HO?$AA@  0044bf0c     LIBCMT:undname.obj
 0002:00002f10       ??_C@_02HCKGKOFO@?$CI?$CJ?$AA@ 0044bf10     LIBCMT:undname.obj
 0002:00002f14       ??_C@_01IHBHIGKO@?0?$AA@   0044bf14     LIBCMT:undname.obj
 0002:00002f18       ??_C@_02EEKDKGMJ@?$DO?$DN?$AA@ 0044bf18     LIBCMT:undname.obj
 0002:00002f1c       ??_C@_01PPODPGHN@?$DO?$AA@ 0044bf1c     LIBCMT:undname.obj
 0002:00002f20       ??_C@_02EHCHHCKH@?$DM?$DN?$AA@ 0044bf20     LIBCMT:undname.obj
 0002:00002f24       ??_C@_01MNNFJEPP@?$DM?$AA@ 0044bf24     LIBCMT:undname.obj
 0002:00002f28       ??_C@_01FGNFDNOH@?$CF?$AA@ 0044bf28     LIBCMT:undname.obj
 0002:00002f2c       ??_C@_01KMDKNFGN@?1?$AA@   0044bf2c     LIBCMT:undname.obj
 0002:00002f30       ??_C@_03MNHNFDLC@?9?$DO?$CK?$AA@ 0044bf30     LIBCMT:undname.obj
 0002:00002f34       ??_C@_01HNPIGOCE@?$CG?$AA@ 0044bf34     LIBCMT:undname.obj
 0002:00002f38       ??_C@_01MIFGBAGJ@?$CL?$AA@ 0044bf38     LIBCMT:undname.obj
 0002:00002f3c       ??_C@_02BAABKJLB@?9?9?$AA@ 0044bf3c     LIBCMT:undname.obj
 0002:00002f40       ??_C@_02ECNGHCIF@?$CL?$CL?$AA@ 0044bf40     LIBCMT:undname.obj
 0002:00002f44       ??_C@_02HBOOOICD@?9?$DO?$AA@ 0044bf44     LIBCMT:undname.obj
 0002:00002f48       ??_C@_08LHJFAFGD@operator?$AA@ 0044bf48     LIBCMT:undname.obj
 0002:00002f54       ??_C@_02GPECMEKF@?$FL?$FN?$AA@ 0044bf54     LIBCMT:undname.obj
 0002:00002f58       ??_C@_02FDNJECIE@?$CB?$DN?$AA@ 0044bf58     LIBCMT:undname.obj
 0002:00002f5c       ??_C@_02EGOFBIJA@?$DN?$DN?$AA@ 0044bf5c     LIBCMT:undname.obj
 0002:00002f60       ??_C@_01DCLJPIOD@?$CB?$AA@ 0044bf60     LIBCMT:undname.obj
 0002:00002f64       ??_C@_02FODMEDOG@?$DM?$DM?$AA@ 0044bf64     LIBCMT:undname.obj
 0002:00002f68       ??_C@_02GPIOPFAK@?$DO?$DO?$AA@ 0044bf68     LIBCMT:undname.obj
 0002:00002f6c       ??_C@_07FPCDHGMM@?5delete?$AA@ 0044bf6c     LIBCMT:undname.obj
 0002:00002f74       ??_C@_04NIHEBCM@?5new?$AA@ 0044bf74     LIBCMT:undname.obj
 0002:00002f7c       ??_C@_0M@GFIIJFMG@__unaligned?$AA@ 0044bf7c     LIBCMT:undname.obj
 0002:00002f88       ??_C@_0L@PILCLIHE@__restrict?$AA@ 0044bf88     LIBCMT:undname.obj
 0002:00002f94       ??_C@_07JOMMBBKO@__ptr64?$AA@ 0044bf94     LIBCMT:undname.obj
 0002:00002f9c       ??_C@_09HIJEGCPM@__clrcall?$AA@ 0044bf9c     LIBCMT:undname.obj
 0002:00002fa8       ??_C@_0L@JMKHOMEK@__fastcall?$AA@ 0044bfa8     LIBCMT:undname.obj
 0002:00002fb4       ??_C@_0L@NPHFGOKO@__thiscall?$AA@ 0044bfb4     LIBCMT:undname.obj
 0002:00002fc0       ??_C@_09IFJBGAPI@__stdcall?$AA@ 0044bfc0     LIBCMT:undname.obj
 0002:00002fcc       ??_C@_08GHMPAG@__pascal?$AA@ 0044bfcc     LIBCMT:undname.obj
 0002:00002fd8       ??_C@_07KOLFKCDI@__cdecl?$AA@ 0044bfd8     LIBCMT:undname.obj
 0002:00002fe0       ??_C@_08EHJDFFNH@__based?$CI?$AA@ 0044bfe0     LIBCMT:undname.obj
 0002:00003174       ??_7DNameNode@@6B@         0044c174     LIBCMT:undname.obj
 0002:00003184       ??_7charNode@@6B@          0044c184     LIBCMT:undname.obj
 0002:00003194       ??_7pDNameNode@@6B@        0044c194     LIBCMT:undname.obj
 0002:000031a4       ??_7DNameStatusNode@@6B@   0044c1a4     LIBCMT:undname.obj
 0002:000031b4       ??_7pcharNode@@6B@         0044c1b4     LIBCMT:undname.obj
 0002:000031c0       ??_C@_04OKOHEJBO@?5?$DP?$DP?5?$AA@ 0044c1c0     LIBCMT:undname.obj
 0002:000031c8       ??_C@_06EEGAIFAK@?$HLflat?$HN?$AA@ 0044c1c8     LIBCMT:undname.obj
 0002:000031d0       ??_C@_05JIBOFOHK@?$HLfor?5?$AA@ 0044c1d0     LIBCMT:undname.obj
 0002:000031d8       ??_C@_0BN@IBLMMFAP@?$GAnon?9type?9template?9parameter?$AA@ 0044c1d8     LIBCMT:undname.obj
 0002:000031f8       ??_C@_09EBBEKKIH@unsigned?5?$AA@ 0044c1f8     LIBCMT:undname.obj
 0002:00003204       ??_C@_05CJIMAING@long?5?$AA@ 0044c204     LIBCMT:undname.obj
 0002:0000320c       ??_C@_04LAHKHJMA@int?5?$AA@ 0044c20c     LIBCMT:undname.obj
 0002:00003214       ??_C@_06EHJMALKF@short?5?$AA@ 0044c214     LIBCMT:undname.obj
 0002:0000321c       ??_C@_05CIHEBHNO@char?5?$AA@ 0044c21c     LIBCMT:undname.obj
 0002:00003224       ??_C@_04GKJNKENE@void?$AA@ 0044c224     LIBCMT:undname.obj
 0002:0000322c       ??_C@_0L@EGPHHEKN@?$DMellipsis?$DO?$AA@ 0044c22c     LIBCMT:undname.obj
 0002:00003238       ??_C@_0M@ELJOJFFH@?0?$DMellipsis?$DO?$AA@ 0044c238     LIBCMT:undname.obj
 0002:00003244       ??_C@_04EENFHACM@?0?4?4?4?$AA@ 0044c244     LIBCMT:undname.obj
 0002:0000324c       ??_C@_07HDJPLPEK@?5throw?$CI?$AA@ 0044c24c     LIBCMT:undname.obj
 0002:00003254       ??_C@_02GOGNNPBN@?$CJ?$FL?$AA@ 0044c254     LIBCMT:undname.obj
 0002:00003258       ??_C@_02MDINNEEG@s?5?$AA@  0044c258     LIBCMT:undname.obj
 0002:0000325c       ??_C@_0BE@EODMJLIF@?$GAtemplate?9parameter?$AA@ 0044c25c     LIBCMT:undname.obj
 0002:00003270       ??_C@_01GEODFPGF@?8?$AA@   0044c270     LIBCMT:undname.obj
 0002:00003274       ??_C@_04HIBGFPH@NULL?$AA@  0044c274     LIBCMT:undname.obj
 0002:0000327c       ??_C@_0O@GKABPPIF@cli?3?3pin_ptr?$DM?$AA@ 0044c27c     LIBCMT:undname.obj
 0002:0000328c       ??_C@_0M@EALIELKG@cli?3?3array?$DM?$AA@ 0044c28c     LIBCMT:undname.obj
 0002:00003298       ??_C@_05BEFAKPML@void?5?$AA@ 0044c298     LIBCMT:undname.obj
 0002:000032a0       ??_C@_02OHHJMEON@?8?8?$AA@ 0044c2a0     LIBCMT:undname.obj
 0002:000032a4       ??_C@_0BG@JNJLAMPM@?$GAanonymous?5namespace?8?$AA@ 0044c2a4     LIBCMT:undname.obj
 0002:000032bc       ??_C@_01NLNLIGKH@?$GA?$AA@ 0044c2bc     LIBCMT:undname.obj
 0002:000032c0       ??_C@_0O@KHGCOMHP@generic?9type?9?$AA@ 0044c2c0     LIBCMT:undname.obj
 0002:000032d0       ??_C@_0BE@JAEOCHPE@template?9parameter?9?$AA@ 0044c2d0     LIBCMT:undname.obj
 0002:000032e4       ??_C@_02MOLJINC@?3?3?$AA@  0044c2e4     LIBCMT:undname.obj
 0002:000032e8       ??_C@_0P@GCIFDJCJ@?$GAunknown?5ecsu?8?$AA@ 0044c2e8     LIBCMT:undname.obj
 0002:000032f8       ??_C@_06MOJHIBMG@union?5?$AA@ 0044c2f8     LIBCMT:undname.obj
 0002:00003300       ??_C@_07DIBCDNGL@struct?5?$AA@ 0044c300     LIBCMT:undname.obj
 0002:00003308       ??_C@_06LJBABKPM@class?5?$AA@ 0044c308     LIBCMT:undname.obj
 0002:00003310       ??_C@_05LJGMCFOG@enum?5?$AA@ 0044c310     LIBCMT:undname.obj
 0002:00003318       ??_C@_08KOFANOFK@coclass?5?$AA@ 0044c318     LIBCMT:undname.obj
 0002:00003324       ??_C@_0N@DLIEFKNA@cointerface?5?$AA@ 0044c324     LIBCMT:undname.obj
 0002:00003334       ??_C@_02KCKGHPCA@?$CJ?5?$AA@ 0044c334     LIBCMT:undname.obj
 0002:00003338       ??_C@_0M@DHNBOJMP@extern?5?$CCC?$CC?5?$AA@ 0044c338     LIBCMT:undname.obj
 0002:00003344       ??_C@_08KJLFOPNE@?$FLthunk?$FN?3?$AA@ 0044c344     LIBCMT:undname.obj
 0002:00003350       ??_C@_08GPDDCMKI@public?3?5?$AA@ 0044c350     LIBCMT:undname.obj
 0002:0000335c       ??_C@_0M@GAIFPFIP@protected?3?5?$AA@ 0044c35c     LIBCMT:undname.obj
 0002:00003368       ??_C@_09LAPHOOG@private?3?5?$AA@ 0044c368     LIBCMT:undname.obj
 0002:00003374       ??_C@_08NIEOINHE@virtual?5?$AA@ 0044c374     LIBCMT:undname.obj
 0002:00003380       ??_C@_07PGOEDBHP@static?5?$AA@ 0044c380     LIBCMT:undname.obj
 0002:00003388       ??_C@_0DA@HGFJFBBE@?$GAtemplate?5static?5data?5member?5des@ 0044c388     LIBCMT:undname.obj
 0002:000033b8       ??_C@_0DB@ILEFOCIJ@?$GAtemplate?5static?5data?5member?5con@ 0044c3b8     LIBCMT:undname.obj
 0002:000033ec       ??_C@_0CB@KJDOOODE@?$GAlocal?5static?5destructor?5helper?8@ 0044c3ec     LIBCMT:undname.obj
 0002:00003410       ??_C@_0L@HNGCOGAE@?$GAadjustor?$HL?$AA@ 0044c410     LIBCMT:undname.obj
 0002:0000341c       ??_C@_0L@GHPFDFH@?$GAvtordisp?$HL?$AA@ 0044c41c     LIBCMT:undname.obj
 0002:00003428       ??_C@_0N@CBHHHENL@?$GAvtordispex?$HL?$AA@ 0044c428     LIBCMT:undname.obj
 0002:00003438       ??_C@_01CLKCMJKC@?5?$AA@   0044c438     LIBCMT:undname.obj
 0002:0000343c       ??_C@_02IGFCGPIL@?$HN?8?$AA@ 0044c43c     LIBCMT:undname.obj
 0002:00003440       ??_C@_03OPGICMGF@?$HN?8?5?$AA@ 0044c440     LIBCMT:undname.obj
 0002:00003444       ??_C@_06LIJLOJAG@const?5?$AA@ 0044c444     LIBCMT:undname.obj
 0002:0000344c       ??_C@_09GAIEOBLP@volatile?5?$AA@ 0044c44c     LIBCMT:undname.obj
 0002:00003458       ??_C@_04HEJADOOB@CV?3?5?$AA@ 0044c458     LIBCMT:undname.obj
 0002:00003460       ??_C@_08PABEKFH@volatile?$AA@ 0044c460     LIBCMT:undname.obj
 0002:0000346c       ??_C@_09EFNPDFFP@?5volatile?$AA@ 0044c46c     LIBCMT:undname.obj
 0002:00003478       ??_C@_05BNCCCJPP@const?$AA@ 0044c478     LIBCMT:undname.obj
 0002:00003480       ??_C@_07EDHNAJHC@signed?5?$AA@ 0044c480     LIBCMT:undname.obj
 0002:00003488       ??_C@_06BNJCAIGJ@double?$AA@ 0044c488     LIBCMT:undname.obj
 0002:00003490       ??_C@_04DDKJGDCM@bool?$AA@ 0044c490     LIBCMT:undname.obj
 0002:00003498       ??_C@_07CLGGIAMF@wchar_t?$AA@ 0044c498     LIBCMT:undname.obj
 0002:000034a0       ??_C@_07NFANNNEC@UNKNOWN?$AA@ 0044c4a0     LIBCMT:undname.obj
 0002:000034a8       ??_C@_08GAHOLHEO@__int128?$AA@ 0044c4a8     LIBCMT:undname.obj
 0002:000034b4       ??_C@_07OFLPPHGP@__int32?$AA@ 0044c4b4     LIBCMT:undname.obj
 0002:000034bc       ??_C@_07LFCOJCAC@__int64?$AA@ 0044c4bc     LIBCMT:undname.obj
 0002:000034c4       ??_C@_07ICFHOGAF@__int16?$AA@ 0044c4c4     LIBCMT:undname.obj
 0002:000034cc       ??_C@_06GCICPBLB@__w64?5?$AA@ 0044c4cc     LIBCMT:undname.obj
 0002:000034d4       ??_C@_06EBGKOKIG@__int8?$AA@ 0044c4d4     LIBCMT:undname.obj
 0002:000034dc       ??_C@_05KNFBNCOH@float?$AA@ 0044c4dc     LIBCMT:undname.obj
 0002:000034e4       ??_C@_04GOKPGOLB@long?$AA@ 0044c4e4     LIBCMT:undname.obj
 0002:000034ec       ??_C@_03JBIPMCLC@int?$AA@  0044c4ec     LIBCMT:undname.obj
 0002:000034f0       ??_C@_05BFKKPKCG@short?$AA@ 0044c4f0     LIBCMT:undname.obj
 0002:000034f8       ??_C@_04ENMBGAPA@char?$AA@ 0044c4f8     LIBCMT:undname.obj
 0002:00003500       ??_C@_0BI@DFKBFLJE@GetProcessWindowStation?$AA@ 0044c500     LIBCMT:crtmbox.obj
 0002:00003518       ??_C@_0BK@CIDNPOGP@GetUserObjectInformationA?$AA@ 0044c518     LIBCMT:crtmbox.obj
 0002:00003534       ??_C@_0BD@HHGDFDBJ@GetLastActivePopup?$AA@ 0044c534     LIBCMT:crtmbox.obj
 0002:00003548       ??_C@_0BA@HNOPNCHB@GetActiveWindow?$AA@ 0044c548     LIBCMT:crtmbox.obj
 0002:00003558       ??_C@_0M@CHKKJDAI@MessageBoxA?$AA@ 0044c558     LIBCMT:crtmbox.obj
 0002:00003564       ??_C@_0L@NDEGIDAG@USER32?4DLL?$AA@ 0044c564     LIBCMT:crtmbox.obj
 0002:00003570       ___lookuptable_s           0044c570     LIBCMT:outputs.obj
 0002:000035cc       ??_C@_06GDENEHCP@CONIN$?$AA@ 0044c5cc     LIBCMT:initcon.obj
 0002:000035d4       ??_C@_07GPDNMNG@CONOUT$?$AA@ 0044c5d4     LIBCMT:initcon.obj
 0002:000035dc       ??_C@_06IMKFLFPG@1?$CDQNAN?$AA@ 0044c5dc     LIBCMT:x10fout.obj
 0002:000035e4       ??_C@_05DNEBIAHO@1?$CDINF?$AA@ 0044c5e4     LIBCMT:x10fout.obj
 0002:000035ec       ??_C@_05PHHOCPM@1?$CDIND?$AA@ 0044c5ec     LIBCMT:x10fout.obj
 0002:000035f4       ??_C@_06PGGFOGJG@1?$CDSNAN?$AA@ 0044c5f4     LIBCMT:x10fout.obj
 0002:00003600       __load_config_used         0044c600     LIBCMT:loadcfg.obj
 0002:000036a0       ??_R4bad_alloc@std@@6B@    0044c6a0     libcpmt:locale0.obj
 0002:000036b4       ??_R3bad_alloc@std@@8      0044c6b4     libcpmt:locale0.obj
 0002:000036c4       ??_R2bad_alloc@std@@8      0044c6c4     libcpmt:locale0.obj
 0002:000036d0       ??_R1A@?0A@EA@bad_alloc@std@@8 0044c6d0     libcpmt:locale0.obj
 0002:000036ec       ??_R1A@?0A@EA@exception@std@@8 0044c6ec     libcpmt:locale0.obj
 0002:00003708       ??_R3exception@std@@8      0044c708     libcpmt:locale0.obj
 0002:00003718       ??_R2exception@std@@8      0044c718     libcpmt:locale0.obj
 0002:00003720       ??_R4facet@locale@std@@6B@ 0044c720     libcpmt:locale0.obj
 0002:00003734       ??_R3facet@locale@std@@8   0044c734     libcpmt:locale0.obj
 0002:00003744       ??_R2facet@locale@std@@8   0044c744     libcpmt:locale0.obj
 0002:0000374c       ??_R1A@?0A@EA@facet@locale@std@@8 0044c74c     libcpmt:locale0.obj
 0002:00003768       ??_R4_Locimp@locale@std@@6B@ 0044c768     libcpmt:locale0.obj
 0002:0000377c       ??_R3_Locimp@locale@std@@8 0044c77c     libcpmt:locale0.obj
 0002:0000378c       ??_R2_Locimp@locale@std@@8 0044c78c     libcpmt:locale0.obj
 0002:00003798       ??_R1A@?0A@EA@_Locimp@locale@std@@8 0044c798     libcpmt:locale0.obj
 0002:000037b4       ??_R4logic_error@std@@6B@  0044c7b4     libcpmt:string.obj
 0002:000037c8       ??_R3logic_error@std@@8    0044c7c8     libcpmt:string.obj
 0002:000037d8       ??_R2logic_error@std@@8    0044c7d8     libcpmt:string.obj
 0002:000037e4       ??_R1A@?0A@EA@logic_error@std@@8 0044c7e4     libcpmt:string.obj
 0002:00003800       ??_R4invalid_argument@std@@6B@ 0044c800     libcpmt:string.obj
 0002:00003814       ??_R3invalid_argument@std@@8 0044c814     libcpmt:string.obj
 0002:00003824       ??_R2invalid_argument@std@@8 0044c824     libcpmt:string.obj
 0002:00003834       ??_R1A@?0A@EA@invalid_argument@std@@8 0044c834     libcpmt:string.obj
 0002:00003850       ??_R4length_error@std@@6B@ 0044c850     libcpmt:string.obj
 0002:00003864       ??_R3length_error@std@@8   0044c864     libcpmt:string.obj
 0002:00003874       ??_R2length_error@std@@8   0044c874     libcpmt:string.obj
 0002:00003884       ??_R1A@?0A@EA@length_error@std@@8 0044c884     libcpmt:string.obj
 0002:000038a0       ??_R4out_of_range@std@@6B@ 0044c8a0     libcpmt:string.obj
 0002:000038b4       ??_R3out_of_range@std@@8   0044c8b4     libcpmt:string.obj
 0002:000038c4       ??_R2out_of_range@std@@8   0044c8c4     libcpmt:string.obj
 0002:000038d4       ??_R1A@?0A@EA@out_of_range@std@@8 0044c8d4     libcpmt:string.obj
 0002:000038f0       ??_R4codecvt_base@std@@6B@ 0044c8f0     libcpmt:locale.obj
 0002:00003904       ??_R3codecvt_base@std@@8   0044c904     libcpmt:locale.obj
 0002:00003914       ??_R2codecvt_base@std@@8   0044c914     libcpmt:locale.obj
 0002:00003920       ??_R1A@?0A@EA@codecvt_base@std@@8 0044c920     libcpmt:locale.obj
 0002:0000393c       ??_R4ctype_base@std@@6B@   0044c93c     libcpmt:locale.obj
 0002:00003950       ??_R3ctype_base@std@@8     0044c950     libcpmt:locale.obj
 0002:00003960       ??_R2ctype_base@std@@8     0044c960     libcpmt:locale.obj
 0002:0000396c       ??_R1A@?0A@EA@ctype_base@std@@8 0044c96c     libcpmt:locale.obj
 0002:00003988       ??_R4?$ctype@D@std@@6B@    0044c988     libcpmt:locale.obj
 0002:0000399c       ??_R3?$ctype@D@std@@8      0044c99c     libcpmt:locale.obj
 0002:000039ac       ??_R2?$ctype@D@std@@8      0044c9ac     libcpmt:locale.obj
 0002:000039bc       ??_R1A@?0A@EA@?$ctype@D@std@@8 0044c9bc     libcpmt:locale.obj
 0002:000039d8       ??_R4?$num_get@DV?$istreambuf_iterator@DU?$char_traits@D@std@@@std@@@std@@6B@ 0044c9d8     libcpmt:locale.obj
 0002:000039ec       ??_R3?$num_get@DV?$istreambuf_iterator@DU?$char_traits@D@std@@@std@@@std@@8 0044c9ec     libcpmt:locale.obj
 0002:000039fc       ??_R2?$num_get@DV?$istreambuf_iterator@DU?$char_traits@D@std@@@std@@@std@@8 0044c9fc     libcpmt:locale.obj
 0002:00003a08       ??_R1A@?0A@EA@?$num_get@DV?$istreambuf_iterator@DU?$char_traits@D@std@@@std@@@std@@8 0044ca08     libcpmt:locale.obj
 0002:00003a24       ??_R4?$num_put@DV?$ostreambuf_iterator@DU?$char_traits@D@std@@@std@@@std@@6B@ 0044ca24     libcpmt:locale.obj
 0002:00003a38       ??_R3?$num_put@DV?$ostreambuf_iterator@DU?$char_traits@D@std@@@std@@@std@@8 0044ca38     libcpmt:locale.obj
 0002:00003a48       ??_R2?$num_put@DV?$ostreambuf_iterator@DU?$char_traits@D@std@@@std@@@std@@8 0044ca48     libcpmt:locale.obj
 0002:00003a54       ??_R1A@?0A@EA@?$num_put@DV?$ostreambuf_iterator@DU?$char_traits@D@std@@@std@@@std@@8 0044ca54     libcpmt:locale.obj
 0002:00003a70       ??_R4?$codecvt@DDH@std@@6B@ 0044ca70     libcpmt:locale.obj
 0002:00003a84       ??_R3?$codecvt@DDH@std@@8  0044ca84     libcpmt:locale.obj
 0002:00003a94       ??_R2?$codecvt@DDH@std@@8  0044ca94     libcpmt:locale.obj
 0002:00003aa4       ??_R1A@?0A@EA@?$codecvt@DDH@std@@8 0044caa4     libcpmt:locale.obj
 0002:00003ac0       ??_R4?$numpunct@D@std@@6B@ 0044cac0     libcpmt:locale.obj
 0002:00003ad4       ??_R3?$numpunct@D@std@@8   0044cad4     libcpmt:locale.obj
 0002:00003ae4       ??_R2?$numpunct@D@std@@8   0044cae4     libcpmt:locale.obj
 0002:00003af0       ??_R1A@?0A@EA@?$numpunct@D@std@@8 0044caf0     libcpmt:locale.obj
 0002:00003b0c       ??_R4runtime_error@std@@6B@ 0044cb0c     libcpmt:locale.obj
 0002:00003b20       ??_R3runtime_error@std@@8  0044cb20     libcpmt:locale.obj
 0002:00003b30       ??_R2runtime_error@std@@8  0044cb30     libcpmt:locale.obj
 0002:00003b3c       ??_R1A@?0A@EA@runtime_error@std@@8 0044cb3c     libcpmt:locale.obj
 0002:00003b58       ??_R4messages_base@std@@6B@ 0044cb58     libcpmt:wlocale.obj
 0002:00003b6c       ??_R3messages_base@std@@8  0044cb6c     libcpmt:wlocale.obj
 0002:00003b7c       ??_R2messages_base@std@@8  0044cb7c     libcpmt:wlocale.obj
 0002:00003b88       ??_R1A@?0A@EA@messages_base@std@@8 0044cb88     libcpmt:wlocale.obj
 0002:00003ba4       ??_R4money_base@std@@6B@   0044cba4     libcpmt:wlocale.obj
 0002:00003bb8       ??_R3money_base@std@@8     0044cbb8     libcpmt:wlocale.obj
 0002:00003bc8       ??_R2money_base@std@@8     0044cbc8     libcpmt:wlocale.obj
 0002:00003bd4       ??_R1A@?0A@EA@money_base@std@@8 0044cbd4     libcpmt:wlocale.obj
 0002:00003bf0       ??_R4time_base@std@@6B@    0044cbf0     libcpmt:wlocale.obj
 0002:00003c04       ??_R3time_base@std@@8      0044cc04     libcpmt:wlocale.obj
 0002:00003c14       ??_R2time_base@std@@8      0044cc14     libcpmt:wlocale.obj
 0002:00003c20       ??_R1A@?0A@EA@time_base@std@@8 0044cc20     libcpmt:wlocale.obj
 0002:00003c3c       ??_R4?$codecvt@_WDH@std@@6B@ 0044cc3c     libcpmt:wlocale.obj
 0002:00003c50       ??_R3?$codecvt@_WDH@std@@8 0044cc50     libcpmt:wlocale.obj
 0002:00003c60       ??_R2?$codecvt@_WDH@std@@8 0044cc60     libcpmt:wlocale.obj
 0002:00003c70       ??_R1A@?0A@EA@?$codecvt@_WDH@std@@8 0044cc70     libcpmt:wlocale.obj
 0002:00003c8c       ??_R4?$codecvt@GDH@std@@6B@ 0044cc8c     libcpmt:wlocale.obj
 0002:00003ca0       ??_R3?$codecvt@GDH@std@@8  0044cca0     libcpmt:wlocale.obj
 0002:00003cb0       ??_R2?$codecvt@GDH@std@@8  0044ccb0     libcpmt:wlocale.obj
 0002:00003cc0       ??_R1A@?0A@EA@?$codecvt@GDH@std@@8 0044ccc0     libcpmt:wlocale.obj
 0002:00003cdc       ??_R4?$ctype@_W@std@@6B@   0044ccdc     libcpmt:wlocale.obj
 0002:00003cf0       ??_R3?$ctype@_W@std@@8     0044ccf0     libcpmt:wlocale.obj
 0002:00003d00       ??_R2?$ctype@_W@std@@8     0044cd00     libcpmt:wlocale.obj
 0002:00003d10       ??_R1A@?0A@EA@?$ctype@_W@std@@8 0044cd10     libcpmt:wlocale.obj
 0002:00003d2c       ??_R4?$ctype@G@std@@6B@    0044cd2c     libcpmt:wlocale.obj
 0002:00003d40       ??_R3?$ctype@G@std@@8      0044cd40     libcpmt:wlocale.obj
 0002:00003d50       ??_R2?$ctype@G@std@@8      0044cd50     libcpmt:wlocale.obj
 0002:00003d60       ??_R1A@?0A@EA@?$ctype@G@std@@8 0044cd60     libcpmt:wlocale.obj
 0002:00003d7c       ??_R4?$time_put@_WV?$ostreambuf_iterator@_WU?$char_traits@_W@std@@@std@@@std@@6B@ 0044cd7c     libcpmt:wlocale.obj
 0002:00003d90       ??_R3?$time_put@_WV?$ostreambuf_iterator@_WU?$char_traits@_W@std@@@std@@@std@@8 0044cd90     libcpmt:wlocale.obj
 0002:00003da0       ??_R2?$time_put@_WV?$ostreambuf_iterator@_WU?$char_traits@_W@std@@@std@@@std@@8 0044cda0     libcpmt:wlocale.obj
 0002:00003dac       ??_R1A@?0A@EA@?$time_put@_WV?$ostreambuf_iterator@_WU?$char_traits@_W@std@@@std@@@std@@8 0044cdac     libcpmt:wlocale.obj
 0002:00003dc8       ??_R4?$num_get@_WV?$istreambuf_iterator@_WU?$char_traits@_W@std@@@std@@@std@@6B@ 0044cdc8     libcpmt:wlocale.obj
 0002:00003ddc       ??_R3?$num_get@_WV?$istreambuf_iterator@_WU?$char_traits@_W@std@@@std@@@std@@8 0044cddc     libcpmt:wlocale.obj
 0002:00003dec       ??_R2?$num_get@_WV?$istreambuf_iterator@_WU?$char_traits@_W@std@@@std@@@std@@8 0044cdec     libcpmt:wlocale.obj
 0002:00003df8       ??_R1A@?0A@EA@?$num_get@_WV?$istreambuf_iterator@_WU?$char_traits@_W@std@@@std@@@std@@8 0044cdf8     libcpmt:wlocale.obj
 0002:00003e14       ??_R4?$num_put@_WV?$ostreambuf_iterator@_WU?$char_traits@_W@std@@@std@@@std@@6B@ 0044ce14     libcpmt:wlocale.obj
 0002:00003e28       ??_R3?$num_put@_WV?$ostreambuf_iterator@_WU?$char_traits@_W@std@@@std@@@std@@8 0044ce28     libcpmt:wlocale.obj
 0002:00003e38       ??_R2?$num_put@_WV?$ostreambuf_iterator@_WU?$char_traits@_W@std@@@std@@@std@@8 0044ce38     libcpmt:wlocale.obj
 0002:00003e44       ??_R1A@?0A@EA@?$num_put@_WV?$ostreambuf_iterator@_WU?$char_traits@_W@std@@@std@@@std@@8 0044ce44     libcpmt:wlocale.obj
 0002:00003e60       ??_R4?$collate@_W@std@@6B@ 0044ce60     libcpmt:wlocale.obj
 0002:00003e74       ??_R3?$collate@_W@std@@8   0044ce74     libcpmt:wlocale.obj
 0002:00003e84       ??_R2?$collate@_W@std@@8   0044ce84     libcpmt:wlocale.obj
 0002:00003e90       ??_R1A@?0A@EA@?$collate@_W@std@@8 0044ce90     libcpmt:wlocale.obj
 0002:00003eac       ??_R4?$messages@_W@std@@6B@ 0044ceac     libcpmt:wlocale.obj
 0002:00003ec0       ??_R3?$messages@_W@std@@8  0044cec0     libcpmt:wlocale.obj
 0002:00003ed0       ??_R2?$messages@_W@std@@8  0044ced0     libcpmt:wlocale.obj
 0002:00003ee0       ??_R1A@?0A@EA@?$messages@_W@std@@8 0044cee0     libcpmt:wlocale.obj
 0002:00003efc       ??_R4?$money_get@_WV?$istreambuf_iterator@_WU?$char_traits@_W@std@@@std@@@std@@6B@ 0044cefc     libcpmt:wlocale.obj
 0002:00003f10       ??_R3?$money_get@_WV?$istreambuf_iterator@_WU?$char_traits@_W@std@@@std@@@std@@8 0044cf10     libcpmt:wlocale.obj
 0002:00003f20       ??_R2?$money_get@_WV?$istreambuf_iterator@_WU?$char_traits@_W@std@@@std@@@std@@8 0044cf20     libcpmt:wlocale.obj
 0002:00003f2c       ??_R1A@?0A@EA@?$money_get@_WV?$istreambuf_iterator@_WU?$char_traits@_W@std@@@std@@@std@@8 0044cf2c     libcpmt:wlocale.obj
 0002:00003f48       ??_R4?$money_put@_WV?$ostreambuf_iterator@_WU?$char_traits@_W@std@@@std@@@std@@6B@ 0044cf48     libcpmt:wlocale.obj
 0002:00003f5c       ??_R3?$money_put@_WV?$ostreambuf_iterator@_WU?$char_traits@_W@std@@@std@@@std@@8 0044cf5c     libcpmt:wlocale.obj
 0002:00003f6c       ??_R2?$money_put@_WV?$ostreambuf_iterator@_WU?$char_traits@_W@std@@@std@@@std@@8 0044cf6c     libcpmt:wlocale.obj
 0002:00003f78       ??_R1A@?0A@EA@?$money_put@_WV?$ostreambuf_iterator@_WU?$char_traits@_W@std@@@std@@@std@@8 0044cf78     libcpmt:wlocale.obj
 0002:00003f94       ??_R4?$_Mpunct@_W@std@@6B@ 0044cf94     libcpmt:wlocale.obj
 0002:00003fa8       ??_R3?$_Mpunct@_W@std@@8   0044cfa8     libcpmt:wlocale.obj
 0002:00003fb8       ??_R2?$_Mpunct@_W@std@@8   0044cfb8     libcpmt:wlocale.obj
 0002:00003fc8       ??_R1A@?0A@EA@?$_Mpunct@_W@std@@8 0044cfc8     libcpmt:wlocale.obj
 0002:00003fe4       ??_R4?$num_get@GV?$istreambuf_iterator@GU?$char_traits@G@std@@@std@@@std@@6B@ 0044cfe4     libcpmt:wlocale.obj
 0002:00003ff8       ??_R3?$num_get@GV?$istreambuf_iterator@GU?$char_traits@G@std@@@std@@@std@@8 0044cff8     libcpmt:wlocale.obj
 0002:00004008       ??_R2?$num_get@GV?$istreambuf_iterator@GU?$char_traits@G@std@@@std@@@std@@8 0044d008     libcpmt:wlocale.obj
 0002:00004014       ??_R1A@?0A@EA@?$num_get@GV?$istreambuf_iterator@GU?$char_traits@G@std@@@std@@@std@@8 0044d014     libcpmt:wlocale.obj
 0002:00004030       ??_R4?$num_put@GV?$ostreambuf_iterator@GU?$char_traits@G@std@@@std@@@std@@6B@ 0044d030     libcpmt:wlocale.obj
 0002:00004044       ??_R3?$num_put@GV?$ostreambuf_iterator@GU?$char_traits@G@std@@@std@@@std@@8 0044d044     libcpmt:wlocale.obj
 0002:00004054       ??_R2?$num_put@GV?$ostreambuf_iterator@GU?$char_traits@G@std@@@std@@@std@@8 0044d054     libcpmt:wlocale.obj
 0002:00004060       ??_R1A@?0A@EA@?$num_put@GV?$ostreambuf_iterator@GU?$char_traits@G@std@@@std@@@std@@8 0044d060     libcpmt:wlocale.obj
 0002:0000407c       ??_R4?$collate@G@std@@6B@  0044d07c     libcpmt:wlocale.obj
 0002:00004090       ??_R3?$collate@G@std@@8    0044d090     libcpmt:wlocale.obj
 0002:000040a0       ??_R2?$collate@G@std@@8    0044d0a0     libcpmt:wlocale.obj
 0002:000040ac       ??_R1A@?0A@EA@?$collate@G@std@@8 0044d0ac     libcpmt:wlocale.obj
 0002:000040c8       ??_R4?$messages@G@std@@6B@ 0044d0c8     libcpmt:wlocale.obj
 0002:000040dc       ??_R3?$messages@G@std@@8   0044d0dc     libcpmt:wlocale.obj
 0002:000040ec       ??_R2?$messages@G@std@@8   0044d0ec     libcpmt:wlocale.obj
 0002:000040fc       ??_R1A@?0A@EA@?$messages@G@std@@8 0044d0fc     libcpmt:wlocale.obj
 0002:00004118       ??_R4?$money_get@GV?$istreambuf_iterator@GU?$char_traits@G@std@@@std@@@std@@6B@ 0044d118     libcpmt:wlocale.obj
 0002:0000412c       ??_R3?$money_get@GV?$istreambuf_iterator@GU?$char_traits@G@std@@@std@@@std@@8 0044d12c     libcpmt:wlocale.obj
 0002:0000413c       ??_R2?$money_get@GV?$istreambuf_iterator@GU?$char_traits@G@std@@@std@@@std@@8 0044d13c     libcpmt:wlocale.obj
 0002:00004148       ??_R1A@?0A@EA@?$money_get@GV?$istreambuf_iterator@GU?$char_traits@G@std@@@std@@@std@@8 0044d148     libcpmt:wlocale.obj
 0002:00004164       ??_R4?$money_put@GV?$ostreambuf_iterator@GU?$char_traits@G@std@@@std@@@std@@6B@ 0044d164     libcpmt:wlocale.obj
 0002:00004178       ??_R3?$money_put@GV?$ostreambuf_iterator@GU?$char_traits@G@std@@@std@@@std@@8 0044d178     libcpmt:wlocale.obj
 0002:00004188       ??_R2?$money_put@GV?$ostreambuf_iterator@GU?$char_traits@G@std@@@std@@@std@@8 0044d188     libcpmt:wlocale.obj
 0002:00004194       ??_R1A@?0A@EA@?$money_put@GV?$ostreambuf_iterator@GU?$char_traits@G@std@@@std@@@std@@8 0044d194     libcpmt:wlocale.obj
 0002:000041b0       ??_R4?$_Mpunct@G@std@@6B@  0044d1b0     libcpmt:wlocale.obj
 0002:000041c4       ??_R3?$_Mpunct@G@std@@8    0044d1c4     libcpmt:wlocale.obj
 0002:000041d4       ??_R2?$_Mpunct@G@std@@8    0044d1d4     libcpmt:wlocale.obj
 0002:000041e4       ??_R1A@?0A@EA@?$_Mpunct@G@std@@8 0044d1e4     libcpmt:wlocale.obj
 0002:00004200       ??_R4?$time_put@GV?$ostreambuf_iterator@GU?$char_traits@G@std@@@std@@@std@@6B@ 0044d200     libcpmt:wlocale.obj
 0002:00004214       ??_R3?$time_put@GV?$ostreambuf_iterator@GU?$char_traits@G@std@@@std@@@std@@8 0044d214     libcpmt:wlocale.obj
 0002:00004224       ??_R2?$time_put@GV?$ostreambuf_iterator@GU?$char_traits@G@std@@@std@@@std@@8 0044d224     libcpmt:wlocale.obj
 0002:00004230       ??_R1A@?0A@EA@?$time_put@GV?$ostreambuf_iterator@GU?$char_traits@G@std@@@std@@@std@@8 0044d230     libcpmt:wlocale.obj
 0002:0000424c       ??_R4?$numpunct@_W@std@@6B@ 0044d24c     libcpmt:wlocale.obj
 0002:00004260       ??_R3?$numpunct@_W@std@@8  0044d260     libcpmt:wlocale.obj
 0002:00004270       ??_R2?$numpunct@_W@std@@8  0044d270     libcpmt:wlocale.obj
 0002:0000427c       ??_R1A@?0A@EA@?$numpunct@_W@std@@8 0044d27c     libcpmt:wlocale.obj
 0002:00004298       ??_R4?$numpunct@G@std@@6B@ 0044d298     libcpmt:wlocale.obj
 0002:000042ac       ??_R3?$numpunct@G@std@@8   0044d2ac     libcpmt:wlocale.obj
 0002:000042bc       ??_R2?$numpunct@G@std@@8   0044d2bc     libcpmt:wlocale.obj
 0002:000042c8       ??_R1A@?0A@EA@?$numpunct@G@std@@8 0044d2c8     libcpmt:wlocale.obj
 0002:000042e4       ??_R4?$moneypunct@_W$0A@@std@@6B@ 0044d2e4     libcpmt:wlocale.obj
 0002:000042f8       ??_R3?$moneypunct@_W$0A@@std@@8 0044d2f8     libcpmt:wlocale.obj
 0002:00004308       ??_R2?$moneypunct@_W$0A@@std@@8 0044d308     libcpmt:wlocale.obj
 0002:0000431c       ??_R1A@?0A@EA@?$moneypunct@_W$0A@@std@@8 0044d31c     libcpmt:wlocale.obj
 0002:00004338       ??_R4?$moneypunct@_W$00@std@@6B@ 0044d338     libcpmt:wlocale.obj
 0002:0000434c       ??_R3?$moneypunct@_W$00@std@@8 0044d34c     libcpmt:wlocale.obj
 0002:0000435c       ??_R2?$moneypunct@_W$00@std@@8 0044d35c     libcpmt:wlocale.obj
 0002:00004370       ??_R1A@?0A@EA@?$moneypunct@_W$00@std@@8 0044d370     libcpmt:wlocale.obj
 0002:0000438c       ??_R4?$moneypunct@G$0A@@std@@6B@ 0044d38c     libcpmt:wlocale.obj
 0002:000043a0       ??_R3?$moneypunct@G$0A@@std@@8 0044d3a0     libcpmt:wlocale.obj
 0002:000043b0       ??_R2?$moneypunct@G$0A@@std@@8 0044d3b0     libcpmt:wlocale.obj
 0002:000043c4       ??_R1A@?0A@EA@?$moneypunct@G$0A@@std@@8 0044d3c4     libcpmt:wlocale.obj
 0002:000043e0       ??_R4?$moneypunct@G$00@std@@6B@ 0044d3e0     libcpmt:wlocale.obj
 0002:000043f4       ??_R3?$moneypunct@G$00@std@@8 0044d3f4     libcpmt:wlocale.obj
 0002:00004404       ??_R2?$moneypunct@G$00@std@@8 0044d404     libcpmt:wlocale.obj
 0002:00004418       ??_R1A@?0A@EA@?$moneypunct@G$00@std@@8 0044d418     libcpmt:wlocale.obj
 0002:00004434       ??_R4?$time_get@_WV?$istreambuf_iterator@_WU?$char_traits@_W@std@@@std@@@std@@6B@ 0044d434     libcpmt:wlocale.obj
 0002:00004448       ??_R3?$time_get@_WV?$istreambuf_iterator@_WU?$char_traits@_W@std@@@std@@@std@@8 0044d448     libcpmt:wlocale.obj
 0002:00004458       ??_R2?$time_get@_WV?$istreambuf_iterator@_WU?$char_traits@_W@std@@@std@@@std@@8 0044d458     libcpmt:wlocale.obj
 0002:00004468       ??_R1A@?0A@EA@?$time_get@_WV?$istreambuf_iterator@_WU?$char_traits@_W@std@@@std@@@std@@8 0044d468     libcpmt:wlocale.obj
 0002:00004484       ??_R4?$time_get@GV?$istreambuf_iterator@GU?$char_traits@G@std@@@std@@@std@@6B@ 0044d484     libcpmt:wlocale.obj
 0002:00004498       ??_R3?$time_get@GV?$istreambuf_iterator@GU?$char_traits@G@std@@@std@@@std@@8 0044d498     libcpmt:wlocale.obj
 0002:000044a8       ??_R2?$time_get@GV?$istreambuf_iterator@GU?$char_traits@G@std@@@std@@@std@@8 0044d4a8     libcpmt:wlocale.obj
 0002:000044b8       ??_R1A@?0A@EA@?$time_get@GV?$istreambuf_iterator@GU?$char_traits@G@std@@@std@@@std@@8 0044d4b8     libcpmt:wlocale.obj
 0002:000044d4       ??_R4?$collate@D@std@@6B@  0044d4d4     libcpmt:xlocale.obj
 0002:000044e8       ??_R3?$collate@D@std@@8    0044d4e8     libcpmt:xlocale.obj
 0002:000044f8       ??_R2?$collate@D@std@@8    0044d4f8     libcpmt:xlocale.obj
 0002:00004504       ??_R1A@?0A@EA@?$collate@D@std@@8 0044d504     libcpmt:xlocale.obj
 0002:00004520       ??_R4?$messages@D@std@@6B@ 0044d520     libcpmt:xlocale.obj
 0002:00004534       ??_R3?$messages@D@std@@8   0044d534     libcpmt:xlocale.obj
 0002:00004544       ??_R2?$messages@D@std@@8   0044d544     libcpmt:xlocale.obj
 0002:00004554       ??_R1A@?0A@EA@?$messages@D@std@@8 0044d554     libcpmt:xlocale.obj
 0002:00004570       ??_R4?$money_get@DV?$istreambuf_iterator@DU?$char_traits@D@std@@@std@@@std@@6B@ 0044d570     libcpmt:xlocale.obj
 0002:00004584       ??_R3?$money_get@DV?$istreambuf_iterator@DU?$char_traits@D@std@@@std@@@std@@8 0044d584     libcpmt:xlocale.obj
 0002:00004594       ??_R2?$money_get@DV?$istreambuf_iterator@DU?$char_traits@D@std@@@std@@@std@@8 0044d594     libcpmt:xlocale.obj
 0002:000045a0       ??_R1A@?0A@EA@?$money_get@DV?$istreambuf_iterator@DU?$char_traits@D@std@@@std@@@std@@8 0044d5a0     libcpmt:xlocale.obj
 0002:000045bc       ??_R4?$money_put@DV?$ostreambuf_iterator@DU?$char_traits@D@std@@@std@@@std@@6B@ 0044d5bc     libcpmt:xlocale.obj
 0002:000045d0       ??_R3?$money_put@DV?$ostreambuf_iterator@DU?$char_traits@D@std@@@std@@@std@@8 0044d5d0     libcpmt:xlocale.obj
 0002:000045e0       ??_R2?$money_put@DV?$ostreambuf_iterator@DU?$char_traits@D@std@@@std@@@std@@8 0044d5e0     libcpmt:xlocale.obj
 0002:000045ec       ??_R1A@?0A@EA@?$money_put@DV?$ostreambuf_iterator@DU?$char_traits@D@std@@@std@@@std@@8 0044d5ec     libcpmt:xlocale.obj
 0002:00004608       ??_R4?$_Mpunct@D@std@@6B@  0044d608     libcpmt:xlocale.obj
 0002:0000461c       ??_R3?$_Mpunct@D@std@@8    0044d61c     libcpmt:xlocale.obj
 0002:0000462c       ??_R2?$_Mpunct@D@std@@8    0044d62c     libcpmt:xlocale.obj
 0002:0000463c       ??_R1A@?0A@EA@?$_Mpunct@D@std@@8 0044d63c     libcpmt:xlocale.obj
 0002:00004658       ??_R4?$time_put@DV?$ostreambuf_iterator@DU?$char_traits@D@std@@@std@@@std@@6B@ 0044d658     libcpmt:xlocale.obj
 0002:0000466c       ??_R3?$time_put@DV?$ostreambuf_iterator@DU?$char_traits@D@std@@@std@@@std@@8 0044d66c     libcpmt:xlocale.obj
 0002:0000467c       ??_R2?$time_put@DV?$ostreambuf_iterator@DU?$char_traits@D@std@@@std@@@std@@8 0044d67c     libcpmt:xlocale.obj
 0002:00004688       ??_R1A@?0A@EA@?$time_put@DV?$ostreambuf_iterator@DU?$char_traits@D@std@@@std@@@std@@8 0044d688     libcpmt:xlocale.obj
 0002:000046a4       ??_R4?$moneypunct@D$0A@@std@@6B@ 0044d6a4     libcpmt:xlocale.obj
 0002:000046b8       ??_R3?$moneypunct@D$0A@@std@@8 0044d6b8     libcpmt:xlocale.obj
 0002:000046c8       ??_R2?$moneypunct@D$0A@@std@@8 0044d6c8     libcpmt:xlocale.obj
 0002:000046dc       ??_R1A@?0A@EA@?$moneypunct@D$0A@@std@@8 0044d6dc     libcpmt:xlocale.obj
 0002:000046f8       ??_R4?$moneypunct@D$00@std@@6B@ 0044d6f8     libcpmt:xlocale.obj
 0002:0000470c       ??_R3?$moneypunct@D$00@std@@8 0044d70c     libcpmt:xlocale.obj
 0002:0000471c       ??_R2?$moneypunct@D$00@std@@8 0044d71c     libcpmt:xlocale.obj
 0002:00004730       ??_R1A@?0A@EA@?$moneypunct@D$00@std@@8 0044d730     libcpmt:xlocale.obj
 0002:0000474c       ??_R4?$time_get@DV?$istreambuf_iterator@DU?$char_traits@D@std@@@std@@@std@@6B@ 0044d74c     libcpmt:xlocale.obj
 0002:00004760       ??_R3?$time_get@DV?$istreambuf_iterator@DU?$char_traits@D@std@@@std@@@std@@8 0044d760     libcpmt:xlocale.obj
 0002:00004770       ??_R2?$time_get@DV?$istreambuf_iterator@DU?$char_traits@D@std@@@std@@@std@@8 0044d770     libcpmt:xlocale.obj
 0002:00004780       ??_R1A@?0A@EA@?$time_get@DV?$istreambuf_iterator@DU?$char_traits@D@std@@@std@@@std@@8 0044d780     libcpmt:xlocale.obj
 0002:0000479c       ??_R4exception@std@@6B@    0044d79c     LIBCMT:stdexcpt.obj
 0002:000047b0       ??_R4bad_cast@std@@6B@     0044d7b0     LIBCMT:stdexcpt.obj
 0002:000047c4       ??_R3bad_cast@std@@8       0044d7c4     LIBCMT:stdexcpt.obj
 0002:000047d4       ??_R2bad_cast@std@@8       0044d7d4     LIBCMT:stdexcpt.obj
 0002:000047e0       ??_R1A@?0A@EA@bad_cast@std@@8 0044d7e0     LIBCMT:stdexcpt.obj
 0002:000047fc       ??_R4bad_typeid@std@@6B@   0044d7fc     LIBCMT:stdexcpt.obj
 0002:00004810       ??_R3bad_typeid@std@@8     0044d810     LIBCMT:stdexcpt.obj
 0002:00004820       ??_R2bad_typeid@std@@8     0044d820     LIBCMT:stdexcpt.obj
 0002:0000482c       ??_R1A@?0A@EA@bad_typeid@std@@8 0044d82c     LIBCMT:stdexcpt.obj
 0002:00004848       ??_R4__non_rtti_object@std@@6B@ 0044d848     LIBCMT:stdexcpt.obj
 0002:0000485c       ??_R3__non_rtti_object@std@@8 0044d85c     LIBCMT:stdexcpt.obj
 0002:0000486c       ??_R2__non_rtti_object@std@@8 0044d86c     LIBCMT:stdexcpt.obj
 0002:0000487c       ??_R1A@?0A@EA@__non_rtti_object@std@@8 0044d87c     LIBCMT:stdexcpt.obj
 0002:00004898       ??_R4type_info@@6B@        0044d898     LIBCMT:typinfo.obj
 0002:000048ac       ??_R3type_info@@8          0044d8ac     LIBCMT:typinfo.obj
 0002:000048bc       ??_R2type_info@@8          0044d8bc     LIBCMT:typinfo.obj
 0002:000048c4       ??_R1A@?0A@EA@type_info@@8 0044d8c4     LIBCMT:typinfo.obj
 0002:000048e0       ??_R4bad_exception@std@@6B@ 0044d8e0     LIBCMT:frame.obj
 0002:000048f4       ??_R3bad_exception@std@@8  0044d8f4     LIBCMT:frame.obj
 0002:00004904       ??_R2bad_exception@std@@8  0044d904     LIBCMT:frame.obj
 0002:00004910       ??_R1A@?0A@EA@bad_exception@std@@8 0044d910     LIBCMT:frame.obj
 0002:0000492c       ??_R4DNameNode@@6B@        0044d92c     LIBCMT:undname.obj
 0002:00004940       ??_R3DNameNode@@8          0044d940     LIBCMT:undname.obj
 0002:00004950       ??_R2DNameNode@@8          0044d950     LIBCMT:undname.obj
 0002:00004958       ??_R1A@?0A@EA@DNameNode@@8 0044d958     LIBCMT:undname.obj
 0002:00004974       ??_R4charNode@@6B@         0044d974     LIBCMT:undname.obj
 0002:00004988       ??_R3charNode@@8           0044d988     LIBCMT:undname.obj
 0002:00004998       ??_R2charNode@@8           0044d998     LIBCMT:undname.obj
 0002:000049a4       ??_R1A@?0A@EA@charNode@@8  0044d9a4     LIBCMT:undname.obj
 0002:000049c0       ??_R4pDNameNode@@6B@       0044d9c0     LIBCMT:undname.obj
 0002:000049d4       ??_R3pDNameNode@@8         0044d9d4     LIBCMT:undname.obj
 0002:000049e4       ??_R2pDNameNode@@8         0044d9e4     LIBCMT:undname.obj
 0002:000049f0       ??_R1A@?0A@EA@pDNameNode@@8 0044d9f0     LIBCMT:undname.obj
 0002:00004a0c       ??_R4DNameStatusNode@@6B@  0044da0c     LIBCMT:undname.obj
 0002:00004a20       ??_R3DNameStatusNode@@8    0044da20     LIBCMT:undname.obj
 0002:00004a30       ??_R2DNameStatusNode@@8    0044da30     LIBCMT:undname.obj
 0002:00004a3c       ??_R1A@?0A@EA@DNameStatusNode@@8 0044da3c     LIBCMT:undname.obj
 0002:00004a58       ??_R4pcharNode@@6B@        0044da58     LIBCMT:undname.obj
 0002:00004a6c       ??_R3pcharNode@@8          0044da6c     LIBCMT:undname.obj
 0002:00004a7c       ??_R2pcharNode@@8          0044da7c     LIBCMT:undname.obj
 0002:00004a88       ??_R1A@?0A@EA@pcharNode@@8 0044da88     LIBCMT:undname.obj
 0002:00004ab0       ___safe_se_handler_table   0044dab0     <linker-defined>
 0002:00004ef8       ___rtc_iaa                 0044def8     LIBCMT:initsect.obj
 0002:00004efc       ___rtc_izz                 0044defc     LIBCMT:initsect.obj
 0002:00004f00       ___rtc_taa                 0044df00     LIBCMT:initsect.obj
 0002:00004f04       ___rtc_tzz                 0044df04     LIBCMT:initsect.obj
 0002:00004f08       __TI2?AVbad_alloc@std@@    0044df08     IniFile.obj
 0002:00004f18       __CTA2?AVbad_alloc@std@@   0044df18     IniFile.obj
 0002:00004f24       __CT??_R0?AVbad_alloc@std@@@8??0bad_alloc@std@@QAE@ABV01@@Z12 0044df24     IniFile.obj
 0002:00004f40       __CT??_R0?AVexception@std@@@8??0exception@std@@QAE@ABV01@@Z12 0044df40     IniFile.obj
 0002:00005254       __TI2?AVruntime_error@std@@ 0044e254     IniFile.obj
 0002:000052b8       __CTA2?AVruntime_error@std@@ 0044e2b8     IniFile.obj
 0002:000052c4       __CT??_R0?AVruntime_error@std@@@8??0runtime_error@std@@QAE@ABV01@@Z40 0044e2c4     IniFile.obj
 0002:000054f0       __TI3?AVfailure@ios_base@std@@ 0044e4f0     IniFile.obj
 0002:0000553c       __CTA3?AVfailure@ios_base@std@@ 0044e53c     IniFile.obj
 0002:0000554c       __CT??_R0?AVfailure@ios_base@std@@@8??0failure@ios_base@std@@QAE@ABV012@@Z40 0044e54c     IniFile.obj
 0002:000055f4       __TI2?AVbad_cast@std@@     0044e5f4     IniFile.obj
 0002:00005630       __CTA2?AVbad_cast@std@@    0044e630     IniFile.obj
 0002:0000563c       __CT??_R0?AVbad_cast@std@@@8??0bad_cast@std@@QAE@ABV01@@Z12 0044e63c     IniFile.obj
 0002:00005704       __TI3?AVlength_error@std@@ 0044e704     IniFile.obj
 0002:00005740       __CTA3?AVlength_error@std@@ 0044e740     IniFile.obj
 0002:00005750       __CT??_R0?AVlength_error@std@@@8??0length_error@std@@QAE@ABV01@@Z40 0044e750     IniFile.obj
 0002:0000576c       __CT??_R0?AVlogic_error@std@@@8??0logic_error@std@@QAE@ABV01@@Z40 0044e76c     IniFile.obj
 0002:000057e0       __TI3?AVout_of_range@std@@ 0044e7e0     IniFile.obj
 0002:0000581c       __CTA3?AVout_of_range@std@@ 0044e81c     IniFile.obj
 0002:0000582c       __CT??_R0?AVout_of_range@std@@@8??0out_of_range@std@@QAE@ABV01@@Z40 0044e82c     IniFile.obj
 0002:00005dc4       __TI3?AVinvalid_argument@std@@ 0044edc4     libcpmt:string.obj
 0002:00005e00       __CTA3?AVinvalid_argument@std@@ 0044ee00     libcpmt:string.obj
 0002:00005e10       __CT??_R0?AVinvalid_argument@std@@@8??0invalid_argument@std@@QAE@ABV01@@Z40 0044ee10     libcpmt:string.obj
 0002:00008f24       __TI2?AVbad_exception@std@@ 00451f24     LIBCMT:frame.obj
 0002:00008f34       __CTA2?AVbad_exception@std@@ 00451f34     LIBCMT:frame.obj
 0002:00008f40       __CT??_R0?AVbad_exception@std@@@8??0bad_exception@std@@QAE@ABV01@@Z12 00451f40     LIBCMT:frame.obj
 0002:00009564       __IMPORT_DESCRIPTOR_Coengine 00452564     coengine:Coengine.dll
 0002:00009578       __IMPORT_DESCRIPTOR_NapiWrapper 00452578     napiwrapper:NapiWrapper.dll
 0002:0000958c       __IMPORT_DESCRIPTOR_USER32 0045258c     user32:USER32.dll
 0002:000095a0       __IMPORT_DESCRIPTOR_KERNEL32 004525a0     kernel32:KERNEL32.dll
 0002:000095b4       __NULL_IMPORT_DESCRIPTOR   004525b4     coengine:Coengine.dll
 0003:00000004       ??_R0?AVbad_alloc@std@@@8  00453004     IniFile.obj
 0003:00000020       ??_R0?AVexception@std@@@8  00453020     IniFile.obj
 0003:0000003c       ??_R0?AVruntime_error@std@@@8 0045303c     IniFile.obj
 0003:0000005c       ??_R0?AVfailure@ios_base@std@@@8 0045305c     IniFile.obj
 0003:00000080       ??_R0?AVbad_cast@std@@@8   00453080     IniFile.obj
 0003:0000009c       ??_R0?AVlength_error@std@@@8 0045309c     IniFile.obj
 0003:000000bc       ??_R0?AVlogic_error@std@@@8 004530bc     IniFile.obj
 0003:000000dc       ??_R0?AVout_of_range@std@@@8 004530dc     IniFile.obj
 0003:00000108       ??_R0?AVfacet@locale@std@@@8 00453108     libcpmt:locale0.obj
 0003:00000128       ??_R0?AV_Locimp@locale@std@@@8 00453128     libcpmt:locale0.obj
 0003:00000150       ?_Sync@ios_base@std@@0_NA  00453150     libcpmt:ios.obj
 0003:00000158       ??_R0?AVinvalid_argument@std@@@8 00453158     libcpmt:string.obj
 0003:00000180       ??_R0?AVcodecvt_base@std@@@8 00453180     libcpmt:locale.obj
 0003:000001a0       ??_R0?AUctype_base@std@@@8 004531a0     libcpmt:locale.obj
 0003:000001c0       ??_R0?AV?$ctype@D@std@@@8  004531c0     libcpmt:locale.obj
 0003:000001e0       ??_R0?AV?$num_get@DV?$istreambuf_iterator@DU?$char_traits@D@std@@@std@@@std@@@8 004531e0     libcpmt:locale.obj
 0003:00000238       ??_R0?AV?$num_put@DV?$ostreambuf_iterator@DU?$char_traits@D@std@@@std@@@std@@@8 00453238     libcpmt:locale.obj
 0003:0000028c       ??_R0?AV?$codecvt@DDH@std@@@8 0045328c     libcpmt:locale.obj
 0003:000002ac       ??_R0?AV?$numpunct@D@std@@@8 004532ac     libcpmt:locale.obj
 0003:00000318       ?_PJP_CPP_Copyright@@3PADA 00453318     libcpmt:iosptrs.obj
 0003:0000037c       ??_R0?AUmessages_base@std@@@8 0045337c     libcpmt:wlocale.obj
 0003:0000039c       ??_R0?AUmoney_base@std@@@8 0045339c     libcpmt:wlocale.obj
 0003:000003bc       ??_R0?AUtime_base@std@@@8  004533bc     libcpmt:wlocale.obj
 0003:000003d8       ??_R0?AV?$codecvt@_WDH@std@@@8 004533d8     libcpmt:wlocale.obj
 0003:000003fc       ??_R0?AV?$codecvt@GDH@std@@@8 004533fc     libcpmt:wlocale.obj
 0003:0000041c       ??_R0?AV?$ctype@_W@std@@@8 0045341c     libcpmt:wlocale.obj
 0003:0000043c       ??_R0?AV?$ctype@G@std@@@8  0045343c     libcpmt:wlocale.obj
 0003:00000458       ??_R0?AV?$time_put@_WV?$ostreambuf_iterator@_WU?$char_traits@_W@std@@@std@@@std@@@8 00453458     libcpmt:wlocale.obj
 0003:000004b0       ??_R0?AV?$num_get@_WV?$istreambuf_iterator@_WU?$char_traits@_W@std@@@std@@@std@@@8 004534b0     libcpmt:wlocale.obj
 0003:00000508       ??_R0?AV?$num_put@_WV?$ostreambuf_iterator@_WU?$char_traits@_W@std@@@std@@@std@@@8 00453508     libcpmt:wlocale.obj
 0003:00000560       ??_R0?AV?$collate@_W@std@@@8 00453560     libcpmt:wlocale.obj
 0003:00000580       ??_R0?AV?$messages@_W@std@@@8 00453580     libcpmt:wlocale.obj
 0003:000005a0       ??_R0?AV?$money_get@_WV?$istreambuf_iterator@_WU?$char_traits@_W@std@@@std@@@std@@@8 004535a0     libcpmt:wlocale.obj
 0003:000005f8       ??_R0?AV?$money_put@_WV?$ostreambuf_iterator@_WU?$char_traits@_W@std@@@std@@@std@@@8 004535f8     libcpmt:wlocale.obj
 0003:00000650       ??_R0?AV?$_Mpunct@_W@std@@@8 00453650     libcpmt:wlocale.obj
 0003:00000670       ??_R0?AV?$num_get@GV?$istreambuf_iterator@GU?$char_traits@G@std@@@std@@@std@@@8 00453670     libcpmt:wlocale.obj
 0003:000006c8       ??_R0?AV?$num_put@GV?$ostreambuf_iterator@GU?$char_traits@G@std@@@std@@@std@@@8 004536c8     libcpmt:wlocale.obj
 0003:0000071c       ??_R0?AV?$collate@G@std@@@8 0045371c     libcpmt:wlocale.obj
 0003:0000073c       ??_R0?AV?$messages@G@std@@@8 0045373c     libcpmt:wlocale.obj
 0003:00000760       ??_R0?AV?$money_get@GV?$istreambuf_iterator@GU?$char_traits@G@std@@@std@@@std@@@8 00453760     libcpmt:wlocale.obj
 0003:000007b8       ??_R0?AV?$money_put@GV?$ostreambuf_iterator@GU?$char_traits@G@std@@@std@@@std@@@8 004537b8     libcpmt:wlocale.obj
 0003:0000080c       ??_R0?AV?$_Mpunct@G@std@@@8 0045380c     libcpmt:wlocale.obj
 0003:00000830       ??_R0?AV?$time_put@GV?$ostreambuf_iterator@GU?$char_traits@G@std@@@std@@@std@@@8 00453830     libcpmt:wlocale.obj
 0003:00000884       ??_R0?AV?$numpunct@_W@std@@@8 00453884     libcpmt:wlocale.obj
 0003:000008a4       ??_R0?AV?$numpunct@G@std@@@8 004538a4     libcpmt:wlocale.obj
 0003:000008c4       ??_R0?AV?$moneypunct@_W$0A@@std@@@8 004538c4     libcpmt:wlocale.obj
 0003:000008ec       ??_R0?AV?$moneypunct@_W$00@std@@@8 004538ec     libcpmt:wlocale.obj
 0003:00000914       ??_R0?AV?$moneypunct@G$0A@@std@@@8 00453914     libcpmt:wlocale.obj
 0003:0000093c       ??_R0?AV?$moneypunct@G$00@std@@@8 0045393c     libcpmt:wlocale.obj
 0003:00000960       ??_R0?AV?$time_get@_WV?$istreambuf_iterator@_WU?$char_traits@_W@std@@@std@@@std@@@8 00453960     libcpmt:wlocale.obj
 0003:000009b8       ??_R0?AV?$time_get@GV?$istreambuf_iterator@GU?$char_traits@G@std@@@std@@@std@@@8 004539b8     libcpmt:wlocale.obj
 0003:00000a10       ??_R0?AV?$collate@D@std@@@8 00453a10     libcpmt:xlocale.obj
 0003:00000a30       ??_R0?AV?$messages@D@std@@@8 00453a30     libcpmt:xlocale.obj
 0003:00000a50       ??_R0?AV?$money_get@DV?$istreambuf_iterator@DU?$char_traits@D@std@@@std@@@std@@@8 00453a50     libcpmt:xlocale.obj
 0003:00000aa8       ??_R0?AV?$money_put@DV?$ostreambuf_iterator@DU?$char_traits@D@std@@@std@@@std@@@8 00453aa8     libcpmt:xlocale.obj
 0003:00000afc       ??_R0?AV?$_Mpunct@D@std@@@8 00453afc     libcpmt:xlocale.obj
 0003:00000b20       ??_R0?AV?$time_put@DV?$ostreambuf_iterator@DU?$char_traits@D@std@@@std@@@std@@@8 00453b20     libcpmt:xlocale.obj
 0003:00000b74       ??_R0?AV?$moneypunct@D$0A@@std@@@8 00453b74     libcpmt:xlocale.obj
 0003:00000b9c       ??_R0?AV?$moneypunct@D$00@std@@@8 00453b9c     libcpmt:xlocale.obj
 0003:00000bc0       ??_R0?AV?$time_get@DV?$istreambuf_iterator@DU?$char_traits@D@std@@@std@@@std@@@8 00453bc0     libcpmt:xlocale.obj
 0003:00000c18       __FDenorm                  00453c18     libcpmt:xfvalues.obj
 0003:00000c28       __FEps                     00453c28     libcpmt:xfvalues.obj
 0003:00000c38       __FInf                     00453c38     libcpmt:xfvalues.obj
 0003:00000c48       __FNan                     00453c48     libcpmt:xfvalues.obj
 0003:00000c58       __FSnan                    00453c58     libcpmt:xfvalues.obj
 0003:00000c68       __FRteps                   00453c68     libcpmt:xfvalues.obj
 0003:00000c78       __FXbig                    00453c78     libcpmt:xfvalues.obj
 0003:00000c80       __Denorm                   00453c80     libcpmt:xvalues.obj
 0003:00000c90       __Eps                      00453c90     libcpmt:xvalues.obj
 0003:00000ca0       __Hugeval                  00453ca0     libcpmt:xvalues.obj
 0003:00000cb0       __Inf                      00453cb0     libcpmt:xvalues.obj
 0003:00000cc0       __Nan                      00453cc0     libcpmt:xvalues.obj
 0003:00000cd0       __Snan                     00453cd0     libcpmt:xvalues.obj
 0003:00000ce0       __Rteps                    00453ce0     libcpmt:xvalues.obj
 0003:00000cf0       __Xbig                     00453cf0     libcpmt:xvalues.obj
 0003:00000cf8       __LDenorm                  00453cf8     libcpmt:xlvalues.obj
 0003:00000d08       __LEps                     00453d08     libcpmt:xlvalues.obj
 0003:00000d18       __LInf                     00453d18     libcpmt:xlvalues.obj
 0003:00000d28       __LNan                     00453d28     libcpmt:xlvalues.obj
 0003:00000d38       __LSnan                    00453d38     libcpmt:xlvalues.obj
 0003:00000d48       __LRteps                   00453d48     libcpmt:xlvalues.obj
 0003:00000d58       __LXbig                    00453d58     libcpmt:xlvalues.obj
 0003:00000d64       ??_R0?AVbad_typeid@std@@@8 00453d64     LIBCMT:stdexcpt.obj
 0003:00000d84       ??_R0?AV__non_rtti_object@std@@@8 00453d84     LIBCMT:stdexcpt.obj
 0003:00000db4       ?__pMyUnhandledExceptionFilter@@3PAXA 00453db4     LIBCMT:throw.obj
 0003:00000dbc       ??_R0?AVtype_info@@@8      00453dbc     LIBCMT:typinfo.obj
 0003:00000dd4       ___security_cookie         00453dd4     LIBCMT:gs_cookie.obj
 0003:00000dd8       ___security_cookie_complement 00453dd8     LIBCMT:gs_cookie.obj
 0003:00000ddc       ___app_type                00453ddc     LIBCMT:wincrt0.obj
 0003:00000de0       __pctype                   00453de0     LIBCMT:ctype.obj
 0003:00000de4       __pwctype                  00453de4     LIBCMT:ctype.obj
 0003:00000df4       ___lconv_static_decimal    00453df4     LIBCMT:lconv.obj
 0003:00000df8       ___lconv_c                 00453df8     LIBCMT:lconv.obj
 0003:00000e28       ___lconv                   00453e28     LIBCMT:lconv.obj
 0003:00000e30       __fltused                  00453e30     LIBCMT:fpinit.obj
 0003:00000e34       __ldused                   00453e34     LIBCMT:fpinit.obj
 0003:00000e38       __aexit_rtn                00453e38     LIBCMT:crt0dat.obj
 0003:00000e3c       ___abort_behavior          00453e3c     LIBCMT:abort.obj
 0003:00000fb0       ___lc_time_c               00453fb0     LIBCMT:strftime.obj
 0003:00001068       ___lc_time_curr            00454068     LIBCMT:strftime.obj
 0003:00001070       __amblksiz                 00454070     LIBCMT:heapinit.obj
 0003:00001198       ___flsindex                00454198     LIBCMT:tidtable.obj
 0003:0000119c       ___getvalueindex           0045419c     LIBCMT:tidtable.obj
 0003:000011b8       ??_R0?AVbad_exception@std@@@8 004541b8     LIBCMT:frame.obj
 0003:000011e0       __iob                      004541e0     LIBCMT:_file.obj
 0003:00001460       ___badioinfo               00454460     LIBCMT:ioinit.obj
 0003:00001540       __XcptActTab               00454540     LIBCMT:winxfltr.obj
 0003:000015b8       __First_FPE_Indx           004545b8     LIBCMT:winxfltr.obj
 0003:000015bc       __Num_FPE                  004545bc     LIBCMT:winxfltr.obj
 0003:000015c0       __XcptActTabSize           004545c0     LIBCMT:winxfltr.obj
 0003:000015c4       __XcptActTabCount          004545c4     LIBCMT:winxfltr.obj
 0003:000015c8       ___initialmbcinfo          004545c8     LIBCMT:mbctype.obj
 0003:000017e8       __mbctype                  004547e8     LIBCMT:mbctype.obj
 0003:000018f0       __mbcasemap                004548f0     LIBCMT:mbctype.obj
 0003:000019f0       ___ptmbcinfo               004549f0     LIBCMT:mbctype.obj
 0003:00001ae8       ___globallocalestatus      00454ae8     LIBCMT:glstatus.obj
 0003:00001af0       ___clocalestr              00454af0     LIBCMT:nlsdata2.obj
 0003:00001af8       ___initiallocinfo          00454af8     LIBCMT:nlsdata2.obj
 0003:00001bd0       ___ptlocinfo               00454bd0     LIBCMT:nlsdata2.obj
 0003:00001bd4       ___lc_clike                00454bd4     LIBCMT:nlsdata2.obj
 0003:00001bd8       ___initiallocalestructinfo 00454bd8     LIBCMT:nlsdata2.obj
 0003:00001be0       ___mb_cur_max              00454be0     LIBCMT:nlsdata1.obj
 0003:00001be4       ___decimal_point           00454be4     LIBCMT:nlsdata1.obj
 0003:00001be8       ___decimal_point_length    00454be8     LIBCMT:nlsdata1.obj
 0003:00001bf0       __cfltcvt_tab              00454bf0     LIBCMT:cmiscdat.obj
 0003:00001c18       ___nullstring              00454c18     LIBCMT:output.obj
 0003:00001c1c       ___wnullstring             00454c1c     LIBCMT:output.obj
 0003:00001c20       __timezone                 00454c20     LIBCMT:timeset.obj
 0003:00001c24       __daylight                 00454c24     LIBCMT:timeset.obj
 0003:00001c28       __dstbias                  00454c28     LIBCMT:timeset.obj
 0003:00001cb0       __tzname                   00454cb0     LIBCMT:timeset.obj
 0003:00001cd0       __lpdays                   00454cd0     LIBCMT:days.obj
 0003:00001d04       __days                     00454d04     LIBCMT:days.obj
 0003:00001d40       __HUGE                     00454d40     LIBCMT:huge.obj
 0003:00001d48       ??_R0?AVDNameNode@@@8      00454d48     LIBCMT:undname.obj
 0003:00001d60       ??_R0?AVcharNode@@@8       00454d60     LIBCMT:undname.obj
 0003:00001d78       ??_R0?AVpDNameNode@@@8     00454d78     LIBCMT:undname.obj
 0003:00001d94       ??_R0?AVDNameStatusNode@@@8 00454d94     LIBCMT:undname.obj
 0003:00001db4       ??_R0?AVpcharNode@@@8      00454db4     LIBCMT:undname.obj
 0003:00001dcc       __NLG_Destination          00454dcc     LIBCMT:exsup.obj
 0003:00001de0       __lookuptrailbytes         00454de0     LIBCMT:read.obj
 0003:00001f20       __coninpfh                 00454f20     LIBCMT:initcon.obj
 0003:00001f24       __confh                    00454f24     LIBCMT:initcon.obj
 0003:00001f30       __pow10pos                 00454f30     LIBCMT:constpow.obj
 0003:00002090       __pow10neg                 00455090     LIBCMT:constpow.obj
 0003:00002220       ?_Stinit@?1??_Init@?$basic_filebuf@DU?$char_traits@D@std@@@std@@IAEXPAU_iobuf@@W4_Initfl@23@@Z@4HA 00455220     IniFile.obj
 0003:00002224       ?_Psave@?$_Facetptr@V?$ctype@D@std@@@std@@2PBVfacet@locale@2@B 00455224     IniFile.obj
 0003:00002228       ?_Psave@?$_Facetptr@V?$codecvt@DDH@std@@@std@@2PBVfacet@locale@2@B 00455228     IniFile.obj
 0003:0000222c       ?id@?$codecvt@DDH@std@@2V0locale@2@A 0045522c     IniFile.obj
 0003:0000229c       ?_Clocptr@_Locimp@locale@std@@0PAV123@A 0045529c     libcpmt:locale0.obj
 0003:000022a0       ?_Id_cnt@id@locale@std@@0HA 004552a0     libcpmt:locale0.obj
 0003:000022a4       ?id@?$ctype@D@std@@2V0locale@2@A 004552a4     libcpmt:locale0.obj
 0003:000022a8       ?id@?$codecvt@GDH@std@@2V0locale@2@A 004552a8     libcpmt:locale0.obj
 0003:000022ac       ?id@?$ctype@_W@std@@2V0locale@2@A 004552ac     libcpmt:locale0.obj
 0003:000022b0       ?id@?$codecvt@_WDH@std@@2V0locale@2@A 004552b0     libcpmt:locale0.obj
 0003:000022b8       ?id@?$ctype@G@std@@2V0locale@2@A 004552b8     libcpmt:locale0.obj
 0003:000022c0       ?_Fpz@std@@3_JA            004552c0     libcpmt:ios.obj
 0003:000022c8       ?_Index@ios_base@std@@0HA  004552c8     libcpmt:ios.obj
 0003:00002310       ?_Psave@?$_Facetptr@V?$num_get@DV?$istreambuf_iterator@DU?$char_traits@D@std@@@std@@@std@@@std@@2PBVfacet@locale@2@B 00455310     libcpmt:locale.obj
 0003:00002314       ?_Psave@?$_Facetptr@V?$num_put@DV?$ostreambuf_iterator@DU?$char_traits@D@std@@@std@@@std@@@std@@2PBVfacet@locale@2@B 00455314     libcpmt:locale.obj
 0003:00002318       ?_Psave@?$_Facetptr@V?$numpunct@D@std@@@std@@2PBVfacet@locale@2@B 00455318     libcpmt:locale.obj
 0003:0000232c       ?id@?$num_put@DV?$ostreambuf_iterator@DU?$char_traits@D@std@@@std@@@std@@2V0locale@2@A 0045532c     libcpmt:locale.obj
 0003:00002330       ?id@?$numpunct@D@std@@2V0locale@2@A 00455330     libcpmt:locale.obj
 0003:00002334       ?id@?$num_get@DV?$istreambuf_iterator@DU?$char_traits@D@std@@@std@@@std@@2V0locale@2@A 00455334     libcpmt:locale.obj
 0003:00002338       ?_Ptr_cin@std@@3PAV?$basic_istream@DU?$char_traits@D@std@@@1@A 00455338     libcpmt:iosptrs.obj
 0003:0000233c       ?_Ptr_cout@std@@3PAV?$basic_ostream@DU?$char_traits@D@std@@@1@A 0045533c     libcpmt:iosptrs.obj
 0003:00002340       ?_Ptr_cerr@std@@3PAV?$basic_ostream@DU?$char_traits@D@std@@@1@A 00455340     libcpmt:iosptrs.obj
 0003:00002344       ?_Ptr_clog@std@@3PAV?$basic_ostream@DU?$char_traits@D@std@@@1@A 00455344     libcpmt:iosptrs.obj
 0003:00002348       ?_Ptr_wcin@std@@3PAV?$basic_istream@_WU?$char_traits@_W@std@@@1@A 00455348     libcpmt:iosptrs.obj
 0003:0000234c       ?_Ptr_wcout@std@@3PAV?$basic_ostream@_WU?$char_traits@_W@std@@@1@A 0045534c     libcpmt:iosptrs.obj
 0003:00002350       ?_Ptr_wcerr@std@@3PAV?$basic_ostream@_WU?$char_traits@_W@std@@@1@A 00455350     libcpmt:iosptrs.obj
 0003:00002354       ?_Ptr_wclog@std@@3PAV?$basic_ostream@_WU?$char_traits@_W@std@@@1@A 00455354     libcpmt:iosptrs.obj
 0003:00002384       ?_Psave@?$_Facetptr@V?$ctype@_W@std@@@std@@2PBVfacet@locale@2@B 00455384     libcpmt:wlocale.obj
 0003:00002388       ?_Psave@?$_Facetptr@V?$ctype@G@std@@@std@@2PBVfacet@locale@2@B 00455388     libcpmt:wlocale.obj
 0003:0000238c       ?_Psave@?$_Facetptr@V?$codecvt@_WDH@std@@@std@@2PBVfacet@locale@2@B 0045538c     libcpmt:wlocale.obj
 0003:00002390       ?_Psave@?$_Facetptr@V?$codecvt@GDH@std@@@std@@2PBVfacet@locale@2@B 00455390     libcpmt:wlocale.obj
 0003:00002394       ?_Psave@?$_Facetptr@V?$num_get@_WV?$istreambuf_iterator@_WU?$char_traits@_W@std@@@std@@@std@@@std@@2PBVfacet@locale@2@B 00455394     libcpmt:wlocale.obj
 0003:00002398       ?_Psave@?$_Facetptr@V?$num_put@_WV?$ostreambuf_iterator@_WU?$char_traits@_W@std@@@std@@@std@@@std@@2PBVfacet@locale@2@B 00455398     libcpmt:wlocale.obj
 0003:0000239c       ?_Psave@?$_Facetptr@V?$numpunct@_W@std@@@std@@2PBVfacet@locale@2@B 0045539c     libcpmt:wlocale.obj
 0003:000023a0       ?_Psave@?$_Facetptr@V?$collate@_W@std@@@std@@2PBVfacet@locale@2@B 004553a0     libcpmt:wlocale.obj
 0003:000023a4       ?_Psave@?$_Facetptr@V?$messages@_W@std@@@std@@2PBVfacet@locale@2@B 004553a4     libcpmt:wlocale.obj
 0003:000023a8       ?_Psave@?$_Facetptr@V?$money_get@_WV?$istreambuf_iterator@_WU?$char_traits@_W@std@@@std@@@std@@@std@@2PBVfacet@locale@2@B 004553a8     libcpmt:wlocale.obj
 0003:000023ac       ?_Psave@?$_Facetptr@V?$money_put@_WV?$ostreambuf_iterator@_WU?$char_traits@_W@std@@@std@@@std@@@std@@2PBVfacet@locale@2@B 004553ac     libcpmt:wlocale.obj
 0003:000023b0       ?_Psave@?$_Facetptr@V?$time_put@_WV?$ostreambuf_iterator@_WU?$char_traits@_W@std@@@std@@@std@@@std@@2PBVfacet@locale@2@B 004553b0     libcpmt:wlocale.obj
 0003:000023b4       ?_Psave@?$_Facetptr@V?$num_get@GV?$istreambuf_iterator@GU?$char_traits@G@std@@@std@@@std@@@std@@2PBVfacet@locale@2@B 004553b4     libcpmt:wlocale.obj
 0003:000023b8       ?_Psave@?$_Facetptr@V?$num_put@GV?$ostreambuf_iterator@GU?$char_traits@G@std@@@std@@@std@@@std@@2PBVfacet@locale@2@B 004553b8     libcpmt:wlocale.obj
 0003:000023bc       ?_Psave@?$_Facetptr@V?$numpunct@G@std@@@std@@2PBVfacet@locale@2@B 004553bc     libcpmt:wlocale.obj
 0003:000023c0       ?_Psave@?$_Facetptr@V?$collate@G@std@@@std@@2PBVfacet@locale@2@B 004553c0     libcpmt:wlocale.obj
 0003:000023c4       ?_Psave@?$_Facetptr@V?$messages@G@std@@@std@@2PBVfacet@locale@2@B 004553c4     libcpmt:wlocale.obj
 0003:000023c8       ?_Psave@?$_Facetptr@V?$money_get@GV?$istreambuf_iterator@GU?$char_traits@G@std@@@std@@@std@@@std@@2PBVfacet@locale@2@B 004553c8     libcpmt:wlocale.obj
 0003:000023cc       ?_Psave@?$_Facetptr@V?$money_put@GV?$ostreambuf_iterator@GU?$char_traits@G@std@@@std@@@std@@@std@@2PBVfacet@locale@2@B 004553cc     libcpmt:wlocale.obj
 0003:000023d0       ?_Psave@?$_Facetptr@V?$time_put@GV?$ostreambuf_iterator@GU?$char_traits@G@std@@@std@@@std@@@std@@2PBVfacet@locale@2@B 004553d0     libcpmt:wlocale.obj
 0003:000023d4       ?_Psave@?$_Facetptr@V?$moneypunct@_W$0A@@std@@@std@@2PBVfacet@locale@2@B 004553d4     libcpmt:wlocale.obj
 0003:000023d8       ?_Psave@?$_Facetptr@V?$moneypunct@_W$00@std@@@std@@2PBVfacet@locale@2@B 004553d8     libcpmt:wlocale.obj
 0003:000023dc       ?_Psave@?$_Facetptr@V?$time_get@_WV?$istreambuf_iterator@_WU?$char_traits@_W@std@@@std@@@std@@@std@@2PBVfacet@locale@2@B 004553dc     libcpmt:wlocale.obj
 0003:000023e0       ?_Psave@?$_Facetptr@V?$moneypunct@G$0A@@std@@@std@@2PBVfacet@locale@2@B 004553e0     libcpmt:wlocale.obj
 0003:000023e4       ?_Psave@?$_Facetptr@V?$moneypunct@G$00@std@@@std@@2PBVfacet@locale@2@B 004553e4     libcpmt:wlocale.obj
 0003:000023e8       ?_Psave@?$_Facetptr@V?$time_get@GV?$istreambuf_iterator@GU?$char_traits@G@std@@@std@@@std@@@std@@2PBVfacet@locale@2@B 004553e8     libcpmt:wlocale.obj
 0003:000023ec       ?id@?$money_get@GV?$istreambuf_iterator@GU?$char_traits@G@std@@@std@@@std@@2V0locale@2@A 004553ec     libcpmt:wlocale.obj
 0003:000023f0       ?id@?$time_get@GV?$istreambuf_iterator@GU?$char_traits@G@std@@@std@@@std@@2V0locale@2@A 004553f0     libcpmt:wlocale.obj
 0003:000023f4       ?id@?$moneypunct@_W$00@std@@2V0locale@2@A 004553f4     libcpmt:wlocale.obj
 0003:000023f8       ?id@?$time_get@_WV?$istreambuf_iterator@_WU?$char_traits@_W@std@@@std@@@std@@2V0locale@2@A 004553f8     libcpmt:wlocale.obj
 0003:000023fc       ?id@?$time_put@GV?$ostreambuf_iterator@GU?$char_traits@G@std@@@std@@@std@@2V0locale@2@A 004553fc     libcpmt:wlocale.obj
 0003:00002400       ?id@?$collate@G@std@@2V0locale@2@A 00455400     libcpmt:wlocale.obj
 0003:00002404       ?id@?$messages@G@std@@2V0locale@2@A 00455404     libcpmt:wlocale.obj
 0003:00002408       ?id@?$messages@_W@std@@2V0locale@2@A 00455408     libcpmt:wlocale.obj
 0003:0000240c       ?id@?$num_get@_WV?$istreambuf_iterator@_WU?$char_traits@_W@std@@@std@@@std@@2V0locale@2@A 0045540c     libcpmt:wlocale.obj
 0003:00002410       ?id@?$moneypunct@_W$0A@@std@@2V0locale@2@A 00455410     libcpmt:wlocale.obj
 0003:00002414       ?id@?$numpunct@G@std@@2V0locale@2@A 00455414     libcpmt:wlocale.obj
 0003:00002418       ?id@?$time_put@_WV?$ostreambuf_iterator@_WU?$char_traits@_W@std@@@std@@@std@@2V0locale@2@A 00455418     libcpmt:wlocale.obj
 0003:0000241c       ?id@?$collate@_W@std@@2V0locale@2@A 0045541c     libcpmt:wlocale.obj
 0003:00002420       ?id@?$numpunct@_W@std@@2V0locale@2@A 00455420     libcpmt:wlocale.obj
 0003:00002424       ?id@?$num_put@GV?$ostreambuf_iterator@GU?$char_traits@G@std@@@std@@@std@@2V0locale@2@A 00455424     libcpmt:wlocale.obj
 0003:00002428       ?id@?$moneypunct@G$0A@@std@@2V0locale@2@A 00455428     libcpmt:wlocale.obj
 0003:0000242c       ?id@?$num_get@GV?$istreambuf_iterator@GU?$char_traits@G@std@@@std@@@std@@2V0locale@2@A 0045542c     libcpmt:wlocale.obj
 0003:00002430       ?id@?$money_get@_WV?$istreambuf_iterator@_WU?$char_traits@_W@std@@@std@@@std@@2V0locale@2@A 00455430     libcpmt:wlocale.obj
 0003:00002434       ?id@?$money_put@_WV?$ostreambuf_iterator@_WU?$char_traits@_W@std@@@std@@@std@@2V0locale@2@A 00455434     libcpmt:wlocale.obj
 0003:00002438       ?id@?$money_put@GV?$ostreambuf_iterator@GU?$char_traits@G@std@@@std@@@std@@2V0locale@2@A 00455438     libcpmt:wlocale.obj
 0003:0000243c       ?id@?$num_put@_WV?$ostreambuf_iterator@_WU?$char_traits@_W@std@@@std@@@std@@2V0locale@2@A 0045543c     libcpmt:wlocale.obj
 0003:00002440       ?id@?$moneypunct@G$00@std@@2V0locale@2@A 00455440     libcpmt:wlocale.obj
 0003:00002444       ?_Psave@?$_Facetptr@V?$collate@D@std@@@std@@2PBVfacet@locale@2@B 00455444     libcpmt:xlocale.obj
 0003:00002448       ?_Psave@?$_Facetptr@V?$messages@D@std@@@std@@2PBVfacet@locale@2@B 00455448     libcpmt:xlocale.obj
 0003:0000244c       ?_Psave@?$_Facetptr@V?$money_get@DV?$istreambuf_iterator@DU?$char_traits@D@std@@@std@@@std@@@std@@2PBVfacet@locale@2@B 0045544c     libcpmt:xlocale.obj
 0003:00002450       ?_Psave@?$_Facetptr@V?$money_put@DV?$ostreambuf_iterator@DU?$char_traits@D@std@@@std@@@std@@@std@@2PBVfacet@locale@2@B 00455450     libcpmt:xlocale.obj
 0003:00002454       ?_Psave@?$_Facetptr@V?$time_put@DV?$ostreambuf_iterator@DU?$char_traits@D@std@@@std@@@std@@@std@@2PBVfacet@locale@2@B 00455454     libcpmt:xlocale.obj
 0003:00002458       ?_Psave@?$_Facetptr@V?$moneypunct@D$0A@@std@@@std@@2PBVfacet@locale@2@B 00455458     libcpmt:xlocale.obj
 0003:0000245c       ?_Psave@?$_Facetptr@V?$moneypunct@D$00@std@@@std@@2PBVfacet@locale@2@B 0045545c     libcpmt:xlocale.obj
 0003:00002460       ?_Psave@?$_Facetptr@V?$time_get@DV?$istreambuf_iterator@DU?$char_traits@D@std@@@std@@@std@@@std@@2PBVfacet@locale@2@B 00455460     libcpmt:xlocale.obj
 0003:00002464       ?id@?$time_get@DV?$istreambuf_iterator@DU?$char_traits@D@std@@@std@@@std@@2V0locale@2@A 00455464     libcpmt:xlocale.obj
 0003:00002468       ?id@?$collate@D@std@@2V0locale@2@A 00455468     libcpmt:xlocale.obj
 0003:0000246c       ?id@?$money_put@DV?$ostreambuf_iterator@DU?$char_traits@D@std@@@std@@@std@@2V0locale@2@A 0045546c     libcpmt:xlocale.obj
 0003:00002470       ?id@?$money_get@DV?$istreambuf_iterator@DU?$char_traits@D@std@@@std@@@std@@2V0locale@2@A 00455470     libcpmt:xlocale.obj
 0003:00002474       ?id@?$time_put@DV?$ostreambuf_iterator@DU?$char_traits@D@std@@@std@@@std@@2V0locale@2@A 00455474     libcpmt:xlocale.obj
 0003:00002478       ?id@?$moneypunct@D$00@std@@2V0locale@2@A 00455478     libcpmt:xlocale.obj
 0003:0000247c       ?id@?$moneypunct@D$0A@@std@@2V0locale@2@A 0045547c     libcpmt:xlocale.obj
 0003:00002480       ?id@?$messages@D@std@@2V0locale@2@A 00455480     libcpmt:xlocale.obj
 0003:00002580       __FZero                    00455580     libcpmt:xfvalues.obj
 0003:00002588       __Zero                     00455588     libcpmt:xvalues.obj
 0003:00002590       __LZero                    00455590     libcpmt:xlvalues.obj
 0003:00002598       ___pInvalidArgHandler      00455598     LIBCMT:invarg.obj
 0003:000025ac       __aenvptr                  004555ac     LIBCMT:wincrt0.obj
 0003:000025b0       __wenvptr                  004555b0     LIBCMT:wincrt0.obj
 0003:000025b4       ___error_mode              004555b4     LIBCMT:wincrt0.obj
 0003:000025bc       __maxwait                  004555bc     LIBCMT:crtheap.obj
 0003:000025c0       ___locale_changed          004555c0     LIBCMT:setlocal.obj
 0003:000025c4       ___lconv_static_null       004555c4     LIBCMT:lconv.obj
 0003:000025c8       ___fastflag                004555c8     LIBCMT:fpinit.obj
 0003:000025cc       __adjust_fdiv              004555cc     LIBCMT:fpinit.obj
 0003:000025d0       __umaskval                 004555d0     LIBCMT:crt0dat.obj
 0003:000025d4       __osplatform               004555d4     LIBCMT:crt0dat.obj
 0003:000025d8       __osver                    004555d8     LIBCMT:crt0dat.obj
 0003:000025dc       __winver                   004555dc     LIBCMT:crt0dat.obj
 0003:000025e0       __winmajor                 004555e0     LIBCMT:crt0dat.obj
 0003:000025e4       __winminor                 004555e4     LIBCMT:crt0dat.obj
 0003:000025e8       ___argc                    004555e8     LIBCMT:crt0dat.obj
 0003:000025ec       ___argv                    004555ec     LIBCMT:crt0dat.obj
 0003:000025f0       ___wargv                   004555f0     LIBCMT:crt0dat.obj
 0003:000025f4       __environ                  004555f4     LIBCMT:crt0dat.obj
 0003:000025f8       ___initenv                 004555f8     LIBCMT:crt0dat.obj
 0003:000025fc       __wenviron                 004555fc     LIBCMT:crt0dat.obj
 0003:00002600       ___winitenv                00455600     LIBCMT:crt0dat.obj
 0003:00002604       __pgmptr                   00455604     LIBCMT:crt0dat.obj
 0003:00002608       __wpgmptr                  00455608     LIBCMT:crt0dat.obj
 0003:0000260c       __exitflag                 0045560c     LIBCMT:crt0dat.obj
 0003:00002610       __C_Termination_Done       00455610     LIBCMT:crt0dat.obj
 0003:00002614       __C_Exit_Done              00455614     LIBCMT:crt0dat.obj
 0003:00002628       __crtheap                  00455628     LIBCMT:heapinit.obj
 0003:00002780       ___sbh_pHeaderDefer        00455780     LIBCMT:sbheap.obj
 0003:00002784       _gpFlsAlloc                00455784     LIBCMT:tidtable.obj
 0003:00002788       _gpFlsGetValue             00455788     LIBCMT:tidtable.obj
 0003:0000278c       _gpFlsSetValue             0045578c     LIBCMT:tidtable.obj
 0003:00002790       _gpFlsFree                 00455790     LIBCMT:tidtable.obj
 0003:00002794       ?_pnhHeap@@3P6AHI@ZA       00455794     LIBCMT:handler.obj
 0003:000027a8       ?__pInconsistency@@3P6AXXZA 004557a8     LIBCMT:hooks.obj
 0003:00002ad4       __cflush                   00455ad4     LIBCMT:_file.obj
 0003:00002f00       ___mbulinfo                00455f00     LIBCMT:mbctype.obj
 0003:00002f0c       ___mbcodepage              00455f0c     LIBCMT:mbctype.obj
 0003:00002f10       ___ismbcodepage            00455f10     LIBCMT:mbctype.obj
 0003:00002f14       ___mblcid                  00455f14     LIBCMT:mbctype.obj
 0003:00002f18       ___lc_handle               00455f18     LIBCMT:nlsdata2.obj
 0003:00002f30       ___lc_codepage             00455f30     LIBCMT:nlsdata2.obj
 0003:00002f34       ___lc_collate_cp           00455f34     LIBCMT:nlsdata2.obj
 0003:00002f44       ___pPurecall               00455f44     LIBCMT:inithelp.obj
 0003:00003020       __newmode                  00456020     LIBCMT:_newmode.obj
 0003:00003038       ?pArgList@UnDecorator@@0PAVReplicator@@A 00456038     LIBCMT:undname.obj
 0003:0000303c       ?pZNameList@UnDecorator@@0PAVReplicator@@A 0045603c     LIBCMT:undname.obj
 0003:00003040       ?pTemplateArgList@UnDecorator@@0PAVReplicator@@A 00456040     LIBCMT:undname.obj
 0003:00003044       ?gName@UnDecorator@@0PBDB  00456044     LIBCMT:undname.obj
 0003:00003048       ?name@UnDecorator@@0PBDB   00456048     LIBCMT:undname.obj
 0003:0000304c       ?outputString@UnDecorator@@0PADA 0045604c     LIBCMT:undname.obj
 0003:00003050       ?maxStringLength@UnDecorator@@0HA 00456050     LIBCMT:undname.obj
 0003:00003054       ?disableFlags@UnDecorator@@0KA 00456054     LIBCMT:undname.obj
 0003:00003058       ?m_pGetParameter@UnDecorator@@0P6APADJ@ZA 00456058     LIBCMT:undname.obj
 0003:0000305c       ?fExplicitTemplateParams@UnDecorator@@0_NA 0045605c     LIBCMT:undname.obj
 0003:0000305d       ?fGetTemplateArgumentList@UnDecorator@@0_NA 0045605d     LIBCMT:undname.obj
 0003:0000307c       __outputformat             0045607c     LIBCMT:outputformat.obj
 0003:00003084       __commode                  00456084     LIBCMT:ncommode.obj
 0003:00003088       __stdbuf                   00456088     LIBCMT:_sftbuf.obj
 0003:00003090       __fmode                    00456090     LIBCMT:txtmode.obj
 0003:00003094       __nhandle                  00456094     <common>
 0003:000030a0       ___pioinfo                 004560a0     <common>
 0003:000031a0       ___piob                    004561a0     <common>
 0003:000031c0       __bufin                    004561c0     <common>
 0003:000041c0       __nstream                  004571c0     <common>
 0003:000041c4       __debugger_hook_dummy      004571c4     <common>
 0003:000041c8       ___sbh_initialized         004571c8     <common>
 0003:000041cc       ___sbh_cntHeaderList       004571cc     <common>
 0003:000041d0       ___sbh_pHeaderList         004571d0     <common>
 0003:000041d4       ___sbh_threshold           004571d4     <common>
 0003:000041d8       ___sbh_pHeaderScan         004571d8     <common>
 0003:000041dc       ___sbh_sizeHeaderList      004571dc     <common>
 0003:000041e0       ___sbh_indGroupDefer       004571e0     <common>
 0003:000041e4       ___active_heap             004571e4     <common>
 0003:000041e8       ___use_sse2_mathfcns       004571e8     <common>
 0003:000041ec       ___sse2_available          004571ec     <common>
 0003:000041f0       ___env_initialized         004571f0     <common>
 0003:000041f4       ___onexitend               004571f4     <common>
 0003:000041f8       ___onexitbegin             004571f8     <common>
 0003:000041fc       ___mbctype_initialized     004571fc     <common>
 0003:00004200       ___dyn_tls_init_callback   00457200     <common>
 0003:00004204       ___setlc_active            00457204     <common>
 0003:00004208       ___unguarded_readlc_active 00457208     <common>
 0003:0000420c       __acmdln                   0045720c     <common>

 entry point at        0001:00020204

 Static symbols

 0001:fffff000       __unwindfunclet$??0logic_error@std@@QAE@ABV01@@Z$0 00400000 f   libcpmt:string.obj
 0001:fffff000       __ehhandler$?_Copy@?$basic_string@DU?$char_traits@D@std@@V?$allocator@D@2@@std@@IAEXII@Z 00400000 f   libcpmt:string.obj
 0001:fffff000       __ehhandler$?_Copy@?$basic_string@DU?$char_traits@D@std@@V?$allocator@D@2@@std@@IAEXII@Z 00400000 f   TestFrame.obj
 0001:fffff000       __unwindfunclet$??0logic_error@std@@QAE@ABV?$basic_string@DU?$char_traits@D@std@@V?$allocator@D@2@@1@@Z$0 00400000 f   libcpmt:string.obj
 0001:fffff000       __unwindfunclet$??0runtime_error@std@@QAE@ABV01@@Z$0 00400000 f   libcpmt:locale.obj
 0001:fffff000       __ehhandler$?_Copy@?$basic_string@DU?$char_traits@D@std@@V?$allocator@D@2@@std@@IAEXII@Z 00400000 f   libcpmt:xlocale.obj
 0001:fffff000       __unwindfunclet$??1_Locinfo@std@@QAE@XZ$0 00400000 f   libcpmt:wlocale.obj
 0001:fffff000       __unwindfunclet$??0?$ctype@D@std@@QAE@PBF_NI@Z$0 00400000 f   libcpmt:locale.obj
 0001:fffff000       __unwindfunclet$??0runtime_error@std@@QAE@ABV?$basic_string@DU?$char_traits@D@std@@V?$allocator@D@2@@1@@Z$0 00400000 f   libcpmt:wlocale.obj
 0001:fffff000       __unwindfunclet$??0runtime_error@std@@QAE@ABV?$basic_string@DU?$char_traits@D@std@@V?$allocator@D@2@@1@@Z$0 00400000 f   libcpmt:locale.obj
 0001:fffff000       __unwindfunclet$??1_Locinfo@std@@QAE@XZ$0 00400000 f   libcpmt:xlocale.obj
 0001:fffff000       __ehhandler$?_Copy@?$basic_string@DU?$char_traits@D@std@@V?$allocator@D@2@@std@@IAEXII@Z 00400000 f   libcpmt:locale0.obj
 0001:fffff000       __unwindfunclet$??0runtime_error@std@@QAE@ABV?$basic_string@DU?$char_traits@D@std@@V?$allocator@D@2@@1@@Z$0 00400000 f   libcpmt:xlocale.obj
 0001:fffff000       __unwindfunclet$?_Getcat@?$ctype@D@std@@SAIPAPBVfacet@locale@2@@Z$0 00400000 f   libcpmt:locale.obj
 0001:fffff000       __unwindfunclet$??0_Locimp@locale@std@@AAE@_N@Z$0 00400000 f   libcpmt:locale0.obj
 0001:fffff000       __unwindfunclet$??1_Locinfo@std@@QAE@XZ$0 00400000 f   libcpmt:locale.obj
 0001:fffff000       __unwindfunclet$??0?$codecvt@DDH@std@@QAE@I@Z$0 00400000 f   libcpmt:locale.obj
 0001:fffff000       __unwindfunclet$??1_Locimp@locale@std@@MAE@XZ$0 00400000 f   libcpmt:locale0.obj
 0001:fffff000       __unwindfunclet$??$use_facet@V?$ctype@D@std@@@std@@YAABV?$ctype@D@0@ABVlocale@0@@Z$0 00400000 f   libcpmt:locale.obj
 0001:fffff000       __unwindfunclet$??0_Locinfo@std@@QAE@PBD@Z$0 00400000 f   libcpmt:xlocale.obj
 0001:fffff000       __unwindfunclet$?_Getcat@?$codecvt@DDH@std@@SAIPAPBVfacet@locale@2@@Z$0 00400000 f   libcpmt:locale.obj
 0001:fffff000       __unwindfunclet$??0runtime_error@std@@QAE@ABV01@@Z$0 00400000 f   libcpmt:xlocale.obj
 0001:fffff000       __unwindfunclet$??$use_facet@V?$codecvt@DDH@std@@@std@@YAABV?$codecvt@DDH@0@ABVlocale@0@@Z$0 00400000 f   libcpmt:locale.obj
 0001:fffff000       __unwindfunclet$??0?$ctype@D@std@@QAE@PBF_NI@Z$0 00400000 f   libcpmt:xlocale.obj
 0001:fffff000       __ehhandler$?_Copy@?$basic_string@DU?$char_traits@D@std@@V?$allocator@D@2@@std@@IAEXII@Z 00400000 f   libcpmt:locale.obj
 0001:fffff000       __unwindfunclet$?_Getcat@?$ctype@D@std@@SAIPAPBVfacet@locale@2@@Z$0 00400000 f   libcpmt:xlocale.obj
 0001:fffff000       __ehhandler$?_Copy@?$basic_string@DU?$char_traits@D@std@@V?$allocator@D@2@@std@@IAEXII@Z 00400000 f   libcpmt:wlocale.obj
 0001:fffff000       __unwindfunclet$??$use_facet@V?$ctype@D@std@@@std@@YAABV?$ctype@D@0@ABVlocale@0@@Z$0 00400000 f   libcpmt:xlocale.obj
 0001:fffff000       __unwindfunclet$??0runtime_error@std@@QAE@ABV01@@Z$0 00400000 f   libcpmt:wlocale.obj
 0001:fffff000       __unwindfunclet$??$_Getloctxt@DV?$istreambuf_iterator@DU?$char_traits@D@std@@@std@@@std@@YAHAAV?$istreambuf_iterator@DU?$char_traits@D@std@@@0@0IPBD@Z$0 00400000 f   libcpmt:xlocale.obj
 0001:fffff000       __unwindfunclet$??0_Locinfo@std@@QAE@PBD@Z$0 00400000 f   libcpmt:wlocale.obj
 0001:fffff000       __unwindfunclet$??0_Locinfo@std@@QAE@PBD@Z$0 00400000 f   libcpmt:locale.obj
 0001:fffff008       __ehhandler$??$use_facet@V?$ctype@D@std@@@std@@YAABV?$ctype@D@0@ABVlocale@0@@Z 00400008 f   libcpmt:xlocale.obj
 0001:fffff008       __ehhandler$??0runtime_error@std@@QAE@ABV?$basic_string@DU?$char_traits@D@std@@V?$allocator@D@2@@1@@Z 00400008 f   libcpmt:wlocale.obj
 0001:fffff008       __ehhandler$??0runtime_error@std@@QAE@ABV01@@Z 00400008 f   libcpmt:wlocale.obj
 0001:fffff008       __ehhandler$??$use_facet@V?$codecvt@DDH@std@@@std@@YAABV?$codecvt@DDH@0@ABVlocale@0@@Z 00400008 f   libcpmt:locale.obj
 0001:fffff008       __ehhandler$??0runtime_error@std@@QAE@ABV01@@Z 00400008 f   libcpmt:xlocale.obj
 0001:fffff008       __unwindfunclet$??1_Locinfo@std@@QAE@XZ$1 00400008 f   libcpmt:locale.obj
 0001:fffff008       __unwindfunclet$??0_Locinfo@std@@QAE@PBD@Z$1 00400008 f   libcpmt:wlocale.obj
 0001:fffff008       __ehhandler$??$use_facet@V?$ctype@D@std@@@std@@YAABV?$ctype@D@0@ABVlocale@0@@Z 00400008 f   libcpmt:locale.obj
 0001:fffff008       __unwindfunclet$??0_Locinfo@std@@QAE@PBD@Z$1 00400008 f   libcpmt:xlocale.obj
 0001:fffff008       __unwindfunclet$??1_Locinfo@std@@QAE@XZ$1 00400008 f   libcpmt:wlocale.obj
 0001:fffff008       __unwindfunclet$??1_Locimp@locale@std@@MAE@XZ$1 00400008 f   libcpmt:locale0.obj
 0001:fffff008       __ehhandler$??0_Locimp@locale@std@@AAE@_N@Z 00400008 f   libcpmt:locale0.obj
 0001:fffff008       __ehhandler$??0runtime_error@std@@QAE@ABV?$basic_string@DU?$char_traits@D@std@@V?$allocator@D@2@@1@@Z 00400008 f   libcpmt:xlocale.obj
 0001:fffff008       __unwindfunclet$??1_Locinfo@std@@QAE@XZ$1 00400008 f   libcpmt:xlocale.obj
 0001:fffff008       __ehhandler$??0logic_error@std@@QAE@ABV01@@Z 00400008 f   libcpmt:string.obj
 0001:fffff008       __ehhandler$??0runtime_error@std@@QAE@ABV01@@Z 00400008 f   libcpmt:locale.obj
 0001:fffff008       __ehhandler$??0logic_error@std@@QAE@ABV?$basic_string@DU?$char_traits@D@std@@V?$allocator@D@2@@1@@Z 00400008 f   libcpmt:string.obj
 0001:fffff008       __ehhandler$??0runtime_error@std@@QAE@ABV?$basic_string@DU?$char_traits@D@std@@V?$allocator@D@2@@1@@Z 00400008 f   libcpmt:locale.obj
 0001:fffff008       __ehhandler$??$_Getloctxt@DV?$istreambuf_iterator@DU?$char_traits@D@std@@@std@@@std@@YAHAAV?$istreambuf_iterator@DU?$char_traits@D@std@@@0@0IPBD@Z 00400008 f   libcpmt:xlocale.obj
 0001:fffff008       __unwindfunclet$??0_Locinfo@std@@QAE@PBD@Z$1 00400008 f   libcpmt:locale.obj
 0001:fffff00a       __ehhandler$?_Getcat@?$ctype@D@std@@SAIPAPBVfacet@locale@2@@Z 0040000a f   libcpmt:locale.obj
 0001:fffff00a       __ehhandler$?_Getcat@?$codecvt@DDH@std@@SAIPAPBVfacet@locale@2@@Z 0040000a f   libcpmt:locale.obj
 0001:fffff00a       __ehhandler$?_Getcat@?$ctype@D@std@@SAIPAPBVfacet@locale@2@@Z 0040000a f   libcpmt:xlocale.obj
 0001:fffff00b       __ehhandler$??0?$ctype@D@std@@QAE@PBF_NI@Z 0040000b f   libcpmt:xlocale.obj
 0001:fffff00b       __ehhandler$??0?$codecvt@DDH@std@@QAE@I@Z 0040000b f   libcpmt:locale.obj
 0001:fffff00b       __ehhandler$??0?$ctype@D@std@@QAE@PBF_NI@Z 0040000b f   libcpmt:locale.obj
 0001:fffff013       __unwindfunclet$??1_Locinfo@std@@QAE@XZ$2 00400013 f   libcpmt:xlocale.obj
 0001:fffff013       __unwindfunclet$??1_Locinfo@std@@QAE@XZ$2 00400013 f   libcpmt:wlocale.obj
 0001:fffff013       __unwindfunclet$??1_Locinfo@std@@QAE@XZ$2 00400013 f   libcpmt:locale.obj
 0001:fffff013       __unwindfunclet$??0_Locinfo@std@@QAE@PBD@Z$2 00400013 f   libcpmt:locale.obj
 0001:fffff013       __unwindfunclet$??0_Locinfo@std@@QAE@PBD@Z$2 00400013 f   libcpmt:wlocale.obj
 0001:fffff013       __ehhandler$??1_Locimp@locale@std@@MAE@XZ 00400013 f   libcpmt:locale0.obj
 0001:fffff013       __unwindfunclet$??0_Locinfo@std@@QAE@PBD@Z$2 00400013 f   libcpmt:xlocale.obj
 0001:fffff01e       __unwindfunclet$??1_Locinfo@std@@QAE@XZ$3 0040001e f   libcpmt:wlocale.obj
 0001:fffff01e       __unwindfunclet$??0_Locinfo@std@@QAE@PBD@Z$3 0040001e f   libcpmt:locale.obj
 0001:fffff01e       __unwindfunclet$??1_Locinfo@std@@QAE@XZ$3 0040001e f   libcpmt:locale.obj
 0001:fffff01e       __unwindfunclet$??0_Locinfo@std@@QAE@PBD@Z$3 0040001e f   libcpmt:xlocale.obj
 0001:fffff01e       __unwindfunclet$??0_Locinfo@std@@QAE@PBD@Z$3 0040001e f   libcpmt:wlocale.obj
 0001:fffff01e       __unwindfunclet$??1_Locinfo@std@@QAE@XZ$3 0040001e f   libcpmt:xlocale.obj
 0001:fffff029       __unwindfunclet$??1_Locinfo@std@@QAE@XZ$4 00400029 f   libcpmt:locale.obj
 0001:fffff029       __unwindfunclet$??1_Locinfo@std@@QAE@XZ$4 00400029 f   libcpmt:xlocale.obj
 0001:fffff029       __unwindfunclet$??1_Locinfo@std@@QAE@XZ$4 00400029 f   libcpmt:wlocale.obj
 0001:fffff029       __unwindfunclet$??0_Locinfo@std@@QAE@PBD@Z$4 00400029 f   libcpmt:xlocale.obj
 0001:fffff029       __unwindfunclet$??0_Locinfo@std@@QAE@PBD@Z$4 00400029 f   libcpmt:wlocale.obj
 0001:fffff029       __unwindfunclet$??0_Locinfo@std@@QAE@PBD@Z$4 00400029 f   libcpmt:locale.obj
 0001:fffff034       __ehhandler$??1_Locinfo@std@@QAE@XZ 00400034 f   libcpmt:xlocale.obj
 0001:fffff034       __unwindfunclet$??0_Locinfo@std@@QAE@PBD@Z$5 00400034 f   libcpmt:xlocale.obj
 0001:fffff034       __unwindfunclet$??0_Locinfo@std@@QAE@PBD@Z$5 00400034 f   libcpmt:wlocale.obj
 0001:fffff034       __ehhandler$??1_Locinfo@std@@QAE@XZ 00400034 f   libcpmt:locale.obj
 0001:fffff034       __unwindfunclet$??0_Locinfo@std@@QAE@PBD@Z$5 00400034 f   libcpmt:locale.obj
 0001:fffff034       __ehhandler$??1_Locinfo@std@@QAE@XZ 00400034 f   libcpmt:wlocale.obj
 0001:fffff03c       __ehhandler$??0_Locinfo@std@@QAE@PBD@Z 0040003c f   libcpmt:wlocale.obj
 0001:fffff03c       __ehhandler$??0_Locinfo@std@@QAE@PBD@Z 0040003c f   libcpmt:xlocale.obj
 0001:fffff03c       __ehhandler$??0_Locinfo@std@@QAE@PBD@Z 0040003c f   libcpmt:locale.obj
 0001:fffff05b       __catch$?_Copy@?$basic_string@DU?$char_traits@D@std@@V?$allocator@D@2@@std@@IAEXII@Z$0 0040005b f   libcpmt:xlocale.obj
 0001:fffff05b       __catch$?_Copy@?$basic_string@DU?$char_traits@D@std@@V?$allocator@D@2@@std@@IAEXII@Z$0 0040005b f   libcpmt:locale0.obj
 0001:fffff05b       __catch$?_Copy@?$basic_string@DU?$char_traits@D@std@@V?$allocator@D@2@@std@@IAEXII@Z$0 0040005b f   libcpmt:wlocale.obj
 0001:fffff05b       __catch$?_Copy@?$basic_string@DU?$char_traits@D@std@@V?$allocator@D@2@@std@@IAEXII@Z$0 0040005b f   libcpmt:locale.obj
 0001:fffff05b       __catch$?_Copy@?$basic_string@DU?$char_traits@D@std@@V?$allocator@D@2@@std@@IAEXII@Z$0 0040005b f   libcpmt:string.obj
 0001:fffff07d       __catch$?_Copy@?$basic_string@DU?$char_traits@D@std@@V?$allocator@D@2@@std@@IAEXII@Z$0 0040007d f   TestFrame.obj
 0001:fffff0cd       __catch$?_Copy@?$basic_string@DU?$char_traits@D@std@@V?$allocator@D@2@@std@@IAEXII@Z$1 004000cd f   libcpmt:wlocale.obj
 0001:fffff0cd       __catch$?_Copy@?$basic_string@DU?$char_traits@D@std@@V?$allocator@D@2@@std@@IAEXII@Z$1 004000cd f   libcpmt:string.obj
 0001:fffff0cd       __catch$?_Copy@?$basic_string@DU?$char_traits@D@std@@V?$allocator@D@2@@std@@IAEXII@Z$1 004000cd f   libcpmt:xlocale.obj
 0001:fffff0cd       __catch$?_Copy@?$basic_string@DU?$char_traits@D@std@@V?$allocator@D@2@@std@@IAEXII@Z$1 004000cd f   libcpmt:locale0.obj
 0001:fffff0cd       __catch$?_Copy@?$basic_string@DU?$char_traits@D@std@@V?$allocator@D@2@@std@@IAEXII@Z$1 004000cd f   libcpmt:locale.obj
 0001:fffff110       __catch$?_Copy@?$basic_string@DU?$char_traits@D@std@@V?$allocator@D@2@@std@@IAEXII@Z$1 00400110 f   TestFrame.obj
 0001:00001d8d       __catch$?_Copy@?$basic_string@DU?$char_traits@D@std@@V?$allocator@D@2@@std@@IAEXII@Z$0 00402d8d f i IniFile.obj
 0001:00001e20       __catch$?_Copy@?$basic_string@DU?$char_traits@D@std@@V?$allocator@D@2@@std@@IAEXII@Z$1 00402e20 f i IniFile.obj
 0001:000044ba       __catch$??0locale@std@@QAE@ABV01@0H@Z$0 004054ba f i IniFile.obj
 0001:00004628       __catch$??0locale@std@@QAE@PBDH@Z$0 00405628 f i IniFile.obj
 0001:00004d19       __catch$?_Buynode@?$_Tree@V?$_Tmap_traits@U?$pair@V?$basic_string@DU?$char_traits@D@std@@V?$allocator@D@2@@std@@V12@@std@@V?$basic_string@DU?$char_traits@D@std@@V?$allocator@D@2@@2@U?$less@U?$pair@V?$basic_string@DU?$char_traits@D@std@@V?$allocator@D@2@@std@@V12@@std@@@2@V?$allocator@U?$pair@$$CBU?$pair@V?$basic_string@DU?$char_traits@D@std@@V?$allocator@D@2@@std@@V12@@std@@V?$basic_string@DU?$char_traits@D@std@@V?$allocator@D@2@@2@@std@@@2@$0A@@std@@@std@@IAEPAU_Node@?$_Tree_nod@V?$_Tmap_traits@U?$pair@V?$basic_string@DU?$char_traits@D@std@@V?$allocator@D@2@@std@@V12@@std@@V?$basic_string@DU?$char_traits@D@std@@V?$allocator@D@2@@2@U?$less@U?$pair@V?$basic_string@DU?$char_traits@D@std@@V?$allocator@D@2@@std@@V12@@std@@@2@V?$allocator@U?$pair@$$CBU?$pair@V?$basic_string@DU?$char_traits@D@std@@V?$allocator@D@2@@std@@V12@@std@@V?$basic_string@DU?$char_traits@D@std@@V?$allocator@D@2@@2@@std@@@2@$0A@@std@@@2@PAU342@00ABU?$pair@$$CBU?$pair@V?$basic_string@DU?$char_traits@D@std@@V?$allocator@D@2@@std@@V12@@std@@V?$basic_string@DU?$char_traits@D@std@@V?$allocator@D@2@@2@@2@D@Z$0 00405d19 f i IniFile.obj
 0001:00005fcc       __catch$?_Ipfx@?$basic_istream@DU?$char_traits@D@std@@@std@@QAE_N_N@Z$0 00406fcc f i IniFile.obj
 0001:00006822       __catch$??$getline@DU?$char_traits@D@std@@V?$allocator@D@2@@std@@YAAAV?$basic_istream@DU?$char_traits@D@std@@@0@AAV10@AAV?$basic_string@DU?$char_traits@D@std@@V?$allocator@D@2@@0@D@Z$0 00407822 f i IniFile.obj
 0001:00007f62       _tidy_global               00408f62 f   libcpmt:locale0.obj
 0001:000088dc       __catch$?_Init@?$numpunct@D@std@@IAEXABV_Locinfo@2@@Z$0 004098dc f i libcpmt:locale.obj
 0001:0000d8f1       __catch$?_Init@?$numpunct@_W@std@@IAEXABV_Locinfo@2@@Z$0 0040e8f1 f i libcpmt:wlocale.obj
 0001:0000da5f       __catch$?_Init@?$numpunct@G@std@@IAEXABV_Locinfo@2@@Z$0 0040ea5f f i libcpmt:wlocale.obj
 0001:0000dd67       __catch$?_Init@?$_Mpunct@_W@std@@IAEXABV_Locinfo@2@@Z$0 0040ed67 f i libcpmt:wlocale.obj
 0001:0000e048       __catch$?_Init@?$_Mpunct@G@std@@IAEXABV_Locinfo@2@@Z$0 0040f048 f i libcpmt:wlocale.obj
 0001:0000e86e       __catch$?_Copy@?$basic_string@_WU?$char_traits@_W@std@@V?$allocator@_W@2@@std@@IAEXII@Z$0 0040f86e f i libcpmt:wlocale.obj
 0001:0000e8e0       __catch$?_Copy@?$basic_string@_WU?$char_traits@_W@std@@V?$allocator@_W@2@@std@@IAEXII@Z$1 0040f8e0 f i libcpmt:wlocale.obj
 0001:0000e955       __catch$?_Copy@?$basic_string@GU?$char_traits@G@std@@V?$allocator@G@2@@std@@IAEXII@Z$0 0040f955 f i libcpmt:wlocale.obj
 0001:0000e9c7       __catch$?_Copy@?$basic_string@GU?$char_traits@G@std@@V?$allocator@G@2@@std@@IAEXII@Z$1 0040f9c7 f i libcpmt:wlocale.obj
 0001:00010437       __catch$?_Init@?$time_get@_WV?$istreambuf_iterator@_WU?$char_traits@_W@std@@@std@@@std@@IAEXABV_Locinfo@2@@Z$0 00411437 f i libcpmt:wlocale.obj
 0001:0001072c       __catch$?_Init@?$time_get@GV?$istreambuf_iterator@GU?$char_traits@G@std@@@std@@@std@@IAEXABV_Locinfo@2@@Z$0 0041172c f i libcpmt:wlocale.obj
 0001:00019e00       __catch$?_Init@?$_Mpunct@D@std@@IAEXABV_Locinfo@2@@Z$0 0041ae00 f i libcpmt:xlocale.obj
 0001:0001a3e6       __catch$?_Init@?$time_get@DV?$istreambuf_iterator@DU?$char_traits@D@std@@@std@@@std@@IAEXABV_Locinfo@2@@Z$0 0041b3e6 f i libcpmt:xlocale.obj
 0001:0001ce31       __CreateLocForCP           0041de31 f   libcpmt:xmbtowc.obj
 0001:0001cf03       __ReleaseCPLocHash         0041df03 f   libcpmt:xmbtowc.obj
 0001:0001cf41       __InitCPLocHash            0041df41 f   libcpmt:xmbtowc.obj
 0001:0001d2d2       __Wmemcmp                  0041e2d2 f   libcpmt:xwcscoll.obj
 0001:0001d92d       _dmul                      0041e92d f   libcpmt:xfdtento.obj
 0001:0001ddd2       _dmul                      0041edd2 f   libcpmt:xdtento.obj
 0001:0001e168       _dmul                      0041f168 f   libcpmt:xldtento.obj
 0001:0001eeb9       ?CatchGuardHandler@@YA?AW4_EXCEPTION_DISPOSITION@@PAUEHExceptionRecord@@PAUCatchGuardRN@@PAX2@Z 0041feb9 f   LIBCMT:trnsctrl.obj
 0001:0001efbe       ?TranslatorGuardHandler@@YA?AW4_EXCEPTION_DISPOSITION@@PAUEHExceptionRecord@@PAUTranslatorGuardRN@@PAX2@Z 0041ffbe f   LIBCMT:trnsctrl.obj
 0001:0001f90a       _flsall                    0042090a f   LIBCMT:fflush.obj
 0001:0001ffbf       _fast_error_exit           00420fbf f   LIBCMT:wincrt0.obj
 0001:0001ffe3       _check_managed_app         00420fe3 f   LIBCMT:wincrt0.obj
 0001:00020024       ___tmainCRTStartup         00421024 f   LIBCMT:wincrt0.obj
 0001:000202ce       ?strncnt@@YAHPBDH@Z        004212ce f   LIBCMT:a_map.obj
 0001:000202e8       ?__crtLCMapStringA_stat@@YAHPAUlocaleinfo_struct@@KKPBDHPADHHH@Z 004212e8 f   LIBCMT:a_map.obj
 0001:000215f5       __onexit_nolock            004225f5 f   LIBCMT:onexit.obj
 0001:00021b13       __copytlocinfo_nolock      00422b13 f   LIBCMT:setlocal.obj
 0001:00021b37       __updatetlocinfoEx_nolock  00422b37 f   LIBCMT:setlocal.obj
 0001:00021c51       _sync_legacy_variables_lk  00422c51 f   LIBCMT:setlocal.obj
 0001:00021fa1       __setlocale_get_all        00422fa1 f   LIBCMT:setlocal.obj
 0001:000222e6       __setlocale_set_cat        004232e6 f   LIBCMT:setlocal.obj
 0001:000225dc       __setlocale_nolock         004235dc f   LIBCMT:setlocal.obj
 0001:00022a12       _cmpResult                 00423a12 f   LIBCMT:memcmp.obj
 0001:00022a24       _cmpBYTE                   00423a24 f   LIBCMT:memcmp.obj
 0001:00022a3c       _cmpWORD                   00423a3c f   LIBCMT:memcmp.obj
 0001:00022a7c       _cmpDWORD                  00423a7c f   LIBCMT:memcmp.obj
 0001:00022af4       _unaligned_memcmp          00423af4 f   LIBCMT:memcmp.obj
 0001:00025676       ?strtoxq@@YA_KPAUlocaleinfo_struct@@PBDPAPBDHH@Z 00426676 f   LIBCMT:strtoq.obj
 0001:00025cdd       ?wcsncnt@@YAIPB_WI@Z       00426cdd f   LIBCMT:wcstombs.obj
 0001:000261d7       __initterm                 004271d7 f   LIBCMT:crt0dat.obj
 0001:00026436       _doexit                    00427436 f   LIBCMT:crt0dat.obj
 0001:00026fdf       ?_store_str@@YAXPADPAPADPAI@Z 00427fdf f   LIBCMT:strftime.obj
 0001:00026fff       ?_store_number@@YAXHPAPADPAI@Z 00427fff f   LIBCMT:strftime.obj
 0001:00027035       ?_store_num@@YAXHHPAPADPAII@Z 00428035 f   LIBCMT:strftime.obj
 0001:000270ae       ?_expandtime@@YAHPAUlocaleinfo_struct@@DPBUtm@@PAPADPAIPAU__lc_time_data@@I@Z 004280ae f   LIBCMT:strftime.obj
 0001:00027489       ?_store_winword@@YAHPAUlocaleinfo_struct@@HPBUtm@@PAPADPAIPAU__lc_time_data@@@Z 00428489 f   LIBCMT:strftime.obj
 0001:00027e38       _xtoa_s@20                 00428e38 f   LIBCMT:xtoas.obj
 0001:00027f78       @x64toa_s@24               00428f78 f   LIBCMT:xtoas.obj
 0001:000280be       ?strncnt@@YAHPBDH@Z        004290be f   LIBCMT:a_cmp.obj
 0001:000280d8       ?__crtCompareStringA_stat@@YAHPAUlocaleinfo_struct@@KKPBDH1HH@Z 004290d8 f   LIBCMT:a_cmp.obj
 0001:000284a1       ?__crtGetStringTypeW_stat@@YAHPAUlocaleinfo_struct@@KPB_WHPAGHH@Z 004294a1 f   LIBCMT:w_str.obj
 0001:00028703       ?wcsncnt@@YAHPB_WH@Z       00429703 f   LIBCMT:w_map.obj
 0001:0002871f       ?__crtLCMapStringW_stat@@YAHPAUlocaleinfo_struct@@KKPB_WHPA_WHH@Z 0042971f f   LIBCMT:w_map.obj
 0001:000289c0       ?wcsncnt@@YAHPB_WH@Z       004299c0 f   LIBCMT:w_cmp.obj
 0001:000289dc       ?__crtCompareStringW_stat@@YAHPAUlocaleinfo_struct@@KKPB_WH1HH@Z 004299dc f   LIBCMT:w_cmp.obj
 0001:000291c5       _fastzero_I                0042a1c5 f   LIBCMT:p4_memset.obj
 0001:0002a620       _ValidateLocalCookies      0042b620 f   LIBCMT:chandler4.obj
 0001:0002b48f       ?ExFilterRethrow@@YAHPAU_EXCEPTION_POINTERS@@@Z 0042c48f f   LIBCMT:frame.obj
 0001:0002b870       ?IsInExceptionSpec@@YAEPAUEHExceptionRecord@@PBU_s_ESTypeList@@@Z 0042c870 f   LIBCMT:frame.obj
 0001:0002b8e9       ?CallUnexpected@@YAXPBU_s_ESTypeList@@@Z 0042c8e9 f   LIBCMT:frame.obj
 0001:0002b91a       __catch$?CallUnexpected@@YAXPBU_s_ESTypeList@@@Z$0 0042c91a f   LIBCMT:frame.obj
 0001:0002b932       ?Is_bad_exception_allowed@@YAEPBU_s_ESTypeList@@@Z 0042c932 f   LIBCMT:frame.obj
 0001:0002b9e4       ?CallCatchBlock@@YAPAXPAUEHExceptionRecord@@PAUEHRegistrationNode@@PAU_CONTEXT@@PBU_s_FuncInfo@@PAXHK@Z 0042c9e4 f   LIBCMT:frame.obj
 0001:0002bed3       ?CatchIt@@YAXPAUEHExceptionRecord@@PAUEHRegistrationNode@@PAU_CONTEXT@@PAXPBU_s_FuncInfo@@PBU_s_HandlerType@@PBU_s_CatchableType@@PBU_s_TryBlockMapEntry@@H1E@Z 0042ced3 f   LIBCMT:frame.obj
 0001:0002bf3f       ?FindHandlerForForeignException@@YAXPAUEHExceptionRecord@@PAUEHRegistrationNode@@PAU_CONTEXT@@PAXPBU_s_FuncInfo@@HH1@Z 0042cf3f f   LIBCMT:frame.obj
 0001:0002c031       ?FindHandler@@YAXPAUEHExceptionRecord@@PAUEHRegistrationNode@@PAU_CONTEXT@@PAXPBU_s_FuncInfo@@EH1@Z 0042d031 f   LIBCMT:frame.obj
 0001:0002deac       _xcptlookup                0042eeac f   LIBCMT:winxfltr.obj
 0001:0002e1aa       _parse_cmdline             0042f1aa f   LIBCMT:stdargv.obj
 0001:0002e60c       ?CPtoLCID@@YAHH@Z          0042f60c f   LIBCMT:mbctype.obj
 0001:0002e63b       ?setSBCS@@YAXPAUthreadmbcinfostruct@@@Z 0042f63b f   LIBCMT:mbctype.obj
 0001:0002e690       ?setSBUpLow@@YAXPAUthreadmbcinfostruct@@@Z 0042f690 f   LIBCMT:mbctype.obj
 0001:0002e8be       ?getSystemCP@@YAHH@Z       0042f8be f   LIBCMT:mbctype.obj
 0001:0002efe1       ?__crtGetStringTypeA_stat@@YAHPAUlocaleinfo_struct@@KPBDHPAGHHH@Z 0042ffe1 f   LIBCMT:a_str.obj
 0001:0002f33d       _fastcopy_I                0043033d f   LIBCMT:p4_memcpy.obj
 0001:0002f909       __get_lc_time              00430909 f   LIBCMT:inittime.obj
 0001:0002ff25       _fix_grouping              00430f25 f   LIBCMT:initnum.obj
 0001:00030160       _fix_grouping              00431160 f   LIBCMT:initmon.obj
 0001:00030607       _TranslateName             00431607 f   LIBCMT:getqloc.obj
 0001:00030667       _GetLcidFromDefault        00431667 f   LIBCMT:getqloc.obj
 0001:0003067b       _ProcessCodePage           0043167b f   LIBCMT:getqloc.obj
 0001:000306f2       _TestDefaultCountry        004316f2 f   LIBCMT:getqloc.obj
 0001:00030710       _LcidFromHexString         00431710 f   LIBCMT:getqloc.obj
 0001:00030742       _GetPrimaryLen             00431742 f   LIBCMT:getqloc.obj
 0001:0003075d       _CountryEnumProc@4         0043175d f   LIBCMT:getqloc.obj
 0001:000307f3       _TestDefaultLanguage       004317f3 f   LIBCMT:getqloc.obj
 0001:00030865       _LangCountryEnumProc@4     00431865 f   LIBCMT:getqloc.obj
 0001:00030a35       _LanguageEnumProc@4        00431a35 f   LIBCMT:getqloc.obj
 0001:00030af4       _GetLcidFromCountry        00431af4 f   LIBCMT:getqloc.obj
 0001:00030b20       _GetLcidFromLangCountry    00431b20 f   LIBCMT:getqloc.obj
 0001:00030b85       _GetLcidFromLanguage       00431b85 f   LIBCMT:getqloc.obj
 0001:000310e8       __shift                    004320e8 f   LIBCMT:cvt.obj
 0001:00031121       __cftoe2_l                 00432121 f   LIBCMT:cvt.obj
 0001:00031709       __cftof2_l                 00432709 f   LIBCMT:cvt.obj
 0001:00031b3c       _write_char                00432b3c f   LIBCMT:output.obj
 0001:00031b6f       _write_multi_char          00432b6f f   LIBCMT:output.obj
 0001:00031b93       _write_string              00432b93 f   LIBCMT:output.obj
 0001:00032e70       __unwind_handler4          00433e70 f   LIBCMT:exsup4.obj
 0001:000332b7       _ctrlevent_capture@4       004342b7 f   LIBCMT:winsig.obj
 0001:00033352       _siglookup                 00434352 f   LIBCMT:winsig.obj
 0001:000338aa       ___crtInitCritSecNoSpinCount@8 004348aa f   LIBCMT:initcrit.obj
 0001:00033d60       __tzset_nolock             00434d60 f   LIBCMT:tzset.obj
 0001:0003409f       _cvtdate                   0043509f f   LIBCMT:tzset.obj
 0001:00034294       __isindst_nolock           00435294 f   LIBCMT:tzset.obj
 0001:00034715       _has_osfxsr_set            00435715 f   LIBCMT:cpu_disp.obj
 0001:00035142       ?und_strlen@@YAIPBD@Z      00436142 f   LIBCMT:undname.obj
 0001:00035150       ?und_strncpy@@YAPADPADPBDI@Z 00436150 f   LIBCMT:undname.obj
 0001:00035170       ?und_strncmp@@YAIPBD0I@Z   00436170 f   LIBCMT:undname.obj
 0001:00039bb0       __unwind_handler           0043abb0 f   LIBCMT:exsup.obj
 0001:0003af84       ?x_ismbbtype_l@@YAHPAUlocaleinfo_struct@@IHH@Z 0043bf84 f   LIBCMT:ismbbyte.obj
 0001:0003b26b       ?__crtGetLocaleInfoW_stat@@YAHPAUlocaleinfo_struct@@KKPA_WHH@Z 0043c26b f   LIBCMT:w_loc.obj
 0001:0003b3e1       ?__crtGetLocaleInfoA_stat@@YAHPAUlocaleinfo_struct@@KKPADHH@Z 0043c3e1 f   LIBCMT:a_loc.obj
 0001:0003c138       _write_char                0043d138 f   LIBCMT:outputp.obj
 0001:0003c16b       _write_multi_char          0043d16b f   LIBCMT:outputp.obj
 0001:0003c18f       _write_string              0043d18f f   LIBCMT:outputp.obj
 0001:0003d175       _write_char                0043e175 f   LIBCMT:outputs.obj
 0001:0003d1a8       _write_multi_char          0043e1a8 f   LIBCMT:outputs.obj
 0001:0003d1cc       _write_string              0043e1cc f   LIBCMT:outputs.obj
 0001:0003dbc6       __tsopen_nolock            0043ebc6 f   LIBCMT:open.obj
 0001:0003e781       __tsopen_nolock            0043f781 f   LIBCMT:wopen.obj
 0001:0003f2db       __getenv_s_helper          004402db f   LIBCMT:getenv.obj
 0001:0003f36e       __dupenv_s_helper          0044036e f   LIBCMT:getenv.obj
 0001:00041710       ?strtoxl@@YAKPAUlocaleinfo_struct@@PBDPAPBDHH@Z 00442710 f   LIBCMT:strtol.obj
 0001:000423d5       __abstract_cw              004433d5 f   LIBCMT:ieee87.obj
 0001:00042469       __hw_cw                    00443469 f   LIBCMT:ieee87.obj
 0001:000424f7       __abstract_sw              004434f7 f   LIBCMT:ieee87.obj
 0001:00042535       ___abstract_cw_sse2        00443535 f   LIBCMT:ieee87.obj
 0001:000425d2       ___hw_cw_sse2              004435d2 f   LIBCMT:ieee87.obj
 0001:00042672       ___abstract_sw_sse2        00443672 f   LIBCMT:ieee87.obj
 0001:000426b0       ___fpreset_sse2            004436b0 f   LIBCMT:ieee87.obj
 0001:00042782       ___statusfp_sse2           00443782 f   LIBCMT:ieee87.obj
 0001:000427bd       ___clearfp_sse2            004437bd f   LIBCMT:ieee87.obj
 0001:00042808       ___control87_sse2          00443808 f   LIBCMT:ieee87.obj
 0001:00044199       _findenv                   00445199 f   LIBCMT:setenv.obj
 0001:000441e6       _copy_environ              004451e6 f   LIBCMT:setenv.obj
 0001:000448a0       __unwindfunclet$??0?$basic_streambuf@DU?$char_traits@D@std@@@std@@IAE@XZ$0 004458a0 f   IniFile.obj
 0001:000448ab       __ehhandler$??0?$basic_streambuf@DU?$char_traits@D@std@@@std@@IAE@XZ 004458ab f   IniFile.obj
 0001:000448d0       __ehhandler$?_Copy@?$basic_string@DU?$char_traits@D@std@@V?$allocator@D@2@@std@@IAEXII@Z 004458d0 f   IniFile.obj
 0001:000448f0       __unwindfunclet$??1_Locinfo@std@@QAE@XZ$0 004458f0 f   IniFile.obj
 0001:000448f8       __unwindfunclet$??1_Locinfo@std@@QAE@XZ$1 004458f8 f   IniFile.obj
 0001:00044903       __unwindfunclet$??1_Locinfo@std@@QAE@XZ$2 00445903 f   IniFile.obj
 0001:0004490e       __unwindfunclet$??1_Locinfo@std@@QAE@XZ$3 0044590e f   IniFile.obj
 0001:00044919       __unwindfunclet$??1_Locinfo@std@@QAE@XZ$4 00445919 f   IniFile.obj
 0001:00044924       __ehhandler$??1_Locinfo@std@@QAE@XZ 00445924 f   IniFile.obj
 0001:00044940       __unwindfunclet$?uflow@?$basic_filebuf@DU?$char_traits@D@std@@@std@@MAEHXZ$0 00445940 f   IniFile.obj
 0001:00044948       __ehhandler$?uflow@?$basic_filebuf@DU?$char_traits@D@std@@@std@@MAEHXZ 00445948 f   IniFile.obj
 0001:00044970       __unwindfunclet$??0?$pair@V?$basic_string@DU?$char_traits@D@std@@V?$allocator@D@2@@std@@V12@@std@@QAE@ABV?$basic_string@DU?$char_traits@D@std@@V?$allocator@D@2@@1@0@Z$0 00445970 f   IniFile.obj
 0001:00044978       __ehhandler$??0?$pair@V?$basic_string@DU?$char_traits@D@std@@V?$allocator@D@2@@std@@V12@@std@@QAE@ABV?$basic_string@DU?$char_traits@D@std@@V?$allocator@D@2@@1@0@Z 00445978 f   IniFile.obj
 0001:000449a0       __unwindfunclet$??0?$pair@V?$basic_string@DU?$char_traits@D@std@@V?$allocator@D@2@@std@@V12@@std@@QAE@ABU01@@Z$0 004459a0 f   IniFile.obj
 0001:000449a8       __ehhandler$??0?$pair@V?$basic_string@DU?$char_traits@D@std@@V?$allocator@D@2@@std@@V12@@std@@QAE@ABU01@@Z 004459a8 f   IniFile.obj
 0001:000449d0       __unwindfunclet$?_Endwrite@?$basic_filebuf@DU?$char_traits@D@std@@@std@@IAE_NXZ$0 004459d0 f   IniFile.obj
 0001:000449d8       __ehhandler$?_Endwrite@?$basic_filebuf@DU?$char_traits@D@std@@@std@@IAE_NXZ 004459d8 f   IniFile.obj
 0001:00044a00       __unwindfunclet$??0?$pair@$$CBU?$pair@V?$basic_string@DU?$char_traits@D@std@@V?$allocator@D@2@@std@@V12@@std@@V?$basic_string@DU?$char_traits@D@std@@V?$allocator@D@2@@2@@std@@QAE@ABU01@@Z$0 00445a00 f   IniFile.obj
 0001:00044a08       __ehhandler$??0?$pair@$$CBU?$pair@V?$basic_string@DU?$char_traits@D@std@@V?$allocator@D@2@@std@@V12@@std@@V?$basic_string@DU?$char_traits@D@std@@V?$allocator@D@2@@2@@std@@QAE@ABU01@@Z 00445a08 f   IniFile.obj
 0001:00044a30       __unwindfunclet$??0logic_error@std@@QAE@ABV?$basic_string@DU?$char_traits@D@std@@V?$allocator@D@2@@1@@Z$0 00445a30 f   IniFile.obj
 0001:00044a38       __ehhandler$??0logic_error@std@@QAE@ABV?$basic_string@DU?$char_traits@D@std@@V?$allocator@D@2@@1@@Z 00445a38 f   IniFile.obj
 0001:00044a60       __unwindfunclet$??0runtime_error@std@@QAE@ABV?$basic_string@DU?$char_traits@D@std@@V?$allocator@D@2@@1@@Z$0 00445a60 f   IniFile.obj
 0001:00044a68       __ehhandler$??0runtime_error@std@@QAE@ABV?$basic_string@DU?$char_traits@D@std@@V?$allocator@D@2@@1@@Z 00445a68 f   IniFile.obj
 0001:00044a90       __unwindfunclet$??0_Locimp@locale@std@@AAE@ABV012@@Z$0 00445a90 f   IniFile.obj
 0001:00044a98       __unwindfunclet$??0_Locimp@locale@std@@AAE@ABV012@@Z$1 00445a98 f   IniFile.obj
 0001:00044aa3       __ehhandler$??0_Locimp@locale@std@@AAE@ABV012@@Z 00445aa3 f   IniFile.obj
 0001:00044ac0       __unwindfunclet$??1_Locimp@locale@std@@MAE@XZ$0 00445ac0 f   IniFile.obj
 0001:00044ac8       __unwindfunclet$??1_Locimp@locale@std@@MAE@XZ$1 00445ac8 f   IniFile.obj
 0001:00044ad3       __ehhandler$??1_Locimp@locale@std@@MAE@XZ 00445ad3 f   IniFile.obj
 0001:00044af0       __unwindfunclet$?overflow@?$basic_filebuf@DU?$char_traits@D@std@@@std@@MAEHH@Z$0 00445af0 f   IniFile.obj
 0001:00044af8       __ehhandler$?overflow@?$basic_filebuf@DU?$char_traits@D@std@@@std@@MAEHH@Z 00445af8 f   IniFile.obj
 0001:00044b20       __unwindfunclet$??0?$pair@$$CBU?$pair@V?$basic_string@DU?$char_traits@D@std@@V?$allocator@D@2@@std@@V12@@std@@V?$basic_string@DU?$char_traits@D@std@@V?$allocator@D@2@@2@@std@@QAE@ABU?$pair@V?$basic_string@DU?$char_traits@D@std@@V?$allocator@D@2@@std@@V12@@1@ABV?$basic_string@DU?$char_traits@D@std@@V?$allocator@D@2@@1@@Z$0 00445b20 f   IniFile.obj
 0001:00044b28       __ehhandler$??0?$pair@$$CBU?$pair@V?$basic_string@DU?$char_traits@D@std@@V?$allocator@D@2@@std@@V12@@std@@V?$basic_string@DU?$char_traits@D@std@@V?$allocator@D@2@@2@@std@@QAE@ABU?$pair@V?$basic_string@DU?$char_traits@D@std@@V?$allocator@D@2@@std@@V12@@1@ABV?$basic_string@DU?$char_traits@D@std@@V?$allocator@D@2@@1@@Z 00445b28 f   IniFile.obj
 0001:00044b50       __unwindfunclet$??0_Locinfo@std@@QAE@PBD@Z$0 00445b50 f   IniFile.obj
 0001:00044b58       __unwindfunclet$??0_Locinfo@std@@QAE@PBD@Z$1 00445b58 f   IniFile.obj
 0001:00044b63       __unwindfunclet$??0_Locinfo@std@@QAE@PBD@Z$2 00445b63 f   IniFile.obj
 0001:00044b6e       __unwindfunclet$??0_Locinfo@std@@QAE@PBD@Z$3 00445b6e f   IniFile.obj
 0001:00044b79       __unwindfunclet$??0_Locinfo@std@@QAE@PBD@Z$4 00445b79 f   IniFile.obj
 0001:00044b84       __unwindfunclet$??0_Locinfo@std@@QAE@PBD@Z$5 00445b84 f   IniFile.obj
 0001:00044b8c       __ehhandler$??0_Locinfo@std@@QAE@PBD@Z 00445b8c f   IniFile.obj
 0001:00044bb0       __unwindfunclet$??0runtime_error@std@@QAE@ABV01@@Z$0 00445bb0 f   IniFile.obj
 0001:00044bb8       __ehhandler$??0runtime_error@std@@QAE@ABV01@@Z 00445bb8 f   IniFile.obj
 0001:00044be0       __unwindfunclet$??0_Locinfo@std@@QAE@HPBD@Z$0 00445be0 f   IniFile.obj
 0001:00044be8       __unwindfunclet$??0_Locinfo@std@@QAE@HPBD@Z$1 00445be8 f   IniFile.obj
 0001:00044bf3       __unwindfunclet$??0_Locinfo@std@@QAE@HPBD@Z$2 00445bf3 f   IniFile.obj
 0001:00044bfe       __unwindfunclet$??0_Locinfo@std@@QAE@HPBD@Z$3 00445bfe f   IniFile.obj
 0001:00044c09       __unwindfunclet$??0_Locinfo@std@@QAE@HPBD@Z$4 00445c09 f   IniFile.obj
 0001:00044c14       __unwindfunclet$??0_Locinfo@std@@QAE@HPBD@Z$5 00445c14 f   IniFile.obj
 0001:00044c1c       __ehhandler$??0_Locinfo@std@@QAE@HPBD@Z 00445c1c f   IniFile.obj
 0001:00044c40       __unwindfunclet$?_Addcats@_Locinfo@std@@QAEAAV12@HPBD@Z$0 00445c40 f   IniFile.obj
 0001:00044c48       __ehhandler$?_Addcats@_Locinfo@std@@QAEAAV12@HPBD@Z 00445c48 f   IniFile.obj
 0001:00044c70       __unwindfunclet$??0_Locimp@locale@std@@AAE@_N@Z$0 00445c70 f   IniFile.obj
 0001:00044c78       __ehhandler$??0_Locimp@locale@std@@AAE@_N@Z 00445c78 f   IniFile.obj
 0001:00044ca0       __unwindfunclet$??0locale@std@@QAE@ABV01@0H@Z$2 00445ca0 f   IniFile.obj
 0001:00044cae       __unwindfunclet$??0locale@std@@QAE@ABV01@0H@Z$3 00445cae f   IniFile.obj
 0001:00044cb9       __ehhandler$??0locale@std@@QAE@ABV01@0H@Z 00445cb9 f   IniFile.obj
 0001:00044cf0       __unwindfunclet$??0locale@std@@QAE@PBDH@Z$2 00445cf0 f   IniFile.obj
 0001:00044cfb       __unwindfunclet$??0locale@std@@QAE@PBDH@Z$3 00445cfb f   IniFile.obj
 0001:00044d03       __unwindfunclet$??0locale@std@@QAE@PBDH@Z$4 00445d03 f   IniFile.obj
 0001:00044d0b       __unwindfunclet$??0locale@std@@QAE@PBDH@Z$5 00445d0b f   IniFile.obj
 0001:00044d13       __ehhandler$??0locale@std@@QAE@PBDH@Z 00445d13 f   IniFile.obj
 0001:00044d40       __unwindfunclet$??0?$ctype@D@std@@QAE@PBF_NI@Z$0 00445d40 f   IniFile.obj
 0001:00044d4b       __ehhandler$??0?$ctype@D@std@@QAE@PBF_NI@Z 00445d4b f   IniFile.obj
 0001:00044d80       __unwindfunclet$?_Getcat@?$ctype@D@std@@SAIPAPBVfacet@locale@2@@Z$0 00445d80 f   IniFile.obj
 0001:00044d8b       __ehhandler$?_Getcat@?$ctype@D@std@@SAIPAPBVfacet@locale@2@@Z 00445d8b f   IniFile.obj
 0001:00044db0       __unwindfunclet$?clear@ios_base@std@@QAEXH_N@Z$0 00445db0 f   IniFile.obj
 0001:00044db8       __unwindfunclet$?clear@ios_base@std@@QAEXH_N@Z$1 00445db8 f   IniFile.obj
 0001:00044dc0       __unwindfunclet$?clear@ios_base@std@@QAEXH_N@Z$2 00445dc0 f   IniFile.obj
 0001:00044dc8       __ehhandler$?clear@ios_base@std@@QAEXH_N@Z 00445dc8 f   IniFile.obj
 0001:00044df0       __unwindfunclet$??1?$basic_filebuf@DU?$char_traits@D@std@@@std@@UAE@XZ$0 00445df0 f   IniFile.obj
 0001:00044df8       __ehhandler$??1?$basic_filebuf@DU?$char_traits@D@std@@@std@@UAE@XZ 00445df8 f   IniFile.obj
 0001:00044e20       __unwindfunclet$?_Buynode@?$_Tree@V?$_Tmap_traits@U?$pair@V?$basic_string@DU?$char_traits@D@std@@V?$allocator@D@2@@std@@V12@@std@@V?$basic_string@DU?$char_traits@D@std@@V?$allocator@D@2@@2@U?$less@U?$pair@V?$basic_string@DU?$char_traits@D@std@@V?$allocator@D@2@@std@@V12@@std@@@2@V?$allocator@U?$pair@$$CBU?$pair@V?$basic_string@DU?$char_traits@D@std@@V?$allocator@D@2@@std@@V12@@std@@V?$basic_string@DU?$char_traits@D@std@@V?$allocator@D@2@@2@@std@@@2@$0A@@std@@@std@@IAEPAU_Node@?$_Tree_nod@V?$_Tmap_traits@U?$pair@V?$basic_string@DU?$char_traits@D@std@@V?$allocator@D@2@@std@@V12@@std@@V?$basic_string@DU?$char_traits@D@std@@V?$allocator@D@2@@2@U?$less@U?$pair@V?$basic_string@DU?$char_traits@D@std@@V?$allocator@D@2@@std@@V12@@std@@@2@V?$allocator@U?$pair@$$CBU?$pair@V?$basic_string@DU?$char_traits@D@std@@V?$allocator@D@2@@std@@V12@@std@@V?$basic_string@DU?$char_traits@D@std@@V?$allocator@D@2@@2@@std@@@2@$0A@@std@@@2@PAU342@00ABU?$pair@$$CBU?$pair@V?$basic_string@DU?$char_traits@D@std@@V?$allocator@D@2@@std@@V12@@std@@V?$basic_string@DU?$char_traits@D@std@@V?$allocator@D@2@@2@@2@D@Z$2 00445e20 f   IniFile.obj
 0001:00044e31       __ehhandler$?_Buynode@?$_Tree@V?$_Tmap_traits@U?$pair@V?$basic_string@DU?$char_traits@D@std@@V?$allocator@D@2@@std@@V12@@std@@V?$basic_string@DU?$char_traits@D@std@@V?$allocator@D@2@@2@U?$less@U?$pair@V?$basic_string@DU?$char_traits@D@std@@V?$allocator@D@2@@std@@V12@@std@@@2@V?$allocator@U?$pair@$$CBU?$pair@V?$basic_string@DU?$char_traits@D@std@@V?$allocator@D@2@@std@@V12@@std@@V?$basic_string@DU?$char_traits@D@std@@V?$allocator@D@2@@2@@std@@@2@$0A@@std@@@std@@IAEPAU_Node@?$_Tree_nod@V?$_Tmap_traits@U?$pair@V?$basic_string@DU?$char_traits@D@std@@V?$allocator@D@2@@std@@V12@@std@@V?$basic_string@DU?$char_traits@D@std@@V?$allocator@D@2@@2@U?$less@U?$pair@V?$basic_string@DU?$char_traits@D@std@@V?$allocator@D@2@@std@@V12@@std@@@2@V?$allocator@U?$pair@$$CBU?$pair@V?$basic_string@DU?$char_traits@D@std@@V?$allocator@D@2@@std@@V12@@std@@V?$basic_string@DU?$char_traits@D@std@@V?$allocator@D@2@@2@@std@@@2@$0A@@std@@@2@PAU342@00ABU?$pair@$$CBU?$pair@V?$basic_string@DU?$char_traits@D@std@@V?$allocator@D@2@@std@@V12@@std@@V?$basic_string@DU?$char_traits@D@std@@V?$allocator@D@2@@2@@2@D@Z 00445e31 f   IniFile.obj
 0001:00044e50       __unwindfunclet$??$use_facet@V?$ctype@D@std@@@std@@YAABV?$ctype@D@0@ABVlocale@0@@Z$0 00445e50 f   IniFile.obj
 0001:00044e58       __ehhandler$??$use_facet@V?$ctype@D@std@@@std@@YAABV?$ctype@D@0@ABVlocale@0@@Z 00445e58 f   IniFile.obj
 0001:00044e80       __unwindfunclet$??0?$codecvt@DDH@std@@QAE@I@Z$0 00445e80 f   IniFile.obj
 0001:00044e8b       __ehhandler$??0?$codecvt@DDH@std@@QAE@I@Z 00445e8b f   IniFile.obj
 0001:00044ec0       __unwindfunclet$?ToUpper@IniFile@@AAE?AV?$basic_string@DU?$char_traits@D@std@@V?$allocator@D@2@@std@@ABV23@@Z$0 00445ec0 f   IniFile.obj
 0001:00044ed9       __unwindfunclet$?ToUpper@IniFile@@AAE?AV?$basic_string@DU?$char_traits@D@std@@V?$allocator@D@2@@std@@ABV23@@Z$1 00445ed9 f   IniFile.obj
 0001:00044ee1       __unwindfunclet$?ToUpper@IniFile@@AAE?AV?$basic_string@DU?$char_traits@D@std@@V?$allocator@D@2@@std@@ABV23@@Z$2 00445ee1 f   IniFile.obj
 0001:00044ee9       __unwindfunclet$?ToUpper@IniFile@@AAE?AV?$basic_string@DU?$char_traits@D@std@@V?$allocator@D@2@@std@@ABV23@@Z$3 00445ee9 f   IniFile.obj
 0001:00044ef1       __ehhandler$?ToUpper@IniFile@@AAE?AV?$basic_string@DU?$char_traits@D@std@@V?$allocator@D@2@@std@@ABV23@@Z 00445ef1 f   IniFile.obj
 0001:00044f10       __unwindfunclet$??1?$basic_ifstream@DU?$char_traits@D@std@@@std@@UAE@XZ$0 00445f10 f   IniFile.obj
 0001:00044f1b       __ehhandler$??1?$basic_ifstream@DU?$char_traits@D@std@@@std@@UAE@XZ 00445f1b f   IniFile.obj
 0001:00044f40       __unwindfunclet$?_Insert@?$_Tree@V?$_Tmap_traits@U?$pair@V?$basic_string@DU?$char_traits@D@std@@V?$allocator@D@2@@std@@V12@@std@@V?$basic_string@DU?$char_traits@D@std@@V?$allocator@D@2@@2@U?$less@U?$pair@V?$basic_string@DU?$char_traits@D@std@@V?$allocator@D@2@@std@@V12@@std@@@2@V?$allocator@U?$pair@$$CBU?$pair@V?$basic_string@DU?$char_traits@D@std@@V?$allocator@D@2@@std@@V12@@std@@V?$basic_string@DU?$char_traits@D@std@@V?$allocator@D@2@@2@@std@@@2@$0A@@std@@@std@@IAE?AViterator@12@_NPAU_Node@?$_Tree_nod@V?$_Tmap_traits@U?$pair@V?$basic_string@DU?$char_traits@D@std@@V?$allocator@D@2@@std@@V12@@std@@V?$basic_string@DU?$char_traits@D@std@@V?$allocator@D@2@@2@U?$less@U?$pair@V?$basic_string@DU?$char_traits@D@std@@V?$allocator@D@2@@std@@V12@@std@@@2@V?$allocator@U?$pair@$$CBU?$pair@V?$basic_string@DU?$char_traits@D@std@@V?$allocator@D@2@@std@@V12@@std@@V?$basic_string@DU?$char_traits@D@std@@V?$allocator@D@2@@2@@std@@@2@$0A@@std@@@2@ABU?$pair@$$CBU?$pair@V?$basic_string@DU?$char_traits@D@std@@V?$allocator@D@2@@std@@V12@@std@@V?$basic_string@DU?$char_traits@D@std@@V?$allocator@D@2@@2@@2@@Z$0 00445f40 f   IniFile.obj
 0001:00044f48       __ehhandler$?_Insert@?$_Tree@V?$_Tmap_traits@U?$pair@V?$basic_string@DU?$char_traits@D@std@@V?$allocator@D@2@@std@@V12@@std@@V?$basic_string@DU?$char_traits@D@std@@V?$allocator@D@2@@2@U?$less@U?$pair@V?$basic_string@DU?$char_traits@D@std@@V?$allocator@D@2@@std@@V12@@std@@@2@V?$allocator@U?$pair@$$CBU?$pair@V?$basic_string@DU?$char_traits@D@std@@V?$allocator@D@2@@std@@V12@@std@@V?$basic_string@DU?$char_traits@D@std@@V?$allocator@D@2@@2@@std@@@2@$0A@@std@@@std@@IAE?AViterator@12@_NPAU_Node@?$_Tree_nod@V?$_Tmap_traits@U?$pair@V?$basic_string@DU?$char_traits@D@std@@V?$allocator@D@2@@std@@V12@@std@@V?$basic_string@DU?$char_traits@D@std@@V?$allocator@D@2@@2@U?$less@U?$pair@V?$basic_string@DU?$char_traits@D@std@@V?$allocator@D@2@@std@@V12@@std@@@2@V?$allocator@U?$pair@$$CBU?$pair@V?$basic_string@DU?$char_traits@D@std@@V?$allocator@D@2@@std@@V12@@std@@V?$basic_string@DU?$char_traits@D@std@@V?$allocator@D@2@@2@@std@@@2@$0A@@std@@@2@ABU?$pair@$$CBU?$pair@V?$basic_string@DU?$char_traits@D@std@@V?$allocator@D@2@@std@@V12@@std@@V?$basic_string@DU?$char_traits@D@std@@V?$allocator@D@2@@2@@2@@Z 00445f48 f   IniFile.obj
 0001:00044f70       __unwindfunclet$??0logic_error@std@@QAE@ABV01@@Z$0 00445f70 f   IniFile.obj
 0001:00044f78       __ehhandler$??0logic_error@std@@QAE@ABV01@@Z 00445f78 f   IniFile.obj
 0001:00044fa0       __unwindfunclet$?widen@?$basic_ios@DU?$char_traits@D@std@@@std@@QBEDD@Z$0 00445fa0 f   IniFile.obj
 0001:00044fa8       __ehhandler$?widen@?$basic_ios@DU?$char_traits@D@std@@@std@@QBEDD@Z 00445fa8 f   IniFile.obj
 0001:00044fd0       __unwindfunclet$?erase@?$_Tree@V?$_Tmap_traits@U?$pair@V?$basic_string@DU?$char_traits@D@std@@V?$allocator@D@2@@std@@V12@@std@@V?$basic_string@DU?$char_traits@D@std@@V?$allocator@D@2@@2@U?$less@U?$pair@V?$basic_string@DU?$char_traits@D@std@@V?$allocator@D@2@@std@@V12@@std@@@2@V?$allocator@U?$pair@$$CBU?$pair@V?$basic_string@DU?$char_traits@D@std@@V?$allocator@D@2@@std@@V12@@std@@V?$basic_string@DU?$char_traits@D@std@@V?$allocator@D@2@@2@@std@@@2@$0A@@std@@@std@@QAE?AViterator@12@V312@@Z$0 00445fd0 f   IniFile.obj
 0001:00044fd8       __ehhandler$?erase@?$_Tree@V?$_Tmap_traits@U?$pair@V?$basic_string@DU?$char_traits@D@std@@V?$allocator@D@2@@std@@V12@@std@@V?$basic_string@DU?$char_traits@D@std@@V?$allocator@D@2@@2@U?$less@U?$pair@V?$basic_string@DU?$char_traits@D@std@@V?$allocator@D@2@@std@@V12@@std@@@2@V?$allocator@U?$pair@$$CBU?$pair@V?$basic_string@DU?$char_traits@D@std@@V?$allocator@D@2@@std@@V12@@std@@V?$basic_string@DU?$char_traits@D@std@@V?$allocator@D@2@@2@@std@@@2@$0A@@std@@@std@@QAE?AViterator@12@V312@@Z 00445fd8 f   IniFile.obj
 0001:00045000       __unwindfunclet$?_Getcat@?$codecvt@DDH@std@@SAIPAPBVfacet@locale@2@@Z$0 00446000 f   IniFile.obj
 0001:0004500b       __ehhandler$?_Getcat@?$codecvt@DDH@std@@SAIPAPBVfacet@locale@2@@Z 0044600b f   IniFile.obj
 0001:00045030       __unwindfunclet$?Find@IniFile@@QAE_NABV?$basic_string@DU?$char_traits@D@std@@V?$allocator@D@2@@std@@0@Z$0 00446030 f   IniFile.obj
 0001:00045038       __unwindfunclet$?Find@IniFile@@QAE_NABV?$basic_string@DU?$char_traits@D@std@@V?$allocator@D@2@@std@@0@Z$1 00446038 f   IniFile.obj
 0001:00045040       __ehhandler$?Find@IniFile@@QAE_NABV?$basic_string@DU?$char_traits@D@std@@V?$allocator@D@2@@std@@0@Z 00446040 f   IniFile.obj
 0001:00045070       __unwindfunclet$?Get@IniFile@@QAE?AV?$basic_string@DU?$char_traits@D@std@@V?$allocator@D@2@@std@@ABV23@0@Z$0 00446070 f   IniFile.obj
 0001:00045089       __unwindfunclet$?Get@IniFile@@QAE?AV?$basic_string@DU?$char_traits@D@std@@V?$allocator@D@2@@std@@ABV23@0@Z$1 00446089 f   IniFile.obj
 0001:00045091       __unwindfunclet$?Get@IniFile@@QAE?AV?$basic_string@DU?$char_traits@D@std@@V?$allocator@D@2@@std@@ABV23@0@Z$2 00446091 f   IniFile.obj
 0001:00045099       __ehhandler$?Get@IniFile@@QAE?AV?$basic_string@DU?$char_traits@D@std@@V?$allocator@D@2@@std@@ABV23@0@Z 00446099 f   IniFile.obj
 0001:000450d0       __unwindfunclet$?_Ipfx@?$basic_istream@DU?$char_traits@D@std@@@std@@QAE_N_N@Z$2 004460d0 f   IniFile.obj
 0001:000450d8       __ehhandler$?_Ipfx@?$basic_istream@DU?$char_traits@D@std@@@std@@QAE_N_N@Z 004460d8 f   IniFile.obj
 0001:00045100       __unwindfunclet$??$use_facet@V?$codecvt@DDH@std@@@std@@YAABV?$codecvt@DDH@0@ABVlocale@0@@Z$0 00446100 f   IniFile.obj
 0001:00045108       __ehhandler$??$use_facet@V?$codecvt@DDH@std@@@std@@YAABV?$codecvt@DDH@0@ABVlocale@0@@Z 00446108 f   IniFile.obj
 0001:00045130       __unwindfunclet$?Add@IniFile@@AAE_NABV?$basic_string@DU?$char_traits@D@std@@V?$allocator@D@2@@std@@00@Z$0 00446130 f   IniFile.obj
 0001:0004513b       __unwindfunclet$?Add@IniFile@@AAE_NABV?$basic_string@DU?$char_traits@D@std@@V?$allocator@D@2@@std@@00@Z$1 0044613b f   IniFile.obj
 0001:00045143       __unwindfunclet$?Add@IniFile@@AAE_NABV?$basic_string@DU?$char_traits@D@std@@V?$allocator@D@2@@std@@00@Z$2 00446143 f   IniFile.obj
 0001:0004514e       __ehhandler$?Add@IniFile@@AAE_NABV?$basic_string@DU?$char_traits@D@std@@V?$allocator@D@2@@std@@00@Z 0044614e f   IniFile.obj
 0001:00045180       __unwindfunclet$??0sentry@?$basic_istream@DU?$char_traits@D@std@@@std@@QAE@AAV12@_N@Z$0 00446180 f   IniFile.obj
 0001:00045188       __ehhandler$??0sentry@?$basic_istream@DU?$char_traits@D@std@@@std@@QAE@AAV12@_N@Z 00446188 f   IniFile.obj
 0001:000451b0       __unwindfunclet$??0?$basic_istream@DU?$char_traits@D@std@@@std@@QAE@PAV?$basic_streambuf@DU?$char_traits@D@std@@@1@_N@Z$0 004461b0 f   IniFile.obj
 0001:000451cc       __ehhandler$??0?$basic_istream@DU?$char_traits@D@std@@@std@@QAE@PAV?$basic_streambuf@DU?$char_traits@D@std@@@1@_N@Z 004461cc f   IniFile.obj
 0001:000451f0       __unwindfunclet$?open@?$basic_filebuf@DU?$char_traits@D@std@@@std@@QAEPAV12@PBDHH@Z$0 004461f0 f   IniFile.obj
 0001:000451f8       __ehhandler$?open@?$basic_filebuf@DU?$char_traits@D@std@@@std@@QAEPAV12@PBDHH@Z 004461f8 f   IniFile.obj
 0001:00045220       __unwindfunclet$??$getline@DU?$char_traits@D@std@@V?$allocator@D@2@@std@@YAAAV?$basic_istream@DU?$char_traits@D@std@@@0@AAV10@AAV?$basic_string@DU?$char_traits@D@std@@V?$allocator@D@2@@0@D@Z$2 00446220 f   IniFile.obj
 0001:00045228       __ehhandler$??$getline@DU?$char_traits@D@std@@V?$allocator@D@2@@std@@YAAAV?$basic_istream@DU?$char_traits@D@std@@@0@AAV10@AAV?$basic_string@DU?$char_traits@D@std@@V?$allocator@D@2@@0@D@Z 00446228 f   IniFile.obj
 0001:00045250       __unwindfunclet$??0?$basic_ifstream@DU?$char_traits@D@std@@@std@@QAE@XZ$0 00446250 f   IniFile.obj
 0001:0004526c       __unwindfunclet$??0?$basic_ifstream@DU?$char_traits@D@std@@@std@@QAE@XZ$1 0044626c f   IniFile.obj
 0001:00045277       __ehhandler$??0?$basic_ifstream@DU?$char_traits@D@std@@@std@@QAE@XZ 00446277 f   IniFile.obj
 0001:000452a0       __unwindfunclet$?ReadFile@IniFile@@AAE_NXZ$0 004462a0 f   IniFile.obj
 0001:000452a8       __unwindfunclet$?ReadFile@IniFile@@AAE_NXZ$1 004462a8 f   IniFile.obj
 0001:000452b0       __unwindfunclet$?ReadFile@IniFile@@AAE_NXZ$2 004462b0 f   IniFile.obj
 0001:000452b8       __unwindfunclet$?ReadFile@IniFile@@AAE_NXZ$3 004462b8 f   IniFile.obj
 0001:000452c0       __unwindfunclet$?ReadFile@IniFile@@AAE_NXZ$4 004462c0 f   IniFile.obj
 0001:000452c8       __ehhandler$?ReadFile@IniFile@@AAE_NXZ 004462c8 f   IniFile.obj
 0001:00045300       __unwindfunclet$??1IniFile@@QAE@XZ$0 00446300 f   IniFile.obj
 0001:00045308       __ehhandler$??1IniFile@@QAE@XZ 00446308 f   IniFile.obj
 0001:00045330       __unwindfunclet$??0IniFile@@QAE@XZ$0 00446330 f   IniFile.obj
 0001:00045338       __ehhandler$??0IniFile@@QAE@XZ 00446338 f   IniFile.obj
 0001:00045360       __unwindfunclet$??$?HDU?$char_traits@D@std@@V?$allocator@D@1@@std@@YA?AV?$basic_string@DU?$char_traits@D@std@@V?$allocator@D@2@@0@ABV10@0@Z$0 00446360 f   TestFrame.obj
 0001:00045368       __ehhandler$??$?HDU?$char_traits@D@std@@V?$allocator@D@1@@std@@YA?AV?$basic_string@DU?$char_traits@D@std@@V?$allocator@D@2@@0@ABV10@0@Z 00446368 f   TestFrame.obj
 0001:00045390       __unwindfunclet$?ProcessIniFile@@YA_NABV?$basic_string@DU?$char_traits@D@std@@V?$allocator@D@2@@std@@AAV12@111@Z$0 00446390 f   TestFrame.obj
 0001:0004539b       __unwindfunclet$?ProcessIniFile@@YA_NABV?$basic_string@DU?$char_traits@D@std@@V?$allocator@D@2@@std@@AAV12@111@Z$1 0044639b f   TestFrame.obj
 0001:000453a6       __unwindfunclet$?ProcessIniFile@@YA_NABV?$basic_string@DU?$char_traits@D@std@@V?$allocator@D@2@@std@@AAV12@111@Z$2 004463a6 f   TestFrame.obj
 0001:000453b1       __unwindfunclet$?ProcessIniFile@@YA_NABV?$basic_string@DU?$char_traits@D@std@@V?$allocator@D@2@@std@@AAV12@111@Z$3 004463b1 f   TestFrame.obj
 0001:000453bc       __unwindfunclet$?ProcessIniFile@@YA_NABV?$basic_string@DU?$char_traits@D@std@@V?$allocator@D@2@@std@@AAV12@111@Z$4 004463bc f   TestFrame.obj
 0001:000453c7       __unwindfunclet$?ProcessIniFile@@YA_NABV?$basic_string@DU?$char_traits@D@std@@V?$allocator@D@2@@std@@AAV12@111@Z$5 004463c7 f   TestFrame.obj
 0001:000453d2       __unwindfunclet$?ProcessIniFile@@YA_NABV?$basic_string@DU?$char_traits@D@std@@V?$allocator@D@2@@std@@AAV12@111@Z$6 004463d2 f   TestFrame.obj
 0001:000453dd       __unwindfunclet$?ProcessIniFile@@YA_NABV?$basic_string@DU?$char_traits@D@std@@V?$allocator@D@2@@std@@AAV12@111@Z$7 004463dd f   TestFrame.obj
 0001:000453e8       __unwindfunclet$?ProcessIniFile@@YA_NABV?$basic_string@DU?$char_traits@D@std@@V?$allocator@D@2@@std@@AAV12@111@Z$8 004463e8 f   TestFrame.obj
 0001:000453f3       __unwindfunclet$?ProcessIniFile@@YA_NABV?$basic_string@DU?$char_traits@D@std@@V?$allocator@D@2@@std@@AAV12@111@Z$9 004463f3 f   TestFrame.obj
 0001:000453fe       __unwindfunclet$?ProcessIniFile@@YA_NABV?$basic_string@DU?$char_traits@D@std@@V?$allocator@D@2@@std@@AAV12@111@Z$10 004463fe f   TestFrame.obj
 0001:00045409       __unwindfunclet$?ProcessIniFile@@YA_NABV?$basic_string@DU?$char_traits@D@std@@V?$allocator@D@2@@std@@AAV12@111@Z$11 00446409 f   TestFrame.obj
 0001:00045414       __unwindfunclet$?ProcessIniFile@@YA_NABV?$basic_string@DU?$char_traits@D@std@@V?$allocator@D@2@@std@@AAV12@111@Z$12 00446414 f   TestFrame.obj
 0001:0004541f       __ehhandler$?ProcessIniFile@@YA_NABV?$basic_string@DU?$char_traits@D@std@@V?$allocator@D@2@@std@@AAV12@111@Z 0044641f f   TestFrame.obj
 0001:00045440       __unwindfunclet$?LoadLibraries@@YA_NABV?$basic_string@DU?$char_traits@D@std@@V?$allocator@D@2@@std@@@Z$0 00446440 f   TestFrame.obj
 0001:00045448       __unwindfunclet$?LoadLibraries@@YA_NABV?$basic_string@DU?$char_traits@D@std@@V?$allocator@D@2@@std@@@Z$1 00446448 f   TestFrame.obj
 0001:00045450       __unwindfunclet$?LoadLibraries@@YA_NABV?$basic_string@DU?$char_traits@D@std@@V?$allocator@D@2@@std@@@Z$2 00446450 f   TestFrame.obj
 0001:00045458       __ehhandler$?LoadLibraries@@YA_NABV?$basic_string@DU?$char_traits@D@std@@V?$allocator@D@2@@std@@@Z 00446458 f   TestFrame.obj
 0001:00045490       __unwindfunclet$?FreeLibraries@@YA_NABV?$basic_string@DU?$char_traits@D@std@@V?$allocator@D@2@@std@@@Z$0 00446490 f   TestFrame.obj
 0001:00045498       __unwindfunclet$?FreeLibraries@@YA_NABV?$basic_string@DU?$char_traits@D@std@@V?$allocator@D@2@@std@@@Z$1 00446498 f   TestFrame.obj
 0001:000454a0       __ehhandler$?FreeLibraries@@YA_NABV?$basic_string@DU?$char_traits@D@std@@V?$allocator@D@2@@std@@@Z 004464a0 f   TestFrame.obj
 0001:000454c8       __unwindfunclet$?_Locimp_dtor@_Locimp@locale@std@@CAXPAV123@@Z$0 004464c8 f   libcpmt:locale0.obj
 0001:000454d0       __ehhandler$?_Locimp_dtor@_Locimp@locale@std@@CAXPAV123@@Z 004464d0 f   libcpmt:locale0.obj
 0001:000454eb       __unwindfunclet$?_Init@locale@std@@CAPAV_Locimp@12@XZ$0 004464eb f   libcpmt:locale0.obj
 0001:000454f3       __unwindfunclet$?_Init@locale@std@@CAPAV_Locimp@12@XZ$1 004464f3 f   libcpmt:locale0.obj
 0001:000454fd       __ehhandler$?_Init@locale@std@@CAPAV_Locimp@12@XZ 004464fd f   libcpmt:locale0.obj
 0001:00045518       __unwindfunclet$?empty@locale@std@@SA?AV12@XZ$0 00446518 f   libcpmt:locale0.obj
 0001:00045522       __ehhandler$?empty@locale@std@@SA?AV12@XZ 00446522 f   libcpmt:locale0.obj
 0001:0004553d       __unwindfunclet$?_Xlen@_String_base@std@@SAXXZ$0 0044653d f   libcpmt:string.obj
 0001:00045545       __ehhandler$?_Xlen@_String_base@std@@SAXXZ 00446545 f   libcpmt:string.obj
 0001:00045560       __unwindfunclet$?_Xran@_String_base@std@@SAXXZ$0 00446560 f   libcpmt:string.obj
 0001:00045568       __ehhandler$?_Xran@_String_base@std@@SAXXZ 00446568 f   libcpmt:string.obj
 0001:00045583       __unwindfunclet$?_Xinvarg@_String_base@std@@SAXXZ$0 00446583 f   libcpmt:string.obj
 0001:0004558b       __ehhandler$?_Xinvarg@_String_base@std@@SAXXZ 0044658b f   libcpmt:string.obj
 0001:000455a6       __unwindfunclet$?_Locimp_Addfac@_Locimp@locale@std@@CAXPAV123@PAVfacet@23@I@Z$0 004465a6 f   libcpmt:locale.obj
 0001:000455ae       __ehhandler$?_Locimp_Addfac@_Locimp@locale@std@@CAXPAV123@PAVfacet@23@I@Z 004465ae f   libcpmt:locale.obj
 0001:000455c9       __ehhandler$?_Init@?$numpunct@D@std@@IAEXABV_Locinfo@2@@Z 004465c9 f   libcpmt:locale.obj
 0001:000455e4       __unwindfunclet$?global@locale@std@@SA?AV12@ABV12@@Z$0 004465e4 f   libcpmt:locale.obj
 0001:000455fd       __unwindfunclet$?global@locale@std@@SA?AV12@ABV12@@Z$1 004465fd f   libcpmt:locale.obj
 0001:00045605       __ehhandler$?global@locale@std@@SA?AV12@ABV12@@Z 00446605 f   libcpmt:locale.obj
 0001:00045620       __unwindfunclet$??0?$numpunct@D@std@@QAE@ABV_Locinfo@1@I@Z$0 00446620 f   libcpmt:locale.obj
 0001:00045628       __ehhandler$??0?$numpunct@D@std@@QAE@ABV_Locinfo@1@I@Z 00446628 f   libcpmt:locale.obj
 0001:00045643       __unwindfunclet$??$_Getloctxt@DV?$istreambuf_iterator@DU?$char_traits@D@std@@@std@@@std@@YAHAAV?$istreambuf_iterator@DU?$char_traits@D@std@@@0@0IPBD@Z$0 00446643 f   libcpmt:locale.obj
 0001:0004564b       __ehhandler$??$_Getloctxt@DV?$istreambuf_iterator@DU?$char_traits@D@std@@@std@@@std@@YAHAAV?$istreambuf_iterator@DU?$char_traits@D@std@@@0@0IPBD@Z 0044664b f   libcpmt:locale.obj
 0001:00045670       __unwindfunclet$??0?$num_get@DV?$istreambuf_iterator@DU?$char_traits@D@std@@@std@@@std@@QAE@I@Z$0 00446670 f   libcpmt:locale.obj
 0001:0004567b       __ehhandler$??0?$num_get@DV?$istreambuf_iterator@DU?$char_traits@D@std@@@std@@@std@@QAE@I@Z 0044667b f   libcpmt:locale.obj
 0001:000456a3       __unwindfunclet$??0?$num_put@DV?$ostreambuf_iterator@DU?$char_traits@D@std@@@std@@@std@@QAE@I@Z$0 004466a3 f   libcpmt:locale.obj
 0001:000456ae       __ehhandler$??0?$num_put@DV?$ostreambuf_iterator@DU?$char_traits@D@std@@@std@@@std@@QAE@I@Z 004466ae f   libcpmt:locale.obj
 0001:000456d6       __unwindfunclet$??0?$numpunct@D@std@@QAE@I@Z$0 004466d6 f   libcpmt:locale.obj
 0001:000456e1       __unwindfunclet$??0?$numpunct@D@std@@QAE@I@Z$1 004466e1 f   libcpmt:locale.obj
 0001:000456ec       __ehhandler$??0?$numpunct@D@std@@QAE@I@Z 004466ec f   libcpmt:locale.obj
 0001:00045714       __unwindfunclet$?_Getcat@?$num_get@DV?$istreambuf_iterator@DU?$char_traits@D@std@@@std@@@std@@SAIPAPBVfacet@locale@2@@Z$0 00446714 f   libcpmt:locale.obj
 0001:0004571e       __ehhandler$?_Getcat@?$num_get@DV?$istreambuf_iterator@DU?$char_traits@D@std@@@std@@@std@@SAIPAPBVfacet@locale@2@@Z 0044671e f   libcpmt:locale.obj
 0001:00045739       __unwindfunclet$?_Getcat@?$num_put@DV?$ostreambuf_iterator@DU?$char_traits@D@std@@@std@@@std@@SAIPAPBVfacet@locale@2@@Z$0 00446739 f   libcpmt:locale.obj
 0001:00045743       __ehhandler$?_Getcat@?$num_put@DV?$ostreambuf_iterator@DU?$char_traits@D@std@@@std@@@std@@SAIPAPBVfacet@locale@2@@Z 00446743 f   libcpmt:locale.obj
 0001:0004575e       __unwindfunclet$?_Getcat@?$numpunct@D@std@@SAIPAPBVfacet@locale@2@@Z$0 0044675e f   libcpmt:locale.obj
 0001:00045768       __ehhandler$?_Getcat@?$numpunct@D@std@@SAIPAPBVfacet@locale@2@@Z 00446768 f   libcpmt:locale.obj
 0001:00045783       __unwindfunclet$??$use_facet@V?$num_get@DV?$istreambuf_iterator@DU?$char_traits@D@std@@@std@@@std@@@std@@YAABV?$num_get@DV?$istreambuf_iterator@DU?$char_traits@D@std@@@std@@@0@ABVlocale@0@@Z$0 00446783 f   libcpmt:locale.obj
 0001:0004578b       __ehhandler$??$use_facet@V?$num_get@DV?$istreambuf_iterator@DU?$char_traits@D@std@@@std@@@std@@@std@@YAABV?$num_get@DV?$istreambuf_iterator@DU?$char_traits@D@std@@@std@@@0@ABVlocale@0@@Z 0044678b f   libcpmt:locale.obj
 0001:000457a6       __unwindfunclet$??$use_facet@V?$num_put@DV?$ostreambuf_iterator@DU?$char_traits@D@std@@@std@@@std@@@std@@YAABV?$num_put@DV?$ostreambuf_iterator@DU?$char_traits@D@std@@@std@@@0@ABVlocale@0@@Z$0 004467a6 f   libcpmt:locale.obj
 0001:000457ae       __ehhandler$??$use_facet@V?$num_put@DV?$ostreambuf_iterator@DU?$char_traits@D@std@@@std@@@std@@@std@@YAABV?$num_put@DV?$ostreambuf_iterator@DU?$char_traits@D@std@@@std@@@0@ABVlocale@0@@Z 004467ae f   libcpmt:locale.obj
 0001:000457c9       __unwindfunclet$??$use_facet@V?$numpunct@D@std@@@std@@YAABV?$numpunct@D@0@ABVlocale@0@@Z$0 004467c9 f   libcpmt:locale.obj
 0001:000457d1       __ehhandler$??$use_facet@V?$numpunct@D@std@@@std@@YAABV?$numpunct@D@0@ABVlocale@0@@Z 004467d1 f   libcpmt:locale.obj
 0001:000457ec       __unwindfunclet$?_Makeloc@_Locimp@locale@std@@CAPAV123@ABV_Locinfo@3@HPAV123@PBV23@@Z$3 004467ec f   libcpmt:locale.obj
 0001:000457f6       __unwindfunclet$?_Makeloc@_Locimp@locale@std@@CAPAV123@ABV_Locinfo@3@HPAV123@PBV23@@Z$5 004467f6 f   libcpmt:locale.obj
 0001:000457fe       __ehhandler$?_Makeloc@_Locimp@locale@std@@CAPAV123@ABV_Locinfo@3@HPAV123@PBV23@@Z 004467fe f   libcpmt:locale.obj
 0001:00045819       __unwindfunclet$?_Locimp_ctor@_Locimp@locale@std@@CAXPAV123@ABV123@@Z$0 00446819 f   libcpmt:locale.obj
 0001:00045821       __unwindfunclet$?_Locimp_ctor@_Locimp@locale@std@@CAXPAV123@ABV123@@Z$1 00446821 f   libcpmt:locale.obj
 0001:00045829       __ehhandler$?_Locimp_ctor@_Locimp@locale@std@@CAXPAV123@ABV123@@Z 00446829 f   libcpmt:locale.obj
 0001:00045851       __unwindfunclet$?do_put@?$num_put@DV?$ostreambuf_iterator@DU?$char_traits@D@std@@@std@@@std@@MBE?AV?$ostreambuf_iterator@DU?$char_traits@D@std@@@2@V32@AAVios_base@2@D_N@Z$0 00446851 f   libcpmt:locale.obj
 0001:00045859       __unwindfunclet$?do_put@?$num_put@DV?$ostreambuf_iterator@DU?$char_traits@D@std@@@std@@@std@@MBE?AV?$ostreambuf_iterator@DU?$char_traits@D@std@@@2@V32@AAVios_base@2@D_N@Z$1 00446859 f   libcpmt:locale.obj
 0001:00045861       __unwindfunclet$?do_put@?$num_put@DV?$ostreambuf_iterator@DU?$char_traits@D@std@@@std@@@std@@MBE?AV?$ostreambuf_iterator@DU?$char_traits@D@std@@@2@V32@AAVios_base@2@D_N@Z$2 00446861 f   libcpmt:locale.obj
 0001:00045869       __unwindfunclet$?do_put@?$num_put@DV?$ostreambuf_iterator@DU?$char_traits@D@std@@@std@@@std@@MBE?AV?$ostreambuf_iterator@DU?$char_traits@D@std@@@2@V32@AAVios_base@2@D_N@Z$3 00446869 f   libcpmt:locale.obj
 0001:00045871       __ehhandler$?do_put@?$num_put@DV?$ostreambuf_iterator@DU?$char_traits@D@std@@@std@@@std@@MBE?AV?$ostreambuf_iterator@DU?$char_traits@D@std@@@2@V32@AAVios_base@2@D_N@Z 00446871 f   libcpmt:locale.obj
 0001:00045896       __unwindfunclet$?_Getifld@?$num_get@DV?$istreambuf_iterator@DU?$char_traits@D@std@@@std@@@std@@ABAHPADAAV?$istreambuf_iterator@DU?$char_traits@D@std@@@2@1HABVlocale@2@@Z$0 00446896 f   libcpmt:locale.obj
 0001:0004589e       __unwindfunclet$?_Getifld@?$num_get@DV?$istreambuf_iterator@DU?$char_traits@D@std@@@std@@@std@@ABAHPADAAV?$istreambuf_iterator@DU?$char_traits@D@std@@@2@1HABVlocale@2@@Z$1 0044689e f   libcpmt:locale.obj
 0001:000458a6       __ehhandler$?_Getifld@?$num_get@DV?$istreambuf_iterator@DU?$char_traits@D@std@@@std@@@std@@ABAHPADAAV?$istreambuf_iterator@DU?$char_traits@D@std@@@2@1HABVlocale@2@@Z 004468a6 f   libcpmt:locale.obj
 0001:000458cb       __unwindfunclet$?_Getffld@?$num_get@DV?$istreambuf_iterator@DU?$char_traits@D@std@@@std@@@std@@ABAHPADAAV?$istreambuf_iterator@DU?$char_traits@D@std@@@2@1ABVlocale@2@@Z$0 004468cb f   libcpmt:locale.obj
 0001:000458d3       __unwindfunclet$?_Getffld@?$num_get@DV?$istreambuf_iterator@DU?$char_traits@D@std@@@std@@@std@@ABAHPADAAV?$istreambuf_iterator@DU?$char_traits@D@std@@@2@1ABVlocale@2@@Z$1 004468d3 f   libcpmt:locale.obj
 0001:000458db       __ehhandler$?_Getffld@?$num_get@DV?$istreambuf_iterator@DU?$char_traits@D@std@@@std@@@std@@ABAHPADAAV?$istreambuf_iterator@DU?$char_traits@D@std@@@2@1ABVlocale@2@@Z 004468db f   libcpmt:locale.obj
 0001:00045900       __unwindfunclet$?_Fput@?$num_put@DV?$ostreambuf_iterator@DU?$char_traits@D@std@@@std@@@std@@ABA?AV?$ostreambuf_iterator@DU?$char_traits@D@std@@@2@V32@AAVios_base@2@DPBDIIII@Z$0 00446900 f   libcpmt:locale.obj
 0001:00045908       __unwindfunclet$?_Fput@?$num_put@DV?$ostreambuf_iterator@DU?$char_traits@D@std@@@std@@@std@@ABA?AV?$ostreambuf_iterator@DU?$char_traits@D@std@@@2@V32@AAVios_base@2@DPBDIIII@Z$1 00446908 f   libcpmt:locale.obj
 0001:00045910       __unwindfunclet$?_Fput@?$num_put@DV?$ostreambuf_iterator@DU?$char_traits@D@std@@@std@@@std@@ABA?AV?$ostreambuf_iterator@DU?$char_traits@D@std@@@2@V32@AAVios_base@2@DPBDIIII@Z$2 00446910 f   libcpmt:locale.obj
 0001:00045918       __ehhandler$?_Fput@?$num_put@DV?$ostreambuf_iterator@DU?$char_traits@D@std@@@std@@@std@@ABA?AV?$ostreambuf_iterator@DU?$char_traits@D@std@@@2@V32@AAVios_base@2@DPBDIIII@Z 00446918 f   libcpmt:locale.obj
 0001:0004593d       __unwindfunclet$?_Iput@?$num_put@DV?$ostreambuf_iterator@DU?$char_traits@D@std@@@std@@@std@@ABA?AV?$ostreambuf_iterator@DU?$char_traits@D@std@@@2@V32@AAVios_base@2@DPADI@Z$0 0044693d f   libcpmt:locale.obj
 0001:00045945       __unwindfunclet$?_Iput@?$num_put@DV?$ostreambuf_iterator@DU?$char_traits@D@std@@@std@@@std@@ABA?AV?$ostreambuf_iterator@DU?$char_traits@D@std@@@2@V32@AAVios_base@2@DPADI@Z$1 00446945 f   libcpmt:locale.obj
 0001:0004594d       __ehhandler$?_Iput@?$num_put@DV?$ostreambuf_iterator@DU?$char_traits@D@std@@@std@@@std@@ABA?AV?$ostreambuf_iterator@DU?$char_traits@D@std@@@2@V32@AAVios_base@2@DPADI@Z 0044694d f   libcpmt:locale.obj
 0001:00045972       __unwindfunclet$?do_get@?$num_get@DV?$istreambuf_iterator@DU?$char_traits@D@std@@@std@@@std@@MBE?AV?$istreambuf_iterator@DU?$char_traits@D@std@@@2@V32@0AAVios_base@2@AAHAA_N@Z$0 00446972 f   libcpmt:locale.obj
 0001:0004597a       __unwindfunclet$?do_get@?$num_get@DV?$istreambuf_iterator@DU?$char_traits@D@std@@@std@@@std@@MBE?AV?$istreambuf_iterator@DU?$char_traits@D@std@@@2@V32@0AAVios_base@2@AAHAA_N@Z$1 0044697a f   libcpmt:locale.obj
 0001:00045982       __unwindfunclet$?do_get@?$num_get@DV?$istreambuf_iterator@DU?$char_traits@D@std@@@std@@@std@@MBE?AV?$istreambuf_iterator@DU?$char_traits@D@std@@@2@V32@0AAVios_base@2@AAHAA_N@Z$2 00446982 f   libcpmt:locale.obj
 0001:0004598a       __unwindfunclet$?do_get@?$num_get@DV?$istreambuf_iterator@DU?$char_traits@D@std@@@std@@@std@@MBE?AV?$istreambuf_iterator@DU?$char_traits@D@std@@@2@V32@0AAVios_base@2@AAHAA_N@Z$3 0044698a f   libcpmt:locale.obj
 0001:00045992       __unwindfunclet$?do_get@?$num_get@DV?$istreambuf_iterator@DU?$char_traits@D@std@@@std@@@std@@MBE?AV?$istreambuf_iterator@DU?$char_traits@D@std@@@2@V32@0AAVios_base@2@AAHAA_N@Z$4 00446992 f   libcpmt:locale.obj
 0001:0004599a       __ehhandler$?do_get@?$num_get@DV?$istreambuf_iterator@DU?$char_traits@D@std@@@std@@@std@@MBE?AV?$istreambuf_iterator@DU?$char_traits@D@std@@@2@V32@0AAVios_base@2@AAHAA_N@Z 0044699a f   libcpmt:locale.obj
 0001:000459bf       __unwindfunclet$?do_get@?$num_get@DV?$istreambuf_iterator@DU?$char_traits@D@std@@@std@@@std@@MBE?AV?$istreambuf_iterator@DU?$char_traits@D@std@@@2@V32@0AAVios_base@2@AAHAAG@Z$0 004469bf f   libcpmt:locale.obj
 0001:000459c7       __ehhandler$?do_get@?$num_get@DV?$istreambuf_iterator@DU?$char_traits@D@std@@@std@@@std@@MBE?AV?$istreambuf_iterator@DU?$char_traits@D@std@@@2@V32@0AAVios_base@2@AAHAAG@Z 004469c7 f   libcpmt:locale.obj
 0001:000459ec       __unwindfunclet$?do_get@?$num_get@DV?$istreambuf_iterator@DU?$char_traits@D@std@@@std@@@std@@MBE?AV?$istreambuf_iterator@DU?$char_traits@D@std@@@2@V32@0AAVios_base@2@AAHAAI@Z$0 004469ec f   libcpmt:locale.obj
 0001:000459f4       __ehhandler$?do_get@?$num_get@DV?$istreambuf_iterator@DU?$char_traits@D@std@@@std@@@std@@MBE?AV?$istreambuf_iterator@DU?$char_traits@D@std@@@2@V32@0AAVios_base@2@AAHAAI@Z 004469f4 f   libcpmt:locale.obj
 0001:00045a19       __unwindfunclet$?do_get@?$num_get@DV?$istreambuf_iterator@DU?$char_traits@D@std@@@std@@@std@@MBE?AV?$istreambuf_iterator@DU?$char_traits@D@std@@@2@V32@0AAVios_base@2@AAHAAJ@Z$0 00446a19 f   libcpmt:locale.obj
 0001:00045a21       __ehhandler$?do_get@?$num_get@DV?$istreambuf_iterator@DU?$char_traits@D@std@@@std@@@std@@MBE?AV?$istreambuf_iterator@DU?$char_traits@D@std@@@2@V32@0AAVios_base@2@AAHAAJ@Z 00446a21 f   libcpmt:locale.obj
 0001:00045a46       __unwindfunclet$?do_get@?$num_get@DV?$istreambuf_iterator@DU?$char_traits@D@std@@@std@@@std@@MBE?AV?$istreambuf_iterator@DU?$char_traits@D@std@@@2@V32@0AAVios_base@2@AAHAAK@Z$0 00446a46 f   libcpmt:locale.obj
 0001:00045a4e       __ehhandler$?do_get@?$num_get@DV?$istreambuf_iterator@DU?$char_traits@D@std@@@std@@@std@@MBE?AV?$istreambuf_iterator@DU?$char_traits@D@std@@@2@V32@0AAVios_base@2@AAHAAK@Z 00446a4e f   libcpmt:locale.obj
 0001:00045a73       __unwindfunclet$?do_get@?$num_get@DV?$istreambuf_iterator@DU?$char_traits@D@std@@@std@@@std@@MBE?AV?$istreambuf_iterator@DU?$char_traits@D@std@@@2@V32@0AAVios_base@2@AAHAA_J@Z$0 00446a73 f   libcpmt:locale.obj
 0001:00045a7b       __ehhandler$?do_get@?$num_get@DV?$istreambuf_iterator@DU?$char_traits@D@std@@@std@@@std@@MBE?AV?$istreambuf_iterator@DU?$char_traits@D@std@@@2@V32@0AAVios_base@2@AAHAA_J@Z 00446a7b f   libcpmt:locale.obj
 0001:00045aa0       __unwindfunclet$?do_get@?$num_get@DV?$istreambuf_iterator@DU?$char_traits@D@std@@@std@@@std@@MBE?AV?$istreambuf_iterator@DU?$char_traits@D@std@@@2@V32@0AAVios_base@2@AAHAA_K@Z$0 00446aa0 f   libcpmt:locale.obj
 0001:00045aa8       __ehhandler$?do_get@?$num_get@DV?$istreambuf_iterator@DU?$char_traits@D@std@@@std@@@std@@MBE?AV?$istreambuf_iterator@DU?$char_traits@D@std@@@2@V32@0AAVios_base@2@AAHAA_K@Z 00446aa8 f   libcpmt:locale.obj
 0001:00045acd       __unwindfunclet$?do_get@?$num_get@DV?$istreambuf_iterator@DU?$char_traits@D@std@@@std@@@std@@MBE?AV?$istreambuf_iterator@DU?$char_traits@D@std@@@2@V32@0AAVios_base@2@AAHAAM@Z$0 00446acd f   libcpmt:locale.obj
 0001:00045ad5       __ehhandler$?do_get@?$num_get@DV?$istreambuf_iterator@DU?$char_traits@D@std@@@std@@@std@@MBE?AV?$istreambuf_iterator@DU?$char_traits@D@std@@@2@V32@0AAVios_base@2@AAHAAM@Z 00446ad5 f   libcpmt:locale.obj
 0001:00045afa       __unwindfunclet$?do_get@?$num_get@DV?$istreambuf_iterator@DU?$char_traits@D@std@@@std@@@std@@MBE?AV?$istreambuf_iterator@DU?$char_traits@D@std@@@2@V32@0AAVios_base@2@AAHAAN@Z$0 00446afa f   libcpmt:locale.obj
 0001:00045b02       __ehhandler$?do_get@?$num_get@DV?$istreambuf_iterator@DU?$char_traits@D@std@@@std@@@std@@MBE?AV?$istreambuf_iterator@DU?$char_traits@D@std@@@2@V32@0AAVios_base@2@AAHAAN@Z 00446b02 f   libcpmt:locale.obj
 0001:00045b27       __unwindfunclet$?do_get@?$num_get@DV?$istreambuf_iterator@DU?$char_traits@D@std@@@std@@@std@@MBE?AV?$istreambuf_iterator@DU?$char_traits@D@std@@@2@V32@0AAVios_base@2@AAHAAO@Z$0 00446b27 f   libcpmt:locale.obj
 0001:00045b2f       __ehhandler$?do_get@?$num_get@DV?$istreambuf_iterator@DU?$char_traits@D@std@@@std@@@std@@MBE?AV?$istreambuf_iterator@DU?$char_traits@D@std@@@2@V32@0AAVios_base@2@AAHAAO@Z 00446b2f f   libcpmt:locale.obj
 0001:00045b54       __unwindfunclet$?do_get@?$num_get@DV?$istreambuf_iterator@DU?$char_traits@D@std@@@std@@@std@@MBE?AV?$istreambuf_iterator@DU?$char_traits@D@std@@@2@V32@0AAVios_base@2@AAHAAPAX@Z$0 00446b54 f   libcpmt:locale.obj
 0001:00045b5c       __ehhandler$?do_get@?$num_get@DV?$istreambuf_iterator@DU?$char_traits@D@std@@@std@@@std@@MBE?AV?$istreambuf_iterator@DU?$char_traits@D@std@@@2@V32@0AAVios_base@2@AAHAAPAX@Z 00446b5c f   libcpmt:locale.obj
 0001:00045b81       __ehhandler$?_Init@?$numpunct@_W@std@@IAEXABV_Locinfo@2@@Z 00446b81 f   libcpmt:wlocale.obj
 0001:00045b9c       __ehhandler$?_Init@?$numpunct@G@std@@IAEXABV_Locinfo@2@@Z 00446b9c f   libcpmt:wlocale.obj
 0001:00045bb7       __ehhandler$?_Init@?$_Mpunct@_W@std@@IAEXABV_Locinfo@2@@Z 00446bb7 f   libcpmt:wlocale.obj
 0001:00045bd2       __ehhandler$?_Init@?$_Mpunct@G@std@@IAEXABV_Locinfo@2@@Z 00446bd2 f   libcpmt:wlocale.obj
 0001:00045bed       __unwindfunclet$??0?$numpunct@_W@std@@QAE@ABV_Locinfo@1@I@Z$0 00446bed f   libcpmt:wlocale.obj
 0001:00045bf5       __ehhandler$??0?$numpunct@_W@std@@QAE@ABV_Locinfo@1@I@Z 00446bf5 f   libcpmt:wlocale.obj
 0001:00045c10       __unwindfunclet$??0?$numpunct@G@std@@QAE@ABV_Locinfo@1@I@Z$0 00446c10 f   libcpmt:wlocale.obj
 0001:00045c18       __ehhandler$??0?$numpunct@G@std@@QAE@ABV_Locinfo@1@I@Z 00446c18 f   libcpmt:wlocale.obj
 0001:00045c33       __unwindfunclet$??0?$_Mpunct@_W@std@@QAE@ABV_Locinfo@1@I_N@Z$0 00446c33 f   libcpmt:wlocale.obj
 0001:00045c3b       __ehhandler$??0?$_Mpunct@_W@std@@QAE@ABV_Locinfo@1@I_N@Z 00446c3b f   libcpmt:wlocale.obj
 0001:00045c56       __unwindfunclet$??0?$_Mpunct@G@std@@QAE@ABV_Locinfo@1@I_N@Z$0 00446c56 f   libcpmt:wlocale.obj
 0001:00045c5e       __ehhandler$??0?$_Mpunct@G@std@@QAE@ABV_Locinfo@1@I_N@Z 00446c5e f   libcpmt:wlocale.obj
 0001:00045c79       __ehhandler$?_Copy@?$basic_string@_WU?$char_traits@_W@std@@V?$allocator@_W@2@@std@@IAEXII@Z 00446c79 f   libcpmt:wlocale.obj
 0001:00045c94       __ehhandler$?_Copy@?$basic_string@GU?$char_traits@G@std@@V?$allocator@G@2@@std@@IAEXII@Z 00446c94 f   libcpmt:wlocale.obj
 0001:00045caf       __unwindfunclet$??$_Getloctxt@_WV?$istreambuf_iterator@_WU?$char_traits@_W@std@@@std@@@std@@YAHAAV?$istreambuf_iterator@_WU?$char_traits@_W@std@@@0@0IPB_W@Z$0 00446caf f   libcpmt:wlocale.obj
 0001:00045cb7       __ehhandler$??$_Getloctxt@_WV?$istreambuf_iterator@_WU?$char_traits@_W@std@@@std@@@std@@YAHAAV?$istreambuf_iterator@_WU?$char_traits@_W@std@@@0@0IPB_W@Z 00446cb7 f   libcpmt:wlocale.obj
 0001:00045cdc       __unwindfunclet$??$_Getloctxt@GV?$istreambuf_iterator@GU?$char_traits@G@std@@@std@@@std@@YAHAAV?$istreambuf_iterator@GU?$char_traits@G@std@@@0@0IPBG@Z$0 00446cdc f   libcpmt:wlocale.obj
 0001:00045ce4       __ehhandler$??$_Getloctxt@GV?$istreambuf_iterator@GU?$char_traits@G@std@@@std@@@std@@YAHAAV?$istreambuf_iterator@GU?$char_traits@G@std@@@0@0IPBG@Z 00446ce4 f   libcpmt:wlocale.obj
 0001:00045d09       __unwindfunclet$?do_put@?$time_put@_WV?$ostreambuf_iterator@_WU?$char_traits@_W@std@@@std@@@std@@MBE?AV?$ostreambuf_iterator@_WU?$char_traits@_W@std@@@2@V32@AAVios_base@2@_WPBUtm@@DD@Z$0 00446d09 f   libcpmt:wlocale.obj
 0001:00045d11       __ehhandler$?do_put@?$time_put@_WV?$ostreambuf_iterator@_WU?$char_traits@_W@std@@@std@@@std@@MBE?AV?$ostreambuf_iterator@_WU?$char_traits@_W@std@@@2@V32@AAVios_base@2@_WPBUtm@@DD@Z 00446d11 f   libcpmt:wlocale.obj
 0001:00045d36       __unwindfunclet$?do_put@?$time_put@GV?$ostreambuf_iterator@GU?$char_traits@G@std@@@std@@@std@@MBE?AV?$ostreambuf_iterator@GU?$char_traits@G@std@@@2@V32@AAVios_base@2@GPBUtm@@DD@Z$0 00446d36 f   libcpmt:wlocale.obj
 0001:00045d3e       __ehhandler$?do_put@?$time_put@GV?$ostreambuf_iterator@GU?$char_traits@G@std@@@std@@@std@@MBE?AV?$ostreambuf_iterator@GU?$char_traits@G@std@@@2@V32@AAVios_base@2@GPBUtm@@DD@Z 00446d3e f   libcpmt:wlocale.obj
 0001:00045d63       __unwindfunclet$?do_transform@?$collate@_W@std@@MBE?AV?$basic_string@_WU?$char_traits@_W@std@@V?$allocator@_W@2@@2@PB_W0@Z$0 00446d63 f   libcpmt:wlocale.obj
 0001:00045d7c       __ehhandler$?do_transform@?$collate@_W@std@@MBE?AV?$basic_string@_WU?$char_traits@_W@std@@V?$allocator@_W@2@@2@PB_W0@Z 00446d7c f   libcpmt:wlocale.obj
 0001:00045d97       __unwindfunclet$?do_transform@?$collate@G@std@@MBE?AV?$basic_string@GU?$char_traits@G@std@@V?$allocator@G@2@@2@PBG0@Z$0 00446d97 f   libcpmt:wlocale.obj
 0001:00045db0       __ehhandler$?do_transform@?$collate@G@std@@MBE?AV?$basic_string@GU?$char_traits@G@std@@V?$allocator@G@2@@2@PBG0@Z 00446db0 f   libcpmt:wlocale.obj
 0001:00045dcb       __unwindfunclet$??0?$codecvt@_WDH@std@@QAE@I@Z$0 00446dcb f   libcpmt:wlocale.obj
 0001:00045dd6       __ehhandler$??0?$codecvt@_WDH@std@@QAE@I@Z 00446dd6 f   libcpmt:wlocale.obj
 0001:00045dfe       __unwindfunclet$?_Getcat@?$codecvt@_WDH@std@@SAIPAPBVfacet@locale@2@@Z$0 00446dfe f   libcpmt:wlocale.obj
 0001:00045e08       __ehhandler$?_Getcat@?$codecvt@_WDH@std@@SAIPAPBVfacet@locale@2@@Z 00446e08 f   libcpmt:wlocale.obj
 0001:00045e23       __unwindfunclet$??0?$codecvt@GDH@std@@QAE@I@Z$0 00446e23 f   libcpmt:wlocale.obj
 0001:00045e2e       __ehhandler$??0?$codecvt@GDH@std@@QAE@I@Z 00446e2e f   libcpmt:wlocale.obj
 0001:00045e56       __unwindfunclet$?_Getcat@?$codecvt@GDH@std@@SAIPAPBVfacet@locale@2@@Z$0 00446e56 f   libcpmt:wlocale.obj
 0001:00045e60       __ehhandler$?_Getcat@?$codecvt@GDH@std@@SAIPAPBVfacet@locale@2@@Z 00446e60 f   libcpmt:wlocale.obj
 0001:00045e7b       __unwindfunclet$??0?$ctype@_W@std@@QAE@I@Z$0 00446e7b f   libcpmt:wlocale.obj
 0001:00045e86       __ehhandler$??0?$ctype@_W@std@@QAE@I@Z 00446e86 f   libcpmt:wlocale.obj
 0001:00045eae       __unwindfunclet$?_Getcat@?$ctype@_W@std@@SAIPAPBVfacet@locale@2@@Z$0 00446eae f   libcpmt:wlocale.obj
 0001:00045eb8       __ehhandler$?_Getcat@?$ctype@_W@std@@SAIPAPBVfacet@locale@2@@Z 00446eb8 f   libcpmt:wlocale.obj
 0001:00045ed3       __unwindfunclet$??0?$ctype@G@std@@QAE@I@Z$0 00446ed3 f   libcpmt:wlocale.obj
 0001:00045ede       __ehhandler$??0?$ctype@G@std@@QAE@I@Z 00446ede f   libcpmt:wlocale.obj
 0001:00045f06       __unwindfunclet$?_Getcat@?$ctype@G@std@@SAIPAPBVfacet@locale@2@@Z$0 00446f06 f   libcpmt:wlocale.obj
 0001:00045f10       __ehhandler$?_Getcat@?$ctype@G@std@@SAIPAPBVfacet@locale@2@@Z 00446f10 f   libcpmt:wlocale.obj
 0001:00045f2b       __unwindfunclet$??0?$time_put@_WV?$ostreambuf_iterator@_WU?$char_traits@_W@std@@@std@@@std@@QAE@I@Z$0 00446f2b f   libcpmt:wlocale.obj
 0001:00045f36       __unwindfunclet$??0?$time_put@_WV?$ostreambuf_iterator@_WU?$char_traits@_W@std@@@std@@@std@@QAE@I@Z$1 00446f36 f   libcpmt:wlocale.obj
 0001:00045f44       __ehhandler$??0?$time_put@_WV?$ostreambuf_iterator@_WU?$char_traits@_W@std@@@std@@@std@@QAE@I@Z 00446f44 f   libcpmt:wlocale.obj
 0001:00045f6c       __unwindfunclet$??0?$num_get@_WV?$istreambuf_iterator@_WU?$char_traits@_W@std@@@std@@@std@@QAE@I@Z$0 00446f6c f   libcpmt:wlocale.obj
 0001:00045f77       __ehhandler$??0?$num_get@_WV?$istreambuf_iterator@_WU?$char_traits@_W@std@@@std@@@std@@QAE@I@Z 00446f77 f   libcpmt:wlocale.obj
 0001:00045f9f       __unwindfunclet$??0?$num_put@_WV?$ostreambuf_iterator@_WU?$char_traits@_W@std@@@std@@@std@@QAE@I@Z$0 00446f9f f   libcpmt:wlocale.obj
 0001:00045faa       __ehhandler$??0?$num_put@_WV?$ostreambuf_iterator@_WU?$char_traits@_W@std@@@std@@@std@@QAE@I@Z 00446faa f   libcpmt:wlocale.obj
 0001:00045fd2       __unwindfunclet$??0?$numpunct@_W@std@@QAE@I@Z$0 00446fd2 f   libcpmt:wlocale.obj
 0001:00045fdd       __unwindfunclet$??0?$numpunct@_W@std@@QAE@I@Z$1 00446fdd f   libcpmt:wlocale.obj
 0001:00045fe8       __ehhandler$??0?$numpunct@_W@std@@QAE@I@Z 00446fe8 f   libcpmt:wlocale.obj
 0001:00046010       __unwindfunclet$??0?$collate@_W@std@@QAE@I@Z$0 00447010 f   libcpmt:wlocale.obj
 0001:0004601b       __ehhandler$??0?$collate@_W@std@@QAE@I@Z 0044701b f   libcpmt:wlocale.obj
 0001:00046043       __unwindfunclet$??0?$messages@_W@std@@QAE@I@Z$0 00447043 f   libcpmt:wlocale.obj
 0001:0004604e       __ehhandler$??0?$messages@_W@std@@QAE@I@Z 0044704e f   libcpmt:wlocale.obj
 0001:00046076       __unwindfunclet$??0?$money_get@_WV?$istreambuf_iterator@_WU?$char_traits@_W@std@@@std@@@std@@QAE@I@Z$0 00447076 f   libcpmt:wlocale.obj
 0001:00046081       __ehhandler$??0?$money_get@_WV?$istreambuf_iterator@_WU?$char_traits@_W@std@@@std@@@std@@QAE@I@Z 00447081 f   libcpmt:wlocale.obj
 0001:000460a9       __unwindfunclet$??0?$money_put@_WV?$ostreambuf_iterator@_WU?$char_traits@_W@std@@@std@@@std@@QAE@I@Z$0 004470a9 f   libcpmt:wlocale.obj
 0001:000460b4       __ehhandler$??0?$money_put@_WV?$ostreambuf_iterator@_WU?$char_traits@_W@std@@@std@@@std@@QAE@I@Z 004470b4 f   libcpmt:wlocale.obj
 0001:000460dc       __ehhandler$?_Init@?$time_get@_WV?$istreambuf_iterator@_WU?$char_traits@_W@std@@@std@@@std@@IAEXABV_Locinfo@2@@Z 004470dc f   libcpmt:wlocale.obj
 0001:000460f7       __unwindfunclet$??0?$num_get@GV?$istreambuf_iterator@GU?$char_traits@G@std@@@std@@@std@@QAE@I@Z$0 004470f7 f   libcpmt:wlocale.obj
 0001:00046102       __ehhandler$??0?$num_get@GV?$istreambuf_iterator@GU?$char_traits@G@std@@@std@@@std@@QAE@I@Z 00447102 f   libcpmt:wlocale.obj
 0001:0004612a       __unwindfunclet$??0?$num_put@GV?$ostreambuf_iterator@GU?$char_traits@G@std@@@std@@@std@@QAE@I@Z$0 0044712a f   libcpmt:wlocale.obj
 0001:00046135       __ehhandler$??0?$num_put@GV?$ostreambuf_iterator@GU?$char_traits@G@std@@@std@@@std@@QAE@I@Z 00447135 f   libcpmt:wlocale.obj
 0001:0004615d       __unwindfunclet$??0?$numpunct@G@std@@QAE@I@Z$0 0044715d f   libcpmt:wlocale.obj
 0001:00046168       __unwindfunclet$??0?$numpunct@G@std@@QAE@I@Z$1 00447168 f   libcpmt:wlocale.obj
 0001:00046173       __ehhandler$??0?$numpunct@G@std@@QAE@I@Z 00447173 f   libcpmt:wlocale.obj
 0001:0004619b       __unwindfunclet$??0?$collate@G@std@@QAE@I@Z$0 0044719b f   libcpmt:wlocale.obj
 0001:000461a6       __ehhandler$??0?$collate@G@std@@QAE@I@Z 004471a6 f   libcpmt:wlocale.obj
 0001:000461ce       __unwindfunclet$??0?$messages@G@std@@QAE@I@Z$0 004471ce f   libcpmt:wlocale.obj
 0001:000461d9       __ehhandler$??0?$messages@G@std@@QAE@I@Z 004471d9 f   libcpmt:wlocale.obj
 0001:00046201       __unwindfunclet$??0?$money_get@GV?$istreambuf_iterator@GU?$char_traits@G@std@@@std@@@std@@QAE@I@Z$0 00447201 f   libcpmt:wlocale.obj
 0001:0004620c       __ehhandler$??0?$money_get@GV?$istreambuf_iterator@GU?$char_traits@G@std@@@std@@@std@@QAE@I@Z 0044720c f   libcpmt:wlocale.obj
 0001:00046234       __unwindfunclet$??0?$money_put@GV?$ostreambuf_iterator@GU?$char_traits@G@std@@@std@@@std@@QAE@I@Z$0 00447234 f   libcpmt:wlocale.obj
 0001:0004623f       __ehhandler$??0?$money_put@GV?$ostreambuf_iterator@GU?$char_traits@G@std@@@std@@@std@@QAE@I@Z 0044723f f   libcpmt:wlocale.obj
 0001:00046267       __ehhandler$?_Init@?$time_get@GV?$istreambuf_iterator@GU?$char_traits@G@std@@@std@@@std@@IAEXABV_Locinfo@2@@Z 00447267 f   libcpmt:wlocale.obj
 0001:00046282       __unwindfunclet$??0?$time_put@GV?$ostreambuf_iterator@GU?$char_traits@G@std@@@std@@@std@@QAE@I@Z$0 00447282 f   libcpmt:wlocale.obj
 0001:0004628d       __unwindfunclet$??0?$time_put@GV?$ostreambuf_iterator@GU?$char_traits@G@std@@@std@@@std@@QAE@I@Z$1 0044728d f   libcpmt:wlocale.obj
 0001:0004629b       __ehhandler$??0?$time_put@GV?$ostreambuf_iterator@GU?$char_traits@G@std@@@std@@@std@@QAE@I@Z 0044729b f   libcpmt:wlocale.obj
 0001:000462c3       __unwindfunclet$??0?$_Mpunct@_W@std@@QAE@I_N@Z$0 004472c3 f   libcpmt:wlocale.obj
 0001:000462ce       __unwindfunclet$??0?$_Mpunct@_W@std@@QAE@I_N@Z$1 004472ce f   libcpmt:wlocale.obj
 0001:000462d9       __ehhandler$??0?$_Mpunct@_W@std@@QAE@I_N@Z 004472d9 f   libcpmt:wlocale.obj
 0001:00046301       __unwindfunclet$??0?$_Mpunct@G@std@@QAE@I_N@Z$0 00447301 f   libcpmt:wlocale.obj
 0001:0004630c       __unwindfunclet$??0?$_Mpunct@G@std@@QAE@I_N@Z$1 0044730c f   libcpmt:wlocale.obj
 0001:00046317       __ehhandler$??0?$_Mpunct@G@std@@QAE@I_N@Z 00447317 f   libcpmt:wlocale.obj
 0001:0004633f       __unwindfunclet$??$use_facet@V?$ctype@_W@std@@@std@@YAABV?$ctype@_W@0@ABVlocale@0@@Z$0 0044733f f   libcpmt:wlocale.obj
 0001:00046347       __ehhandler$??$use_facet@V?$ctype@_W@std@@@std@@YAABV?$ctype@_W@0@ABVlocale@0@@Z 00447347 f   libcpmt:wlocale.obj
 0001:00046362       __unwindfunclet$??$use_facet@V?$ctype@G@std@@@std@@YAABV?$ctype@G@0@ABVlocale@0@@Z$0 00447362 f   libcpmt:wlocale.obj
 0001:0004636a       __ehhandler$??$use_facet@V?$ctype@G@std@@@std@@YAABV?$ctype@G@0@ABVlocale@0@@Z 0044736a f   libcpmt:wlocale.obj
 0001:00046385       __unwindfunclet$??$use_facet@V?$codecvt@_WDH@std@@@std@@YAABV?$codecvt@_WDH@0@ABVlocale@0@@Z$0 00447385 f   libcpmt:wlocale.obj
 0001:0004638d       __ehhandler$??$use_facet@V?$codecvt@_WDH@std@@@std@@YAABV?$codecvt@_WDH@0@ABVlocale@0@@Z 0044738d f   libcpmt:wlocale.obj
 0001:000463a8       __unwindfunclet$??$use_facet@V?$codecvt@GDH@std@@@std@@YAABV?$codecvt@GDH@0@ABVlocale@0@@Z$0 004473a8 f   libcpmt:wlocale.obj
 0001:000463b0       __ehhandler$??$use_facet@V?$codecvt@GDH@std@@@std@@YAABV?$codecvt@GDH@0@ABVlocale@0@@Z 004473b0 f   libcpmt:wlocale.obj
 0001:000463cb       __unwindfunclet$?_Getcat@?$time_put@_WV?$ostreambuf_iterator@_WU?$char_traits@_W@std@@@std@@@std@@SAIPAPBVfacet@locale@2@@Z$0 004473cb f   libcpmt:wlocale.obj
 0001:000463d5       __ehhandler$?_Getcat@?$time_put@_WV?$ostreambuf_iterator@_WU?$char_traits@_W@std@@@std@@@std@@SAIPAPBVfacet@locale@2@@Z 004473d5 f   libcpmt:wlocale.obj
 0001:000463f0       __unwindfunclet$?_Getcat@?$num_get@_WV?$istreambuf_iterator@_WU?$char_traits@_W@std@@@std@@@std@@SAIPAPBVfacet@locale@2@@Z$0 004473f0 f   libcpmt:wlocale.obj
 0001:000463fa       __ehhandler$?_Getcat@?$num_get@_WV?$istreambuf_iterator@_WU?$char_traits@_W@std@@@std@@@std@@SAIPAPBVfacet@locale@2@@Z 004473fa f   libcpmt:wlocale.obj
 0001:00046415       __unwindfunclet$?_Getcat@?$num_put@_WV?$ostreambuf_iterator@_WU?$char_traits@_W@std@@@std@@@std@@SAIPAPBVfacet@locale@2@@Z$0 00447415 f   libcpmt:wlocale.obj
 0001:0004641f       __ehhandler$?_Getcat@?$num_put@_WV?$ostreambuf_iterator@_WU?$char_traits@_W@std@@@std@@@std@@SAIPAPBVfacet@locale@2@@Z 0044741f f   libcpmt:wlocale.obj
 0001:0004643a       __unwindfunclet$?_Getcat@?$numpunct@_W@std@@SAIPAPBVfacet@locale@2@@Z$0 0044743a f   libcpmt:wlocale.obj
 0001:00046444       __ehhandler$?_Getcat@?$numpunct@_W@std@@SAIPAPBVfacet@locale@2@@Z 00447444 f   libcpmt:wlocale.obj
 0001:0004645f       __unwindfunclet$?_Getcat@?$collate@_W@std@@SAIPAPBVfacet@locale@2@@Z$0 0044745f f   libcpmt:wlocale.obj
 0001:00046469       __ehhandler$?_Getcat@?$collate@_W@std@@SAIPAPBVfacet@locale@2@@Z 00447469 f   libcpmt:wlocale.obj
 0001:00046484       __unwindfunclet$?_Getcat@?$messages@_W@std@@SAIPAPBVfacet@locale@2@@Z$0 00447484 f   libcpmt:wlocale.obj
 0001:0004648e       __ehhandler$?_Getcat@?$messages@_W@std@@SAIPAPBVfacet@locale@2@@Z 0044748e f   libcpmt:wlocale.obj
 0001:000464a9       __unwindfunclet$?_Getcat@?$money_get@_WV?$istreambuf_iterator@_WU?$char_traits@_W@std@@@std@@@std@@SAIPAPBVfacet@locale@2@@Z$0 004474a9 f   libcpmt:wlocale.obj
 0001:000464b3       __ehhandler$?_Getcat@?$money_get@_WV?$istreambuf_iterator@_WU?$char_traits@_W@std@@@std@@@std@@SAIPAPBVfacet@locale@2@@Z 004474b3 f   libcpmt:wlocale.obj
 0001:000464ce       __unwindfunclet$?_Getcat@?$money_put@_WV?$ostreambuf_iterator@_WU?$char_traits@_W@std@@@std@@@std@@SAIPAPBVfacet@locale@2@@Z$0 004474ce f   libcpmt:wlocale.obj
 0001:000464d8       __ehhandler$?_Getcat@?$money_put@_WV?$ostreambuf_iterator@_WU?$char_traits@_W@std@@@std@@@std@@SAIPAPBVfacet@locale@2@@Z 004474d8 f   libcpmt:wlocale.obj
 0001:000464f3       __unwindfunclet$??0?$time_get@_WV?$istreambuf_iterator@_WU?$char_traits@_W@std@@@std@@@std@@QAE@ABV_Locinfo@1@I@Z$0 004474f3 f   libcpmt:wlocale.obj
 0001:000464fb       __ehhandler$??0?$time_get@_WV?$istreambuf_iterator@_WU?$char_traits@_W@std@@@std@@@std@@QAE@ABV_Locinfo@1@I@Z 004474fb f   libcpmt:wlocale.obj
 0001:00046516       __unwindfunclet$?_Getcat@?$num_get@GV?$istreambuf_iterator@GU?$char_traits@G@std@@@std@@@std@@SAIPAPBVfacet@locale@2@@Z$0 00447516 f   libcpmt:wlocale.obj
 0001:00046520       __ehhandler$?_Getcat@?$num_get@GV?$istreambuf_iterator@GU?$char_traits@G@std@@@std@@@std@@SAIPAPBVfacet@locale@2@@Z 00447520 f   libcpmt:wlocale.obj
 0001:0004653b       __unwindfunclet$?_Getcat@?$num_put@GV?$ostreambuf_iterator@GU?$char_traits@G@std@@@std@@@std@@SAIPAPBVfacet@locale@2@@Z$0 0044753b f   libcpmt:wlocale.obj
 0001:00046545       __ehhandler$?_Getcat@?$num_put@GV?$ostreambuf_iterator@GU?$char_traits@G@std@@@std@@@std@@SAIPAPBVfacet@locale@2@@Z 00447545 f   libcpmt:wlocale.obj
 0001:00046560       __unwindfunclet$?_Getcat@?$numpunct@G@std@@SAIPAPBVfacet@locale@2@@Z$0 00447560 f   libcpmt:wlocale.obj
 0001:0004656a       __ehhandler$?_Getcat@?$numpunct@G@std@@SAIPAPBVfacet@locale@2@@Z 0044756a f   libcpmt:wlocale.obj
 0001:00046585       __unwindfunclet$?_Getcat@?$collate@G@std@@SAIPAPBVfacet@locale@2@@Z$0 00447585 f   libcpmt:wlocale.obj
 0001:0004658f       __ehhandler$?_Getcat@?$collate@G@std@@SAIPAPBVfacet@locale@2@@Z 0044758f f   libcpmt:wlocale.obj
 0001:000465aa       __unwindfunclet$?_Getcat@?$messages@G@std@@SAIPAPBVfacet@locale@2@@Z$0 004475aa f   libcpmt:wlocale.obj
 0001:000465b4       __ehhandler$?_Getcat@?$messages@G@std@@SAIPAPBVfacet@locale@2@@Z 004475b4 f   libcpmt:wlocale.obj
 0001:000465cf       __unwindfunclet$?_Getcat@?$money_get@GV?$istreambuf_iterator@GU?$char_traits@G@std@@@std@@@std@@SAIPAPBVfacet@locale@2@@Z$0 004475cf f   libcpmt:wlocale.obj
 0001:000465d9       __ehhandler$?_Getcat@?$money_get@GV?$istreambuf_iterator@GU?$char_traits@G@std@@@std@@@std@@SAIPAPBVfacet@locale@2@@Z 004475d9 f   libcpmt:wlocale.obj
 0001:000465f4       __unwindfunclet$?_Getcat@?$money_put@GV?$ostreambuf_iterator@GU?$char_traits@G@std@@@std@@@std@@SAIPAPBVfacet@locale@2@@Z$0 004475f4 f   libcpmt:wlocale.obj
 0001:000465fe       __ehhandler$?_Getcat@?$money_put@GV?$ostreambuf_iterator@GU?$char_traits@G@std@@@std@@@std@@SAIPAPBVfacet@locale@2@@Z 004475fe f   libcpmt:wlocale.obj
 0001:00046619       __unwindfunclet$??0?$time_get@GV?$istreambuf_iterator@GU?$char_traits@G@std@@@std@@@std@@QAE@ABV_Locinfo@1@I@Z$0 00447619 f   libcpmt:wlocale.obj
 0001:00046621       __ehhandler$??0?$time_get@GV?$istreambuf_iterator@GU?$char_traits@G@std@@@std@@@std@@QAE@ABV_Locinfo@1@I@Z 00447621 f   libcpmt:wlocale.obj
 0001:0004663c       __unwindfunclet$?_Getcat@?$time_put@GV?$ostreambuf_iterator@GU?$char_traits@G@std@@@std@@@std@@SAIPAPBVfacet@locale@2@@Z$0 0044763c f   libcpmt:wlocale.obj
 0001:00046646       __ehhandler$?_Getcat@?$time_put@GV?$ostreambuf_iterator@GU?$char_traits@G@std@@@std@@@std@@SAIPAPBVfacet@locale@2@@Z 00447646 f   libcpmt:wlocale.obj
 0001:00046661       __unwindfunclet$??0?$time_get@_WV?$istreambuf_iterator@_WU?$char_traits@_W@std@@@std@@@std@@QAE@I@Z$0 00447661 f   libcpmt:wlocale.obj
 0001:0004666c       __unwindfunclet$??0?$time_get@_WV?$istreambuf_iterator@_WU?$char_traits@_W@std@@@std@@@std@@QAE@I@Z$1 0044766c f   libcpmt:wlocale.obj
 0001:00046677       __ehhandler$??0?$time_get@_WV?$istreambuf_iterator@_WU?$char_traits@_W@std@@@std@@@std@@QAE@I@Z 00447677 f   libcpmt:wlocale.obj
 0001:0004669f       __unwindfunclet$??0?$time_get@GV?$istreambuf_iterator@GU?$char_traits@G@std@@@std@@@std@@QAE@I@Z$0 0044769f f   libcpmt:wlocale.obj
 0001:000466aa       __unwindfunclet$??0?$time_get@GV?$istreambuf_iterator@GU?$char_traits@G@std@@@std@@@std@@QAE@I@Z$1 004476aa f   libcpmt:wlocale.obj
 0001:000466b5       __ehhandler$??0?$time_get@GV?$istreambuf_iterator@GU?$char_traits@G@std@@@std@@@std@@QAE@I@Z 004476b5 f   libcpmt:wlocale.obj
 0001:000466dd       __unwindfunclet$??$use_facet@V?$num_get@_WV?$istreambuf_iterator@_WU?$char_traits@_W@std@@@std@@@std@@@std@@YAABV?$num_get@_WV?$istreambuf_iterator@_WU?$char_traits@_W@std@@@std@@@0@ABVlocale@0@@Z$0 004476dd f   libcpmt:wlocale.obj
 0001:000466e5       __ehhandler$??$use_facet@V?$num_get@_WV?$istreambuf_iterator@_WU?$char_traits@_W@std@@@std@@@std@@@std@@YAABV?$num_get@_WV?$istreambuf_iterator@_WU?$char_traits@_W@std@@@std@@@0@ABVlocale@0@@Z 004476e5 f   libcpmt:wlocale.obj
 0001:00046700       __unwindfunclet$??$use_facet@V?$num_put@_WV?$ostreambuf_iterator@_WU?$char_traits@_W@std@@@std@@@std@@@std@@YAABV?$num_put@_WV?$ostreambuf_iterator@_WU?$char_traits@_W@std@@@std@@@0@ABVlocale@0@@Z$0 00447700 f   libcpmt:wlocale.obj
 0001:00046708       __ehhandler$??$use_facet@V?$num_put@_WV?$ostreambuf_iterator@_WU?$char_traits@_W@std@@@std@@@std@@@std@@YAABV?$num_put@_WV?$ostreambuf_iterator@_WU?$char_traits@_W@std@@@std@@@0@ABVlocale@0@@Z 00447708 f   libcpmt:wlocale.obj
 0001:00046723       __unwindfunclet$??$use_facet@V?$numpunct@_W@std@@@std@@YAABV?$numpunct@_W@0@ABVlocale@0@@Z$0 00447723 f   libcpmt:wlocale.obj
 0001:0004672b       __ehhandler$??$use_facet@V?$numpunct@_W@std@@@std@@YAABV?$numpunct@_W@0@ABVlocale@0@@Z 0044772b f   libcpmt:wlocale.obj
 0001:00046746       __unwindfunclet$??$use_facet@V?$collate@_W@std@@@std@@YAABV?$collate@_W@0@ABVlocale@0@@Z$0 00447746 f   libcpmt:wlocale.obj
 0001:0004674e       __ehhandler$??$use_facet@V?$collate@_W@std@@@std@@YAABV?$collate@_W@0@ABVlocale@0@@Z 0044774e f   libcpmt:wlocale.obj
 0001:00046769       __unwindfunclet$??$use_facet@V?$messages@_W@std@@@std@@YAABV?$messages@_W@0@ABVlocale@0@@Z$0 00447769 f   libcpmt:wlocale.obj
 0001:00046771       __ehhandler$??$use_facet@V?$messages@_W@std@@@std@@YAABV?$messages@_W@0@ABVlocale@0@@Z 00447771 f   libcpmt:wlocale.obj
 0001:0004678c       __unwindfunclet$??$use_facet@V?$money_get@_WV?$istreambuf_iterator@_WU?$char_traits@_W@std@@@std@@@std@@@std@@YAABV?$money_get@_WV?$istreambuf_iterator@_WU?$char_traits@_W@std@@@std@@@0@ABVlocale@0@@Z$0 0044778c f   libcpmt:wlocale.obj
 0001:00046794       __ehhandler$??$use_facet@V?$money_get@_WV?$istreambuf_iterator@_WU?$char_traits@_W@std@@@std@@@std@@@std@@YAABV?$money_get@_WV?$istreambuf_iterator@_WU?$char_traits@_W@std@@@std@@@0@ABVlocale@0@@Z 00447794 f   libcpmt:wlocale.obj
 0001:000467af       __unwindfunclet$??$use_facet@V?$money_put@_WV?$ostreambuf_iterator@_WU?$char_traits@_W@std@@@std@@@std@@@std@@YAABV?$money_put@_WV?$ostreambuf_iterator@_WU?$char_traits@_W@std@@@std@@@0@ABVlocale@0@@Z$0 004477af f   libcpmt:wlocale.obj
 0001:000467b7       __ehhandler$??$use_facet@V?$money_put@_WV?$ostreambuf_iterator@_WU?$char_traits@_W@std@@@std@@@std@@@std@@YAABV?$money_put@_WV?$ostreambuf_iterator@_WU?$char_traits@_W@std@@@std@@@0@ABVlocale@0@@Z 004477b7 f   libcpmt:wlocale.obj
 0001:000467d2       __unwindfunclet$??$use_facet@V?$time_put@_WV?$ostreambuf_iterator@_WU?$char_traits@_W@std@@@std@@@std@@@std@@YAABV?$time_put@_WV?$ostreambuf_iterator@_WU?$char_traits@_W@std@@@std@@@0@ABVlocale@0@@Z$0 004477d2 f   libcpmt:wlocale.obj
 0001:000467da       __ehhandler$??$use_facet@V?$time_put@_WV?$ostreambuf_iterator@_WU?$char_traits@_W@std@@@std@@@std@@@std@@YAABV?$time_put@_WV?$ostreambuf_iterator@_WU?$char_traits@_W@std@@@std@@@0@ABVlocale@0@@Z 004477da f   libcpmt:wlocale.obj
 0001:000467f5       __unwindfunclet$??$use_facet@V?$num_get@GV?$istreambuf_iterator@GU?$char_traits@G@std@@@std@@@std@@@std@@YAABV?$num_get@GV?$istreambuf_iterator@GU?$char_traits@G@std@@@std@@@0@ABVlocale@0@@Z$0 004477f5 f   libcpmt:wlocale.obj
 0001:000467fd       __ehhandler$??$use_facet@V?$num_get@GV?$istreambuf_iterator@GU?$char_traits@G@std@@@std@@@std@@@std@@YAABV?$num_get@GV?$istreambuf_iterator@GU?$char_traits@G@std@@@std@@@0@ABVlocale@0@@Z 004477fd f   libcpmt:wlocale.obj
 0001:00046818       __unwindfunclet$??$use_facet@V?$num_put@GV?$ostreambuf_iterator@GU?$char_traits@G@std@@@std@@@std@@@std@@YAABV?$num_put@GV?$ostreambuf_iterator@GU?$char_traits@G@std@@@std@@@0@ABVlocale@0@@Z$0 00447818 f   libcpmt:wlocale.obj
 0001:00046820       __ehhandler$??$use_facet@V?$num_put@GV?$ostreambuf_iterator@GU?$char_traits@G@std@@@std@@@std@@@std@@YAABV?$num_put@GV?$ostreambuf_iterator@GU?$char_traits@G@std@@@std@@@0@ABVlocale@0@@Z 00447820 f   libcpmt:wlocale.obj
 0001:0004683b       __unwindfunclet$??$use_facet@V?$numpunct@G@std@@@std@@YAABV?$numpunct@G@0@ABVlocale@0@@Z$0 0044783b f   libcpmt:wlocale.obj
 0001:00046843       __ehhandler$??$use_facet@V?$numpunct@G@std@@@std@@YAABV?$numpunct@G@0@ABVlocale@0@@Z 00447843 f   libcpmt:wlocale.obj
 0001:0004685e       __unwindfunclet$??$use_facet@V?$collate@G@std@@@std@@YAABV?$collate@G@0@ABVlocale@0@@Z$0 0044785e f   libcpmt:wlocale.obj
 0001:00046866       __ehhandler$??$use_facet@V?$collate@G@std@@@std@@YAABV?$collate@G@0@ABVlocale@0@@Z 00447866 f   libcpmt:wlocale.obj
 0001:00046881       __unwindfunclet$??$use_facet@V?$messages@G@std@@@std@@YAABV?$messages@G@0@ABVlocale@0@@Z$0 00447881 f   libcpmt:wlocale.obj
 0001:00046889       __ehhandler$??$use_facet@V?$messages@G@std@@@std@@YAABV?$messages@G@0@ABVlocale@0@@Z 00447889 f   libcpmt:wlocale.obj
 0001:000468a4       __unwindfunclet$??$use_facet@V?$money_get@GV?$istreambuf_iterator@GU?$char_traits@G@std@@@std@@@std@@@std@@YAABV?$money_get@GV?$istreambuf_iterator@GU?$char_traits@G@std@@@std@@@0@ABVlocale@0@@Z$0 004478a4 f   libcpmt:wlocale.obj
 0001:000468ac       __ehhandler$??$use_facet@V?$money_get@GV?$istreambuf_iterator@GU?$char_traits@G@std@@@std@@@std@@@std@@YAABV?$money_get@GV?$istreambuf_iterator@GU?$char_traits@G@std@@@std@@@0@ABVlocale@0@@Z 004478ac f   libcpmt:wlocale.obj
 0001:000468c7       __unwindfunclet$??$use_facet@V?$money_put@GV?$ostreambuf_iterator@GU?$char_traits@G@std@@@std@@@std@@@std@@YAABV?$money_put@GV?$ostreambuf_iterator@GU?$char_traits@G@std@@@std@@@0@ABVlocale@0@@Z$0 004478c7 f   libcpmt:wlocale.obj
 0001:000468cf       __ehhandler$??$use_facet@V?$money_put@GV?$ostreambuf_iterator@GU?$char_traits@G@std@@@std@@@std@@@std@@YAABV?$money_put@GV?$ostreambuf_iterator@GU?$char_traits@G@std@@@std@@@0@ABVlocale@0@@Z 004478cf f   libcpmt:wlocale.obj
 0001:000468ea       __unwindfunclet$??$use_facet@V?$time_put@GV?$ostreambuf_iterator@GU?$char_traits@G@std@@@std@@@std@@@std@@YAABV?$time_put@GV?$ostreambuf_iterator@GU?$char_traits@G@std@@@std@@@0@ABVlocale@0@@Z$0 004478ea f   libcpmt:wlocale.obj
 0001:000468f2       __ehhandler$??$use_facet@V?$time_put@GV?$ostreambuf_iterator@GU?$char_traits@G@std@@@std@@@std@@@std@@YAABV?$time_put@GV?$ostreambuf_iterator@GU?$char_traits@G@std@@@std@@@0@ABVlocale@0@@Z 004478f2 f   libcpmt:wlocale.obj
 0001:0004690d       __unwindfunclet$?do_put@?$num_put@_WV?$ostreambuf_iterator@_WU?$char_traits@_W@std@@@std@@@std@@MBE?AV?$ostreambuf_iterator@_WU?$char_traits@_W@std@@@2@V32@AAVios_base@2@_W_N@Z$0 0044790d f   libcpmt:wlocale.obj
 0001:00046915       __unwindfunclet$?do_put@?$num_put@_WV?$ostreambuf_iterator@_WU?$char_traits@_W@std@@@std@@@std@@MBE?AV?$ostreambuf_iterator@_WU?$char_traits@_W@std@@@2@V32@AAVios_base@2@_W_N@Z$1 00447915 f   libcpmt:wlocale.obj
 0001:0004691d       __unwindfunclet$?do_put@?$num_put@_WV?$ostreambuf_iterator@_WU?$char_traits@_W@std@@@std@@@std@@MBE?AV?$ostreambuf_iterator@_WU?$char_traits@_W@std@@@2@V32@AAVios_base@2@_W_N@Z$2 0044791d f   libcpmt:wlocale.obj
 0001:00046925       __unwindfunclet$?do_put@?$num_put@_WV?$ostreambuf_iterator@_WU?$char_traits@_W@std@@@std@@@std@@MBE?AV?$ostreambuf_iterator@_WU?$char_traits@_W@std@@@2@V32@AAVios_base@2@_W_N@Z$3 00447925 f   libcpmt:wlocale.obj
 0001:0004692d       __ehhandler$?do_put@?$num_put@_WV?$ostreambuf_iterator@_WU?$char_traits@_W@std@@@std@@@std@@MBE?AV?$ostreambuf_iterator@_WU?$char_traits@_W@std@@@2@V32@AAVios_base@2@_W_N@Z 0044792d f   libcpmt:wlocale.obj
 0001:00046952       __unwindfunclet$?_Getcat@?$moneypunct@_W$0A@@std@@SAIPAPBVfacet@locale@2@@Z$0 00447952 f   libcpmt:wlocale.obj
 0001:0004695c       __ehhandler$?_Getcat@?$moneypunct@_W$0A@@std@@SAIPAPBVfacet@locale@2@@Z 0044795c f   libcpmt:wlocale.obj
 0001:00046977       __unwindfunclet$?_Getcat@?$moneypunct@_W$00@std@@SAIPAPBVfacet@locale@2@@Z$0 00447977 f   libcpmt:wlocale.obj
 0001:00046981       __ehhandler$?_Getcat@?$moneypunct@_W$00@std@@SAIPAPBVfacet@locale@2@@Z 00447981 f   libcpmt:wlocale.obj
 0001:0004699c       __unwindfunclet$?_Getcat@?$time_get@_WV?$istreambuf_iterator@_WU?$char_traits@_W@std@@@std@@@std@@SAIPAPBVfacet@locale@2@@Z$0 0044799c f   libcpmt:wlocale.obj
 0001:000469a6       __ehhandler$?_Getcat@?$time_get@_WV?$istreambuf_iterator@_WU?$char_traits@_W@std@@@std@@@std@@SAIPAPBVfacet@locale@2@@Z 004479a6 f   libcpmt:wlocale.obj
 0001:000469c1       __unwindfunclet$?do_put@?$num_put@GV?$ostreambuf_iterator@GU?$char_traits@G@std@@@std@@@std@@MBE?AV?$ostreambuf_iterator@GU?$char_traits@G@std@@@2@V32@AAVios_base@2@G_N@Z$0 004479c1 f   libcpmt:wlocale.obj
 0001:000469c9       __unwindfunclet$?do_put@?$num_put@GV?$ostreambuf_iterator@GU?$char_traits@G@std@@@std@@@std@@MBE?AV?$ostreambuf_iterator@GU?$char_traits@G@std@@@2@V32@AAVios_base@2@G_N@Z$1 004479c9 f   libcpmt:wlocale.obj
 0001:000469d1       __unwindfunclet$?do_put@?$num_put@GV?$ostreambuf_iterator@GU?$char_traits@G@std@@@std@@@std@@MBE?AV?$ostreambuf_iterator@GU?$char_traits@G@std@@@2@V32@AAVios_base@2@G_N@Z$2 004479d1 f   libcpmt:wlocale.obj
 0001:000469d9       __unwindfunclet$?do_put@?$num_put@GV?$ostreambuf_iterator@GU?$char_traits@G@std@@@std@@@std@@MBE?AV?$ostreambuf_iterator@GU?$char_traits@G@std@@@2@V32@AAVios_base@2@G_N@Z$3 004479d9 f   libcpmt:wlocale.obj
 0001:000469e1       __ehhandler$?do_put@?$num_put@GV?$ostreambuf_iterator@GU?$char_traits@G@std@@@std@@@std@@MBE?AV?$ostreambuf_iterator@GU?$char_traits@G@std@@@2@V32@AAVios_base@2@G_N@Z 004479e1 f   libcpmt:wlocale.obj
 0001:00046a06       __unwindfunclet$?_Getcat@?$moneypunct@G$0A@@std@@SAIPAPBVfacet@locale@2@@Z$0 00447a06 f   libcpmt:wlocale.obj
 0001:00046a10       __ehhandler$?_Getcat@?$moneypunct@G$0A@@std@@SAIPAPBVfacet@locale@2@@Z 00447a10 f   libcpmt:wlocale.obj
 0001:00046a2b       __unwindfunclet$?_Getcat@?$moneypunct@G$00@std@@SAIPAPBVfacet@locale@2@@Z$0 00447a2b f   libcpmt:wlocale.obj
 0001:00046a35       __ehhandler$?_Getcat@?$moneypunct@G$00@std@@SAIPAPBVfacet@locale@2@@Z 00447a35 f   libcpmt:wlocale.obj
 0001:00046a50       __unwindfunclet$?_Getcat@?$time_get@GV?$istreambuf_iterator@GU?$char_traits@G@std@@@std@@@std@@SAIPAPBVfacet@locale@2@@Z$0 00447a50 f   libcpmt:wlocale.obj
 0001:00046a5a       __ehhandler$?_Getcat@?$time_get@GV?$istreambuf_iterator@GU?$char_traits@G@std@@@std@@@std@@SAIPAPBVfacet@locale@2@@Z 00447a5a f   libcpmt:wlocale.obj
 0001:00046a75       __unwindfunclet$?_Getifld@?$num_get@_WV?$istreambuf_iterator@_WU?$char_traits@_W@std@@@std@@@std@@ABAHPADAAV?$istreambuf_iterator@_WU?$char_traits@_W@std@@@2@1HABVlocale@2@@Z$0 00447a75 f   libcpmt:wlocale.obj
 0001:00046a7d       __unwindfunclet$?_Getifld@?$num_get@_WV?$istreambuf_iterator@_WU?$char_traits@_W@std@@@std@@@std@@ABAHPADAAV?$istreambuf_iterator@_WU?$char_traits@_W@std@@@2@1HABVlocale@2@@Z$1 00447a7d f   libcpmt:wlocale.obj
 0001:00046a85       __ehhandler$?_Getifld@?$num_get@_WV?$istreambuf_iterator@_WU?$char_traits@_W@std@@@std@@@std@@ABAHPADAAV?$istreambuf_iterator@_WU?$char_traits@_W@std@@@2@1HABVlocale@2@@Z 00447a85 f   libcpmt:wlocale.obj
 0001:00046aaa       __unwindfunclet$?_Getffld@?$num_get@_WV?$istreambuf_iterator@_WU?$char_traits@_W@std@@@std@@@std@@ABAHPADAAV?$istreambuf_iterator@_WU?$char_traits@_W@std@@@2@1ABVlocale@2@@Z$0 00447aaa f   libcpmt:wlocale.obj
 0001:00046ab2       __unwindfunclet$?_Getffld@?$num_get@_WV?$istreambuf_iterator@_WU?$char_traits@_W@std@@@std@@@std@@ABAHPADAAV?$istreambuf_iterator@_WU?$char_traits@_W@std@@@2@1ABVlocale@2@@Z$1 00447ab2 f   libcpmt:wlocale.obj
 0001:00046aba       __ehhandler$?_Getffld@?$num_get@_WV?$istreambuf_iterator@_WU?$char_traits@_W@std@@@std@@@std@@ABAHPADAAV?$istreambuf_iterator@_WU?$char_traits@_W@std@@@2@1ABVlocale@2@@Z 00447aba f   libcpmt:wlocale.obj
 0001:00046adf       __unwindfunclet$?_Fput@?$num_put@_WV?$ostreambuf_iterator@_WU?$char_traits@_W@std@@@std@@@std@@ABA?AV?$ostreambuf_iterator@_WU?$char_traits@_W@std@@@2@V32@AAVios_base@2@_WPBDIIII@Z$0 00447adf f   libcpmt:wlocale.obj
 0001:00046ae7       __unwindfunclet$?_Fput@?$num_put@_WV?$ostreambuf_iterator@_WU?$char_traits@_W@std@@@std@@@std@@ABA?AV?$ostreambuf_iterator@_WU?$char_traits@_W@std@@@2@V32@AAVios_base@2@_WPBDIIII@Z$1 00447ae7 f   libcpmt:wlocale.obj
 0001:00046aef       __unwindfunclet$?_Fput@?$num_put@_WV?$ostreambuf_iterator@_WU?$char_traits@_W@std@@@std@@@std@@ABA?AV?$ostreambuf_iterator@_WU?$char_traits@_W@std@@@2@V32@AAVios_base@2@_WPBDIIII@Z$2 00447aef f   libcpmt:wlocale.obj
 0001:00046af7       __ehhandler$?_Fput@?$num_put@_WV?$ostreambuf_iterator@_WU?$char_traits@_W@std@@@std@@@std@@ABA?AV?$ostreambuf_iterator@_WU?$char_traits@_W@std@@@2@V32@AAVios_base@2@_WPBDIIII@Z 00447af7 f   libcpmt:wlocale.obj
 0001:00046b1c       __unwindfunclet$?_Iput@?$num_put@_WV?$ostreambuf_iterator@_WU?$char_traits@_W@std@@@std@@@std@@ABA?AV?$ostreambuf_iterator@_WU?$char_traits@_W@std@@@2@V32@AAVios_base@2@_WPADI@Z$0 00447b1c f   libcpmt:wlocale.obj
 0001:00046b24       __unwindfunclet$?_Iput@?$num_put@_WV?$ostreambuf_iterator@_WU?$char_traits@_W@std@@@std@@@std@@ABA?AV?$ostreambuf_iterator@_WU?$char_traits@_W@std@@@2@V32@AAVios_base@2@_WPADI@Z$1 00447b24 f   libcpmt:wlocale.obj
 0001:00046b2c       __ehhandler$?_Iput@?$num_put@_WV?$ostreambuf_iterator@_WU?$char_traits@_W@std@@@std@@@std@@ABA?AV?$ostreambuf_iterator@_WU?$char_traits@_W@std@@@2@V32@AAVios_base@2@_WPADI@Z 00447b2c f   libcpmt:wlocale.obj
 0001:00046b51       __unwindfunclet$?_Getifld@?$num_get@GV?$istreambuf_iterator@GU?$char_traits@G@std@@@std@@@std@@ABAHPADAAV?$istreambuf_iterator@GU?$char_traits@G@std@@@2@1HABVlocale@2@@Z$0 00447b51 f   libcpmt:wlocale.obj
 0001:00046b59       __unwindfunclet$?_Getifld@?$num_get@GV?$istreambuf_iterator@GU?$char_traits@G@std@@@std@@@std@@ABAHPADAAV?$istreambuf_iterator@GU?$char_traits@G@std@@@2@1HABVlocale@2@@Z$1 00447b59 f   libcpmt:wlocale.obj
 0001:00046b61       __ehhandler$?_Getifld@?$num_get@GV?$istreambuf_iterator@GU?$char_traits@G@std@@@std@@@std@@ABAHPADAAV?$istreambuf_iterator@GU?$char_traits@G@std@@@2@1HABVlocale@2@@Z 00447b61 f   libcpmt:wlocale.obj
 0001:00046b86       __unwindfunclet$?_Getffld@?$num_get@GV?$istreambuf_iterator@GU?$char_traits@G@std@@@std@@@std@@ABAHPADAAV?$istreambuf_iterator@GU?$char_traits@G@std@@@2@1ABVlocale@2@@Z$0 00447b86 f   libcpmt:wlocale.obj
 0001:00046b8e       __unwindfunclet$?_Getffld@?$num_get@GV?$istreambuf_iterator@GU?$char_traits@G@std@@@std@@@std@@ABAHPADAAV?$istreambuf_iterator@GU?$char_traits@G@std@@@2@1ABVlocale@2@@Z$1 00447b8e f   libcpmt:wlocale.obj
 0001:00046b96       __ehhandler$?_Getffld@?$num_get@GV?$istreambuf_iterator@GU?$char_traits@G@std@@@std@@@std@@ABAHPADAAV?$istreambuf_iterator@GU?$char_traits@G@std@@@2@1ABVlocale@2@@Z 00447b96 f   libcpmt:wlocale.obj
 0001:00046bbb       __unwindfunclet$?_Fput@?$num_put@GV?$ostreambuf_iterator@GU?$char_traits@G@std@@@std@@@std@@ABA?AV?$ostreambuf_iterator@GU?$char_traits@G@std@@@2@V32@AAVios_base@2@GPBDIIII@Z$0 00447bbb f   libcpmt:wlocale.obj
 0001:00046bc3       __unwindfunclet$?_Fput@?$num_put@GV?$ostreambuf_iterator@GU?$char_traits@G@std@@@std@@@std@@ABA?AV?$ostreambuf_iterator@GU?$char_traits@G@std@@@2@V32@AAVios_base@2@GPBDIIII@Z$1 00447bc3 f   libcpmt:wlocale.obj
 0001:00046bcb       __unwindfunclet$?_Fput@?$num_put@GV?$ostreambuf_iterator@GU?$char_traits@G@std@@@std@@@std@@ABA?AV?$ostreambuf_iterator@GU?$char_traits@G@std@@@2@V32@AAVios_base@2@GPBDIIII@Z$2 00447bcb f   libcpmt:wlocale.obj
 0001:00046bd3       __ehhandler$?_Fput@?$num_put@GV?$ostreambuf_iterator@GU?$char_traits@G@std@@@std@@@std@@ABA?AV?$ostreambuf_iterator@GU?$char_traits@G@std@@@2@V32@AAVios_base@2@GPBDIIII@Z 00447bd3 f   libcpmt:wlocale.obj
 0001:00046bf8       __unwindfunclet$?_Iput@?$num_put@GV?$ostreambuf_iterator@GU?$char_traits@G@std@@@std@@@std@@ABA?AV?$ostreambuf_iterator@GU?$char_traits@G@std@@@2@V32@AAVios_base@2@GPADI@Z$0 00447bf8 f   libcpmt:wlocale.obj
 0001:00046c00       __unwindfunclet$?_Iput@?$num_put@GV?$ostreambuf_iterator@GU?$char_traits@G@std@@@std@@@std@@ABA?AV?$ostreambuf_iterator@GU?$char_traits@G@std@@@2@V32@AAVios_base@2@GPADI@Z$1 00447c00 f   libcpmt:wlocale.obj
 0001:00046c08       __ehhandler$?_Iput@?$num_put@GV?$ostreambuf_iterator@GU?$char_traits@G@std@@@std@@@std@@ABA?AV?$ostreambuf_iterator@GU?$char_traits@G@std@@@2@V32@AAVios_base@2@GPADI@Z 00447c08 f   libcpmt:wlocale.obj
 0001:00046c2d       __unwindfunclet$??$use_facet@V?$moneypunct@_W$0A@@std@@@std@@YAABV?$moneypunct@_W$0A@@0@ABVlocale@0@@Z$0 00447c2d f   libcpmt:wlocale.obj
 0001:00046c35       __ehhandler$??$use_facet@V?$moneypunct@_W$0A@@std@@@std@@YAABV?$moneypunct@_W$0A@@0@ABVlocale@0@@Z 00447c35 f   libcpmt:wlocale.obj
 0001:00046c50       __unwindfunclet$??$use_facet@V?$moneypunct@_W$00@std@@@std@@YAABV?$moneypunct@_W$00@0@ABVlocale@0@@Z$0 00447c50 f   libcpmt:wlocale.obj
 0001:00046c58       __ehhandler$??$use_facet@V?$moneypunct@_W$00@std@@@std@@YAABV?$moneypunct@_W$00@0@ABVlocale@0@@Z 00447c58 f   libcpmt:wlocale.obj
 0001:00046c73       __unwindfunclet$??$use_facet@V?$time_get@_WV?$istreambuf_iterator@_WU?$char_traits@_W@std@@@std@@@std@@@std@@YAABV?$time_get@_WV?$istreambuf_iterator@_WU?$char_traits@_W@std@@@std@@@0@ABVlocale@0@@Z$0 00447c73 f   libcpmt:wlocale.obj
 0001:00046c7b       __ehhandler$??$use_facet@V?$time_get@_WV?$istreambuf_iterator@_WU?$char_traits@_W@std@@@std@@@std@@@std@@YAABV?$time_get@_WV?$istreambuf_iterator@_WU?$char_traits@_W@std@@@std@@@0@ABVlocale@0@@Z 00447c7b f   libcpmt:wlocale.obj
 0001:00046c96       __unwindfunclet$??$use_facet@V?$moneypunct@G$0A@@std@@@std@@YAABV?$moneypunct@G$0A@@0@ABVlocale@0@@Z$0 00447c96 f   libcpmt:wlocale.obj
 0001:00046c9e       __ehhandler$??$use_facet@V?$moneypunct@G$0A@@std@@@std@@YAABV?$moneypunct@G$0A@@0@ABVlocale@0@@Z 00447c9e f   libcpmt:wlocale.obj
 0001:00046cb9       __unwindfunclet$??$use_facet@V?$moneypunct@G$00@std@@@std@@YAABV?$moneypunct@G$00@0@ABVlocale@0@@Z$0 00447cb9 f   libcpmt:wlocale.obj
 0001:00046cc1       __ehhandler$??$use_facet@V?$moneypunct@G$00@std@@@std@@YAABV?$moneypunct@G$00@0@ABVlocale@0@@Z 00447cc1 f   libcpmt:wlocale.obj
 0001:00046cdc       __unwindfunclet$??$use_facet@V?$time_get@GV?$istreambuf_iterator@GU?$char_traits@G@std@@@std@@@std@@@std@@YAABV?$time_get@GV?$istreambuf_iterator@GU?$char_traits@G@std@@@std@@@0@ABVlocale@0@@Z$0 00447cdc f   libcpmt:wlocale.obj
 0001:00046ce4       __ehhandler$??$use_facet@V?$time_get@GV?$istreambuf_iterator@GU?$char_traits@G@std@@@std@@@std@@@std@@YAABV?$time_get@GV?$istreambuf_iterator@GU?$char_traits@G@std@@@std@@@0@ABVlocale@0@@Z 00447ce4 f   libcpmt:wlocale.obj
 0001:00046cff       __unwindfunclet$?_Makewloc@_Locimp@locale@std@@CAXABV_Locinfo@3@HPAV123@PBV23@@Z$3 00447cff f   libcpmt:wlocale.obj
 0001:00046d09       __unwindfunclet$?_Makewloc@_Locimp@locale@std@@CAXABV_Locinfo@3@HPAV123@PBV23@@Z$8 00447d09 f   libcpmt:wlocale.obj
 0001:00046d13       __unwindfunclet$?_Makewloc@_Locimp@locale@std@@CAXABV_Locinfo@3@HPAV123@PBV23@@Z$9 00447d13 f   libcpmt:wlocale.obj
 0001:00046d1d       __unwindfunclet$?_Makewloc@_Locimp@locale@std@@CAXABV_Locinfo@3@HPAV123@PBV23@@Z$10 00447d1d f   libcpmt:wlocale.obj
 0001:00046d27       __ehhandler$?_Makewloc@_Locimp@locale@std@@CAXABV_Locinfo@3@HPAV123@PBV23@@Z 00447d27 f   libcpmt:wlocale.obj
 0001:00046d42       __unwindfunclet$?_Makeushloc@_Locimp@locale@std@@CAXABV_Locinfo@3@HPAV123@PBV23@@Z$3 00447d42 f   libcpmt:wlocale.obj
 0001:00046d4c       __unwindfunclet$?_Makeushloc@_Locimp@locale@std@@CAXABV_Locinfo@3@HPAV123@PBV23@@Z$8 00447d4c f   libcpmt:wlocale.obj
 0001:00046d56       __unwindfunclet$?_Makeushloc@_Locimp@locale@std@@CAXABV_Locinfo@3@HPAV123@PBV23@@Z$9 00447d56 f   libcpmt:wlocale.obj
 0001:00046d60       __unwindfunclet$?_Makeushloc@_Locimp@locale@std@@CAXABV_Locinfo@3@HPAV123@PBV23@@Z$10 00447d60 f   libcpmt:wlocale.obj
 0001:00046d6a       __ehhandler$?_Makeushloc@_Locimp@locale@std@@CAXABV_Locinfo@3@HPAV123@PBV23@@Z 00447d6a f   libcpmt:wlocale.obj
 0001:00046d85       __unwindfunclet$?do_get@?$num_get@_WV?$istreambuf_iterator@_WU?$char_traits@_W@std@@@std@@@std@@MBE?AV?$istreambuf_iterator@_WU?$char_traits@_W@std@@@2@V32@0AAVios_base@2@AAHAA_N@Z$0 00447d85 f   libcpmt:wlocale.obj
 0001:00046d8d       __unwindfunclet$?do_get@?$num_get@_WV?$istreambuf_iterator@_WU?$char_traits@_W@std@@@std@@@std@@MBE?AV?$istreambuf_iterator@_WU?$char_traits@_W@std@@@2@V32@0AAVios_base@2@AAHAA_N@Z$1 00447d8d f   libcpmt:wlocale.obj
 0001:00046d95       __unwindfunclet$?do_get@?$num_get@_WV?$istreambuf_iterator@_WU?$char_traits@_W@std@@@std@@@std@@MBE?AV?$istreambuf_iterator@_WU?$char_traits@_W@std@@@2@V32@0AAVios_base@2@AAHAA_N@Z$2 00447d95 f   libcpmt:wlocale.obj
 0001:00046d9d       __unwindfunclet$?do_get@?$num_get@_WV?$istreambuf_iterator@_WU?$char_traits@_W@std@@@std@@@std@@MBE?AV?$istreambuf_iterator@_WU?$char_traits@_W@std@@@2@V32@0AAVios_base@2@AAHAA_N@Z$3 00447d9d f   libcpmt:wlocale.obj
 0001:00046da5       __unwindfunclet$?do_get@?$num_get@_WV?$istreambuf_iterator@_WU?$char_traits@_W@std@@@std@@@std@@MBE?AV?$istreambuf_iterator@_WU?$char_traits@_W@std@@@2@V32@0AAVios_base@2@AAHAA_N@Z$4 00447da5 f   libcpmt:wlocale.obj
 0001:00046dad       __ehhandler$?do_get@?$num_get@_WV?$istreambuf_iterator@_WU?$char_traits@_W@std@@@std@@@std@@MBE?AV?$istreambuf_iterator@_WU?$char_traits@_W@std@@@2@V32@0AAVios_base@2@AAHAA_N@Z 00447dad f   libcpmt:wlocale.obj
 0001:00046dd2       __unwindfunclet$?do_get@?$num_get@_WV?$istreambuf_iterator@_WU?$char_traits@_W@std@@@std@@@std@@MBE?AV?$istreambuf_iterator@_WU?$char_traits@_W@std@@@2@V32@0AAVios_base@2@AAHAAG@Z$0 00447dd2 f   libcpmt:wlocale.obj
 0001:00046dda       __ehhandler$?do_get@?$num_get@_WV?$istreambuf_iterator@_WU?$char_traits@_W@std@@@std@@@std@@MBE?AV?$istreambuf_iterator@_WU?$char_traits@_W@std@@@2@V32@0AAVios_base@2@AAHAAG@Z 00447dda f   libcpmt:wlocale.obj
 0001:00046dff       __unwindfunclet$?do_get@?$num_get@_WV?$istreambuf_iterator@_WU?$char_traits@_W@std@@@std@@@std@@MBE?AV?$istreambuf_iterator@_WU?$char_traits@_W@std@@@2@V32@0AAVios_base@2@AAHAAI@Z$0 00447dff f   libcpmt:wlocale.obj
 0001:00046e07       __ehhandler$?do_get@?$num_get@_WV?$istreambuf_iterator@_WU?$char_traits@_W@std@@@std@@@std@@MBE?AV?$istreambuf_iterator@_WU?$char_traits@_W@std@@@2@V32@0AAVios_base@2@AAHAAI@Z 00447e07 f   libcpmt:wlocale.obj
 0001:00046e2c       __unwindfunclet$?do_get@?$num_get@_WV?$istreambuf_iterator@_WU?$char_traits@_W@std@@@std@@@std@@MBE?AV?$istreambuf_iterator@_WU?$char_traits@_W@std@@@2@V32@0AAVios_base@2@AAHAAJ@Z$0 00447e2c f   libcpmt:wlocale.obj
 0001:00046e34       __ehhandler$?do_get@?$num_get@_WV?$istreambuf_iterator@_WU?$char_traits@_W@std@@@std@@@std@@MBE?AV?$istreambuf_iterator@_WU?$char_traits@_W@std@@@2@V32@0AAVios_base@2@AAHAAJ@Z 00447e34 f   libcpmt:wlocale.obj
 0001:00046e59       __unwindfunclet$?do_get@?$num_get@_WV?$istreambuf_iterator@_WU?$char_traits@_W@std@@@std@@@std@@MBE?AV?$istreambuf_iterator@_WU?$char_traits@_W@std@@@2@V32@0AAVios_base@2@AAHAAK@Z$0 00447e59 f   libcpmt:wlocale.obj
 0001:00046e61       __ehhandler$?do_get@?$num_get@_WV?$istreambuf_iterator@_WU?$char_traits@_W@std@@@std@@@std@@MBE?AV?$istreambuf_iterator@_WU?$char_traits@_W@std@@@2@V32@0AAVios_base@2@AAHAAK@Z 00447e61 f   libcpmt:wlocale.obj
 0001:00046e86       __unwindfunclet$?do_get@?$num_get@_WV?$istreambuf_iterator@_WU?$char_traits@_W@std@@@std@@@std@@MBE?AV?$istreambuf_iterator@_WU?$char_traits@_W@std@@@2@V32@0AAVios_base@2@AAHAA_J@Z$0 00447e86 f   libcpmt:wlocale.obj
 0001:00046e8e       __ehhandler$?do_get@?$num_get@_WV?$istreambuf_iterator@_WU?$char_traits@_W@std@@@std@@@std@@MBE?AV?$istreambuf_iterator@_WU?$char_traits@_W@std@@@2@V32@0AAVios_base@2@AAHAA_J@Z 00447e8e f   libcpmt:wlocale.obj
 0001:00046eb3       __unwindfunclet$?do_get@?$num_get@_WV?$istreambuf_iterator@_WU?$char_traits@_W@std@@@std@@@std@@MBE?AV?$istreambuf_iterator@_WU?$char_traits@_W@std@@@2@V32@0AAVios_base@2@AAHAA_K@Z$0 00447eb3 f   libcpmt:wlocale.obj
 0001:00046ebb       __ehhandler$?do_get@?$num_get@_WV?$istreambuf_iterator@_WU?$char_traits@_W@std@@@std@@@std@@MBE?AV?$istreambuf_iterator@_WU?$char_traits@_W@std@@@2@V32@0AAVios_base@2@AAHAA_K@Z 00447ebb f   libcpmt:wlocale.obj
 0001:00046ee0       __unwindfunclet$?do_get@?$num_get@_WV?$istreambuf_iterator@_WU?$char_traits@_W@std@@@std@@@std@@MBE?AV?$istreambuf_iterator@_WU?$char_traits@_W@std@@@2@V32@0AAVios_base@2@AAHAAM@Z$0 00447ee0 f   libcpmt:wlocale.obj
 0001:00046ee8       __ehhandler$?do_get@?$num_get@_WV?$istreambuf_iterator@_WU?$char_traits@_W@std@@@std@@@std@@MBE?AV?$istreambuf_iterator@_WU?$char_traits@_W@std@@@2@V32@0AAVios_base@2@AAHAAM@Z 00447ee8 f   libcpmt:wlocale.obj
 0001:00046f0d       __unwindfunclet$?do_get@?$num_get@_WV?$istreambuf_iterator@_WU?$char_traits@_W@std@@@std@@@std@@MBE?AV?$istreambuf_iterator@_WU?$char_traits@_W@std@@@2@V32@0AAVios_base@2@AAHAAN@Z$0 00447f0d f   libcpmt:wlocale.obj
 0001:00046f15       __ehhandler$?do_get@?$num_get@_WV?$istreambuf_iterator@_WU?$char_traits@_W@std@@@std@@@std@@MBE?AV?$istreambuf_iterator@_WU?$char_traits@_W@std@@@2@V32@0AAVios_base@2@AAHAAN@Z 00447f15 f   libcpmt:wlocale.obj
 0001:00046f3a       __unwindfunclet$?do_get@?$num_get@_WV?$istreambuf_iterator@_WU?$char_traits@_W@std@@@std@@@std@@MBE?AV?$istreambuf_iterator@_WU?$char_traits@_W@std@@@2@V32@0AAVios_base@2@AAHAAO@Z$0 00447f3a f   libcpmt:wlocale.obj
 0001:00046f42       __ehhandler$?do_get@?$num_get@_WV?$istreambuf_iterator@_WU?$char_traits@_W@std@@@std@@@std@@MBE?AV?$istreambuf_iterator@_WU?$char_traits@_W@std@@@2@V32@0AAVios_base@2@AAHAAO@Z 00447f42 f   libcpmt:wlocale.obj
 0001:00046f67       __unwindfunclet$?do_get@?$num_get@_WV?$istreambuf_iterator@_WU?$char_traits@_W@std@@@std@@@std@@MBE?AV?$istreambuf_iterator@_WU?$char_traits@_W@std@@@2@V32@0AAVios_base@2@AAHAAPAX@Z$0 00447f67 f   libcpmt:wlocale.obj
 0001:00046f6f       __ehhandler$?do_get@?$num_get@_WV?$istreambuf_iterator@_WU?$char_traits@_W@std@@@std@@@std@@MBE?AV?$istreambuf_iterator@_WU?$char_traits@_W@std@@@2@V32@0AAVios_base@2@AAHAAPAX@Z 00447f6f f   libcpmt:wlocale.obj
 0001:00046f94       __unwindfunclet$?do_get@?$num_get@GV?$istreambuf_iterator@GU?$char_traits@G@std@@@std@@@std@@MBE?AV?$istreambuf_iterator@GU?$char_traits@G@std@@@2@V32@0AAVios_base@2@AAHAA_N@Z$0 00447f94 f   libcpmt:wlocale.obj
 0001:00046f9c       __unwindfunclet$?do_get@?$num_get@GV?$istreambuf_iterator@GU?$char_traits@G@std@@@std@@@std@@MBE?AV?$istreambuf_iterator@GU?$char_traits@G@std@@@2@V32@0AAVios_base@2@AAHAA_N@Z$1 00447f9c f   libcpmt:wlocale.obj
 0001:00046fa4       __unwindfunclet$?do_get@?$num_get@GV?$istreambuf_iterator@GU?$char_traits@G@std@@@std@@@std@@MBE?AV?$istreambuf_iterator@GU?$char_traits@G@std@@@2@V32@0AAVios_base@2@AAHAA_N@Z$2 00447fa4 f   libcpmt:wlocale.obj
 0001:00046fac       __unwindfunclet$?do_get@?$num_get@GV?$istreambuf_iterator@GU?$char_traits@G@std@@@std@@@std@@MBE?AV?$istreambuf_iterator@GU?$char_traits@G@std@@@2@V32@0AAVios_base@2@AAHAA_N@Z$3 00447fac f   libcpmt:wlocale.obj
 0001:00046fb4       __unwindfunclet$?do_get@?$num_get@GV?$istreambuf_iterator@GU?$char_traits@G@std@@@std@@@std@@MBE?AV?$istreambuf_iterator@GU?$char_traits@G@std@@@2@V32@0AAVios_base@2@AAHAA_N@Z$4 00447fb4 f   libcpmt:wlocale.obj
 0001:00046fbc       __ehhandler$?do_get@?$num_get@GV?$istreambuf_iterator@GU?$char_traits@G@std@@@std@@@std@@MBE?AV?$istreambuf_iterator@GU?$char_traits@G@std@@@2@V32@0AAVios_base@2@AAHAA_N@Z 00447fbc f   libcpmt:wlocale.obj
 0001:00046fe1       __unwindfunclet$?do_get@?$num_get@GV?$istreambuf_iterator@GU?$char_traits@G@std@@@std@@@std@@MBE?AV?$istreambuf_iterator@GU?$char_traits@G@std@@@2@V32@0AAVios_base@2@AAHAAG@Z$0 00447fe1 f   libcpmt:wlocale.obj
 0001:00046fe9       __ehhandler$?do_get@?$num_get@GV?$istreambuf_iterator@GU?$char_traits@G@std@@@std@@@std@@MBE?AV?$istreambuf_iterator@GU?$char_traits@G@std@@@2@V32@0AAVios_base@2@AAHAAG@Z 00447fe9 f   libcpmt:wlocale.obj
 0001:0004700e       __unwindfunclet$?do_get@?$num_get@GV?$istreambuf_iterator@GU?$char_traits@G@std@@@std@@@std@@MBE?AV?$istreambuf_iterator@GU?$char_traits@G@std@@@2@V32@0AAVios_base@2@AAHAAI@Z$0 0044800e f   libcpmt:wlocale.obj
 0001:00047016       __ehhandler$?do_get@?$num_get@GV?$istreambuf_iterator@GU?$char_traits@G@std@@@std@@@std@@MBE?AV?$istreambuf_iterator@GU?$char_traits@G@std@@@2@V32@0AAVios_base@2@AAHAAI@Z 00448016 f   libcpmt:wlocale.obj
 0001:0004703b       __unwindfunclet$?do_get@?$num_get@GV?$istreambuf_iterator@GU?$char_traits@G@std@@@std@@@std@@MBE?AV?$istreambuf_iterator@GU?$char_traits@G@std@@@2@V32@0AAVios_base@2@AAHAAJ@Z$0 0044803b f   libcpmt:wlocale.obj
 0001:00047043       __ehhandler$?do_get@?$num_get@GV?$istreambuf_iterator@GU?$char_traits@G@std@@@std@@@std@@MBE?AV?$istreambuf_iterator@GU?$char_traits@G@std@@@2@V32@0AAVios_base@2@AAHAAJ@Z 00448043 f   libcpmt:wlocale.obj
 0001:00047068       __unwindfunclet$?do_get@?$num_get@GV?$istreambuf_iterator@GU?$char_traits@G@std@@@std@@@std@@MBE?AV?$istreambuf_iterator@GU?$char_traits@G@std@@@2@V32@0AAVios_base@2@AAHAAK@Z$0 00448068 f   libcpmt:wlocale.obj
 0001:00047070       __ehhandler$?do_get@?$num_get@GV?$istreambuf_iterator@GU?$char_traits@G@std@@@std@@@std@@MBE?AV?$istreambuf_iterator@GU?$char_traits@G@std@@@2@V32@0AAVios_base@2@AAHAAK@Z 00448070 f   libcpmt:wlocale.obj
 0001:00047095       __unwindfunclet$?do_get@?$num_get@GV?$istreambuf_iterator@GU?$char_traits@G@std@@@std@@@std@@MBE?AV?$istreambuf_iterator@GU?$char_traits@G@std@@@2@V32@0AAVios_base@2@AAHAA_J@Z$0 00448095 f   libcpmt:wlocale.obj
 0001:0004709d       __ehhandler$?do_get@?$num_get@GV?$istreambuf_iterator@GU?$char_traits@G@std@@@std@@@std@@MBE?AV?$istreambuf_iterator@GU?$char_traits@G@std@@@2@V32@0AAVios_base@2@AAHAA_J@Z 0044809d f   libcpmt:wlocale.obj
 0001:000470c2       __unwindfunclet$?do_get@?$num_get@GV?$istreambuf_iterator@GU?$char_traits@G@std@@@std@@@std@@MBE?AV?$istreambuf_iterator@GU?$char_traits@G@std@@@2@V32@0AAVios_base@2@AAHAA_K@Z$0 004480c2 f   libcpmt:wlocale.obj
 0001:000470ca       __ehhandler$?do_get@?$num_get@GV?$istreambuf_iterator@GU?$char_traits@G@std@@@std@@@std@@MBE?AV?$istreambuf_iterator@GU?$char_traits@G@std@@@2@V32@0AAVios_base@2@AAHAA_K@Z 004480ca f   libcpmt:wlocale.obj
 0001:000470ef       __unwindfunclet$?do_get@?$num_get@GV?$istreambuf_iterator@GU?$char_traits@G@std@@@std@@@std@@MBE?AV?$istreambuf_iterator@GU?$char_traits@G@std@@@2@V32@0AAVios_base@2@AAHAAM@Z$0 004480ef f   libcpmt:wlocale.obj
 0001:000470f7       __ehhandler$?do_get@?$num_get@GV?$istreambuf_iterator@GU?$char_traits@G@std@@@std@@@std@@MBE?AV?$istreambuf_iterator@GU?$char_traits@G@std@@@2@V32@0AAVios_base@2@AAHAAM@Z 004480f7 f   libcpmt:wlocale.obj
 0001:0004711c       __unwindfunclet$?do_get@?$num_get@GV?$istreambuf_iterator@GU?$char_traits@G@std@@@std@@@std@@MBE?AV?$istreambuf_iterator@GU?$char_traits@G@std@@@2@V32@0AAVios_base@2@AAHAAN@Z$0 0044811c f   libcpmt:wlocale.obj
 0001:00047124       __ehhandler$?do_get@?$num_get@GV?$istreambuf_iterator@GU?$char_traits@G@std@@@std@@@std@@MBE?AV?$istreambuf_iterator@GU?$char_traits@G@std@@@2@V32@0AAVios_base@2@AAHAAN@Z 00448124 f   libcpmt:wlocale.obj
 0001:00047149       __unwindfunclet$?do_get@?$num_get@GV?$istreambuf_iterator@GU?$char_traits@G@std@@@std@@@std@@MBE?AV?$istreambuf_iterator@GU?$char_traits@G@std@@@2@V32@0AAVios_base@2@AAHAAO@Z$0 00448149 f   libcpmt:wlocale.obj
 0001:00047151       __ehhandler$?do_get@?$num_get@GV?$istreambuf_iterator@GU?$char_traits@G@std@@@std@@@std@@MBE?AV?$istreambuf_iterator@GU?$char_traits@G@std@@@2@V32@0AAVios_base@2@AAHAAO@Z 00448151 f   libcpmt:wlocale.obj
 0001:00047176       __unwindfunclet$?do_get@?$num_get@GV?$istreambuf_iterator@GU?$char_traits@G@std@@@std@@@std@@MBE?AV?$istreambuf_iterator@GU?$char_traits@G@std@@@2@V32@0AAVios_base@2@AAHAAPAX@Z$0 00448176 f   libcpmt:wlocale.obj
 0001:0004717e       __ehhandler$?do_get@?$num_get@GV?$istreambuf_iterator@GU?$char_traits@G@std@@@std@@@std@@MBE?AV?$istreambuf_iterator@GU?$char_traits@G@std@@@2@V32@0AAVios_base@2@AAHAAPAX@Z 0044817e f   libcpmt:wlocale.obj
 0001:000471a3       __unwindfunclet$?_Getmfld@?$money_get@_WV?$istreambuf_iterator@_WU?$char_traits@_W@std@@@std@@@std@@ABE?AV?$basic_string@_WU?$char_traits@_W@std@@V?$allocator@_W@2@@2@AAV?$istreambuf_iterator@_WU?$char_traits@_W@std@@@2@0_NAAVios_base@2@@Z$0 004481a3 f   libcpmt:wlocale.obj
 0001:000471ab       __unwindfunclet$?_Getmfld@?$money_get@_WV?$istreambuf_iterator@_WU?$char_traits@_W@std@@@std@@@std@@ABE?AV?$basic_string@_WU?$char_traits@_W@std@@V?$allocator@_W@2@@2@AAV?$istreambuf_iterator@_WU?$char_traits@_W@std@@@2@0_NAAVios_base@2@@Z$1 004481ab f   libcpmt:wlocale.obj
 0001:000471b3       __unwindfunclet$?_Getmfld@?$money_get@_WV?$istreambuf_iterator@_WU?$char_traits@_W@std@@@std@@@std@@ABE?AV?$basic_string@_WU?$char_traits@_W@std@@V?$allocator@_W@2@@2@AAV?$istreambuf_iterator@_WU?$char_traits@_W@std@@@2@0_NAAVios_base@2@@Z$2 004481b3 f   libcpmt:wlocale.obj
 0001:000471bb       __unwindfunclet$?_Getmfld@?$money_get@_WV?$istreambuf_iterator@_WU?$char_traits@_W@std@@@std@@@std@@ABE?AV?$basic_string@_WU?$char_traits@_W@std@@V?$allocator@_W@2@@2@AAV?$istreambuf_iterator@_WU?$char_traits@_W@std@@@2@0_NAAVios_base@2@@Z$3 004481bb f   libcpmt:wlocale.obj
 0001:000471d4       __unwindfunclet$?_Getmfld@?$money_get@_WV?$istreambuf_iterator@_WU?$char_traits@_W@std@@@std@@@std@@ABE?AV?$basic_string@_WU?$char_traits@_W@std@@V?$allocator@_W@2@@2@AAV?$istreambuf_iterator@_WU?$char_traits@_W@std@@@2@0_NAAVios_base@2@@Z$13 004481d4 f   libcpmt:wlocale.obj
 0001:000471dc       __unwindfunclet$?_Getmfld@?$money_get@_WV?$istreambuf_iterator@_WU?$char_traits@_W@std@@@std@@@std@@ABE?AV?$basic_string@_WU?$char_traits@_W@std@@V?$allocator@_W@2@@2@AAV?$istreambuf_iterator@_WU?$char_traits@_W@std@@@2@0_NAAVios_base@2@@Z$11 004481dc f   libcpmt:wlocale.obj
 0001:000471e4       __unwindfunclet$?_Getmfld@?$money_get@_WV?$istreambuf_iterator@_WU?$char_traits@_W@std@@@std@@@std@@ABE?AV?$basic_string@_WU?$char_traits@_W@std@@V?$allocator@_W@2@@2@AAV?$istreambuf_iterator@_WU?$char_traits@_W@std@@@2@0_NAAVios_base@2@@Z$12 004481e4 f   libcpmt:wlocale.obj
 0001:000471ec       __unwindfunclet$?_Getmfld@?$money_get@_WV?$istreambuf_iterator@_WU?$char_traits@_W@std@@@std@@@std@@ABE?AV?$basic_string@_WU?$char_traits@_W@std@@V?$allocator@_W@2@@2@AAV?$istreambuf_iterator@_WU?$char_traits@_W@std@@@2@0_NAAVios_base@2@@Z$5 004481ec f   libcpmt:wlocale.obj
 0001:00047208       __unwindfunclet$?_Getmfld@?$money_get@_WV?$istreambuf_iterator@_WU?$char_traits@_W@std@@@std@@@std@@ABE?AV?$basic_string@_WU?$char_traits@_W@std@@V?$allocator@_W@2@@2@AAV?$istreambuf_iterator@_WU?$char_traits@_W@std@@@2@0_NAAVios_base@2@@Z$6 00448208 f   libcpmt:wlocale.obj
 0001:00047224       __unwindfunclet$?_Getmfld@?$money_get@_WV?$istreambuf_iterator@_WU?$char_traits@_W@std@@@std@@@std@@ABE?AV?$basic_string@_WU?$char_traits@_W@std@@V?$allocator@_W@2@@2@AAV?$istreambuf_iterator@_WU?$char_traits@_W@std@@@2@0_NAAVios_base@2@@Z$7 00448224 f   libcpmt:wlocale.obj
 0001:0004722f       __unwindfunclet$?_Getmfld@?$money_get@_WV?$istreambuf_iterator@_WU?$char_traits@_W@std@@@std@@@std@@ABE?AV?$basic_string@_WU?$char_traits@_W@std@@V?$allocator@_W@2@@2@AAV?$istreambuf_iterator@_WU?$char_traits@_W@std@@@2@0_NAAVios_base@2@@Z$8 0044822f f   libcpmt:wlocale.obj
 0001:0004724b       __unwindfunclet$?_Getmfld@?$money_get@_WV?$istreambuf_iterator@_WU?$char_traits@_W@std@@@std@@@std@@ABE?AV?$basic_string@_WU?$char_traits@_W@std@@V?$allocator@_W@2@@2@AAV?$istreambuf_iterator@_WU?$char_traits@_W@std@@@2@0_NAAVios_base@2@@Z$9 0044824b f   libcpmt:wlocale.obj
 0001:00047267       __unwindfunclet$?_Getmfld@?$money_get@_WV?$istreambuf_iterator@_WU?$char_traits@_W@std@@@std@@@std@@ABE?AV?$basic_string@_WU?$char_traits@_W@std@@V?$allocator@_W@2@@2@AAV?$istreambuf_iterator@_WU?$char_traits@_W@std@@@2@0_NAAVios_base@2@@Z$10 00448267 f   libcpmt:wlocale.obj
 0001:00047272       __unwindfunclet$?_Getmfld@?$money_get@_WV?$istreambuf_iterator@_WU?$char_traits@_W@std@@@std@@@std@@ABE?AV?$basic_string@_WU?$char_traits@_W@std@@V?$allocator@_W@2@@2@AAV?$istreambuf_iterator@_WU?$char_traits@_W@std@@@2@0_NAAVios_base@2@@Z$4 00448272 f   libcpmt:wlocale.obj
 0001:0004727a       __ehhandler$?_Getmfld@?$money_get@_WV?$istreambuf_iterator@_WU?$char_traits@_W@std@@@std@@@std@@ABE?AV?$basic_string@_WU?$char_traits@_W@std@@V?$allocator@_W@2@@2@AAV?$istreambuf_iterator@_WU?$char_traits@_W@std@@@2@0_NAAVios_base@2@@Z 0044827a f   libcpmt:wlocale.obj
 0001:000472a2       __unwindfunclet$?_Putmfld@?$money_put@_WV?$ostreambuf_iterator@_WU?$char_traits@_W@std@@@std@@@std@@ABE?AV?$ostreambuf_iterator@_WU?$char_traits@_W@std@@@2@V32@_NAAVios_base@2@_W1V?$basic_string@_WU?$char_traits@_W@std@@V?$allocator@_W@2@@2@@Z$0 004482a2 f   libcpmt:wlocale.obj
 0001:000472ad       __unwindfunclet$?_Putmfld@?$money_put@_WV?$ostreambuf_iterator@_WU?$char_traits@_W@std@@@std@@@std@@ABE?AV?$ostreambuf_iterator@_WU?$char_traits@_W@std@@@2@V32@_NAAVios_base@2@_W1V?$basic_string@_WU?$char_traits@_W@std@@V?$allocator@_W@2@@2@@Z$1 004482ad f   libcpmt:wlocale.obj
 0001:000472b5       __unwindfunclet$?_Putmfld@?$money_put@_WV?$ostreambuf_iterator@_WU?$char_traits@_W@std@@@std@@@std@@ABE?AV?$ostreambuf_iterator@_WU?$char_traits@_W@std@@@2@V32@_NAAVios_base@2@_W1V?$basic_string@_WU?$char_traits@_W@std@@V?$allocator@_W@2@@2@@Z$2 004482b5 f   libcpmt:wlocale.obj
 0001:000472bd       __unwindfunclet$?_Putmfld@?$money_put@_WV?$ostreambuf_iterator@_WU?$char_traits@_W@std@@@std@@@std@@ABE?AV?$ostreambuf_iterator@_WU?$char_traits@_W@std@@@2@V32@_NAAVios_base@2@_W1V?$basic_string@_WU?$char_traits@_W@std@@V?$allocator@_W@2@@2@@Z$3 004482bd f   libcpmt:wlocale.obj
 0001:000472c5       __unwindfunclet$?_Putmfld@?$money_put@_WV?$ostreambuf_iterator@_WU?$char_traits@_W@std@@@std@@@std@@ABE?AV?$ostreambuf_iterator@_WU?$char_traits@_W@std@@@2@V32@_NAAVios_base@2@_W1V?$basic_string@_WU?$char_traits@_W@std@@V?$allocator@_W@2@@2@@Z$4 004482c5 f   libcpmt:wlocale.obj
 0001:000472cd       __unwindfunclet$?_Putmfld@?$money_put@_WV?$ostreambuf_iterator@_WU?$char_traits@_W@std@@@std@@@std@@ABE?AV?$ostreambuf_iterator@_WU?$char_traits@_W@std@@@2@V32@_NAAVios_base@2@_W1V?$basic_string@_WU?$char_traits@_W@std@@V?$allocator@_W@2@@2@@Z$5 004482cd f   libcpmt:wlocale.obj
 0001:000472d5       __unwindfunclet$?_Putmfld@?$money_put@_WV?$ostreambuf_iterator@_WU?$char_traits@_W@std@@@std@@@std@@ABE?AV?$ostreambuf_iterator@_WU?$char_traits@_W@std@@@2@V32@_NAAVios_base@2@_W1V?$basic_string@_WU?$char_traits@_W@std@@V?$allocator@_W@2@@2@@Z$6 004482d5 f   libcpmt:wlocale.obj
 0001:000472dd       __unwindfunclet$?_Putmfld@?$money_put@_WV?$ostreambuf_iterator@_WU?$char_traits@_W@std@@@std@@@std@@ABE?AV?$ostreambuf_iterator@_WU?$char_traits@_W@std@@@2@V32@_NAAVios_base@2@_W1V?$basic_string@_WU?$char_traits@_W@std@@V?$allocator@_W@2@@2@@Z$7 004482dd f   libcpmt:wlocale.obj
 0001:000472e5       __unwindfunclet$?_Putmfld@?$money_put@_WV?$ostreambuf_iterator@_WU?$char_traits@_W@std@@@std@@@std@@ABE?AV?$ostreambuf_iterator@_WU?$char_traits@_W@std@@@2@V32@_NAAVios_base@2@_W1V?$basic_string@_WU?$char_traits@_W@std@@V?$allocator@_W@2@@2@@Z$8 004482e5 f   libcpmt:wlocale.obj
 0001:000472ed       __ehhandler$?_Putmfld@?$money_put@_WV?$ostreambuf_iterator@_WU?$char_traits@_W@std@@@std@@@std@@ABE?AV?$ostreambuf_iterator@_WU?$char_traits@_W@std@@@2@V32@_NAAVios_base@2@_W1V?$basic_string@_WU?$char_traits@_W@std@@V?$allocator@_W@2@@2@@Z 004482ed f   libcpmt:wlocale.obj
 0001:00047315       __unwindfunclet$?_Getmfld@?$money_get@GV?$istreambuf_iterator@GU?$char_traits@G@std@@@std@@@std@@ABE?AV?$basic_string@GU?$char_traits@G@std@@V?$allocator@G@2@@2@AAV?$istreambuf_iterator@GU?$char_traits@G@std@@@2@0_NAAVios_base@2@@Z$0 00448315 f   libcpmt:wlocale.obj
 0001:0004731d       __unwindfunclet$?_Getmfld@?$money_get@GV?$istreambuf_iterator@GU?$char_traits@G@std@@@std@@@std@@ABE?AV?$basic_string@GU?$char_traits@G@std@@V?$allocator@G@2@@2@AAV?$istreambuf_iterator@GU?$char_traits@G@std@@@2@0_NAAVios_base@2@@Z$1 0044831d f   libcpmt:wlocale.obj
 0001:00047325       __unwindfunclet$?_Getmfld@?$money_get@GV?$istreambuf_iterator@GU?$char_traits@G@std@@@std@@@std@@ABE?AV?$basic_string@GU?$char_traits@G@std@@V?$allocator@G@2@@2@AAV?$istreambuf_iterator@GU?$char_traits@G@std@@@2@0_NAAVios_base@2@@Z$2 00448325 f   libcpmt:wlocale.obj
 0001:0004732d       __unwindfunclet$?_Getmfld@?$money_get@GV?$istreambuf_iterator@GU?$char_traits@G@std@@@std@@@std@@ABE?AV?$basic_string@GU?$char_traits@G@std@@V?$allocator@G@2@@2@AAV?$istreambuf_iterator@GU?$char_traits@G@std@@@2@0_NAAVios_base@2@@Z$3 0044832d f   libcpmt:wlocale.obj
 0001:00047346       __unwindfunclet$?_Getmfld@?$money_get@GV?$istreambuf_iterator@GU?$char_traits@G@std@@@std@@@std@@ABE?AV?$basic_string@GU?$char_traits@G@std@@V?$allocator@G@2@@2@AAV?$istreambuf_iterator@GU?$char_traits@G@std@@@2@0_NAAVios_base@2@@Z$13 00448346 f   libcpmt:wlocale.obj
 0001:0004734e       __unwindfunclet$?_Getmfld@?$money_get@GV?$istreambuf_iterator@GU?$char_traits@G@std@@@std@@@std@@ABE?AV?$basic_string@GU?$char_traits@G@std@@V?$allocator@G@2@@2@AAV?$istreambuf_iterator@GU?$char_traits@G@std@@@2@0_NAAVios_base@2@@Z$11 0044834e f   libcpmt:wlocale.obj
 0001:00047356       __unwindfunclet$?_Getmfld@?$money_get@GV?$istreambuf_iterator@GU?$char_traits@G@std@@@std@@@std@@ABE?AV?$basic_string@GU?$char_traits@G@std@@V?$allocator@G@2@@2@AAV?$istreambuf_iterator@GU?$char_traits@G@std@@@2@0_NAAVios_base@2@@Z$12 00448356 f   libcpmt:wlocale.obj
 0001:0004735e       __unwindfunclet$?_Getmfld@?$money_get@GV?$istreambuf_iterator@GU?$char_traits@G@std@@@std@@@std@@ABE?AV?$basic_string@GU?$char_traits@G@std@@V?$allocator@G@2@@2@AAV?$istreambuf_iterator@GU?$char_traits@G@std@@@2@0_NAAVios_base@2@@Z$5 0044835e f   libcpmt:wlocale.obj
 0001:0004737a       __unwindfunclet$?_Getmfld@?$money_get@GV?$istreambuf_iterator@GU?$char_traits@G@std@@@std@@@std@@ABE?AV?$basic_string@GU?$char_traits@G@std@@V?$allocator@G@2@@2@AAV?$istreambuf_iterator@GU?$char_traits@G@std@@@2@0_NAAVios_base@2@@Z$6 0044837a f   libcpmt:wlocale.obj
 0001:00047396       __unwindfunclet$?_Getmfld@?$money_get@GV?$istreambuf_iterator@GU?$char_traits@G@std@@@std@@@std@@ABE?AV?$basic_string@GU?$char_traits@G@std@@V?$allocator@G@2@@2@AAV?$istreambuf_iterator@GU?$char_traits@G@std@@@2@0_NAAVios_base@2@@Z$7 00448396 f   libcpmt:wlocale.obj
 0001:000473a1       __unwindfunclet$?_Getmfld@?$money_get@GV?$istreambuf_iterator@GU?$char_traits@G@std@@@std@@@std@@ABE?AV?$basic_string@GU?$char_traits@G@std@@V?$allocator@G@2@@2@AAV?$istreambuf_iterator@GU?$char_traits@G@std@@@2@0_NAAVios_base@2@@Z$8 004483a1 f   libcpmt:wlocale.obj
 0001:000473bd       __unwindfunclet$?_Getmfld@?$money_get@GV?$istreambuf_iterator@GU?$char_traits@G@std@@@std@@@std@@ABE?AV?$basic_string@GU?$char_traits@G@std@@V?$allocator@G@2@@2@AAV?$istreambuf_iterator@GU?$char_traits@G@std@@@2@0_NAAVios_base@2@@Z$9 004483bd f   libcpmt:wlocale.obj
 0001:000473d9       __unwindfunclet$?_Getmfld@?$money_get@GV?$istreambuf_iterator@GU?$char_traits@G@std@@@std@@@std@@ABE?AV?$basic_string@GU?$char_traits@G@std@@V?$allocator@G@2@@2@AAV?$istreambuf_iterator@GU?$char_traits@G@std@@@2@0_NAAVios_base@2@@Z$10 004483d9 f   libcpmt:wlocale.obj
 0001:000473e4       __unwindfunclet$?_Getmfld@?$money_get@GV?$istreambuf_iterator@GU?$char_traits@G@std@@@std@@@std@@ABE?AV?$basic_string@GU?$char_traits@G@std@@V?$allocator@G@2@@2@AAV?$istreambuf_iterator@GU?$char_traits@G@std@@@2@0_NAAVios_base@2@@Z$4 004483e4 f   libcpmt:wlocale.obj
 0001:000473ec       __ehhandler$?_Getmfld@?$money_get@GV?$istreambuf_iterator@GU?$char_traits@G@std@@@std@@@std@@ABE?AV?$basic_string@GU?$char_traits@G@std@@V?$allocator@G@2@@2@AAV?$istreambuf_iterator@GU?$char_traits@G@std@@@2@0_NAAVios_base@2@@Z 004483ec f   libcpmt:wlocale.obj
 0001:00047414       __unwindfunclet$?_Putmfld@?$money_put@GV?$ostreambuf_iterator@GU?$char_traits@G@std@@@std@@@std@@ABE?AV?$ostreambuf_iterator@GU?$char_traits@G@std@@@2@V32@_NAAVios_base@2@G1V?$basic_string@GU?$char_traits@G@std@@V?$allocator@G@2@@2@@Z$0 00448414 f   libcpmt:wlocale.obj
 0001:0004741f       __unwindfunclet$?_Putmfld@?$money_put@GV?$ostreambuf_iterator@GU?$char_traits@G@std@@@std@@@std@@ABE?AV?$ostreambuf_iterator@GU?$char_traits@G@std@@@2@V32@_NAAVios_base@2@G1V?$basic_string@GU?$char_traits@G@std@@V?$allocator@G@2@@2@@Z$1 0044841f f   libcpmt:wlocale.obj
 0001:00047427       __unwindfunclet$?_Putmfld@?$money_put@GV?$ostreambuf_iterator@GU?$char_traits@G@std@@@std@@@std@@ABE?AV?$ostreambuf_iterator@GU?$char_traits@G@std@@@2@V32@_NAAVios_base@2@G1V?$basic_string@GU?$char_traits@G@std@@V?$allocator@G@2@@2@@Z$2 00448427 f   libcpmt:wlocale.obj
 0001:0004742f       __unwindfunclet$?_Putmfld@?$money_put@GV?$ostreambuf_iterator@GU?$char_traits@G@std@@@std@@@std@@ABE?AV?$ostreambuf_iterator@GU?$char_traits@G@std@@@2@V32@_NAAVios_base@2@G1V?$basic_string@GU?$char_traits@G@std@@V?$allocator@G@2@@2@@Z$3 0044842f f   libcpmt:wlocale.obj
 0001:00047437       __unwindfunclet$?_Putmfld@?$money_put@GV?$ostreambuf_iterator@GU?$char_traits@G@std@@@std@@@std@@ABE?AV?$ostreambuf_iterator@GU?$char_traits@G@std@@@2@V32@_NAAVios_base@2@G1V?$basic_string@GU?$char_traits@G@std@@V?$allocator@G@2@@2@@Z$4 00448437 f   libcpmt:wlocale.obj
 0001:0004743f       __unwindfunclet$?_Putmfld@?$money_put@GV?$ostreambuf_iterator@GU?$char_traits@G@std@@@std@@@std@@ABE?AV?$ostreambuf_iterator@GU?$char_traits@G@std@@@2@V32@_NAAVios_base@2@G1V?$basic_string@GU?$char_traits@G@std@@V?$allocator@G@2@@2@@Z$5 0044843f f   libcpmt:wlocale.obj
 0001:00047447       __unwindfunclet$?_Putmfld@?$money_put@GV?$ostreambuf_iterator@GU?$char_traits@G@std@@@std@@@std@@ABE?AV?$ostreambuf_iterator@GU?$char_traits@G@std@@@2@V32@_NAAVios_base@2@G1V?$basic_string@GU?$char_traits@G@std@@V?$allocator@G@2@@2@@Z$6 00448447 f   libcpmt:wlocale.obj
 0001:0004744f       __unwindfunclet$?_Putmfld@?$money_put@GV?$ostreambuf_iterator@GU?$char_traits@G@std@@@std@@@std@@ABE?AV?$ostreambuf_iterator@GU?$char_traits@G@std@@@2@V32@_NAAVios_base@2@G1V?$basic_string@GU?$char_traits@G@std@@V?$allocator@G@2@@2@@Z$7 0044844f f   libcpmt:wlocale.obj
 0001:00047457       __unwindfunclet$?_Putmfld@?$money_put@GV?$ostreambuf_iterator@GU?$char_traits@G@std@@@std@@@std@@ABE?AV?$ostreambuf_iterator@GU?$char_traits@G@std@@@2@V32@_NAAVios_base@2@G1V?$basic_string@GU?$char_traits@G@std@@V?$allocator@G@2@@2@@Z$8 00448457 f   libcpmt:wlocale.obj
 0001:0004745f       __ehhandler$?_Putmfld@?$money_put@GV?$ostreambuf_iterator@GU?$char_traits@G@std@@@std@@@std@@ABE?AV?$ostreambuf_iterator@GU?$char_traits@G@std@@@2@V32@_NAAVios_base@2@G1V?$basic_string@GU?$char_traits@G@std@@V?$allocator@G@2@@2@@Z 0044845f f   libcpmt:wlocale.obj
 0001:00047487       __unwindfunclet$?do_get@?$money_get@_WV?$istreambuf_iterator@_WU?$char_traits@_W@std@@@std@@@std@@MBE?AV?$istreambuf_iterator@_WU?$char_traits@_W@std@@@2@V32@0_NAAVios_base@2@AAHAAO@Z$0 00448487 f   libcpmt:wlocale.obj
 0001:0004748f       __unwindfunclet$?do_get@?$money_get@_WV?$istreambuf_iterator@_WU?$char_traits@_W@std@@@std@@@std@@MBE?AV?$istreambuf_iterator@_WU?$char_traits@_W@std@@@2@V32@0_NAAVios_base@2@AAHAAO@Z$1 0044848f f   libcpmt:wlocale.obj
 0001:00047497       __ehhandler$?do_get@?$money_get@_WV?$istreambuf_iterator@_WU?$char_traits@_W@std@@@std@@@std@@MBE?AV?$istreambuf_iterator@_WU?$char_traits@_W@std@@@2@V32@0_NAAVios_base@2@AAHAAO@Z 00448497 f   libcpmt:wlocale.obj
 0001:000474bc       __unwindfunclet$?do_get@?$money_get@_WV?$istreambuf_iterator@_WU?$char_traits@_W@std@@@std@@@std@@MBE?AV?$istreambuf_iterator@_WU?$char_traits@_W@std@@@2@V32@0_NAAVios_base@2@AAHAAV?$basic_string@_WU?$char_traits@_W@std@@V?$allocator@_W@2@@2@@Z$0 004484bc f   libcpmt:wlocale.obj
 0001:000474c4       __ehhandler$?do_get@?$money_get@_WV?$istreambuf_iterator@_WU?$char_traits@_W@std@@@std@@@std@@MBE?AV?$istreambuf_iterator@_WU?$char_traits@_W@std@@@2@V32@0_NAAVios_base@2@AAHAAV?$basic_string@_WU?$char_traits@_W@std@@V?$allocator@_W@2@@2@@Z 004484c4 f   libcpmt:wlocale.obj
 0001:000474e9       __unwindfunclet$?do_put@?$money_put@_WV?$ostreambuf_iterator@_WU?$char_traits@_W@std@@@std@@@std@@MBE?AV?$ostreambuf_iterator@_WU?$char_traits@_W@std@@@2@V32@_NAAVios_base@2@_WO@Z$0 004484e9 f   libcpmt:wlocale.obj
 0001:000474f1       __ehhandler$?do_put@?$money_put@_WV?$ostreambuf_iterator@_WU?$char_traits@_W@std@@@std@@@std@@MBE?AV?$ostreambuf_iterator@_WU?$char_traits@_W@std@@@2@V32@_NAAVios_base@2@_WO@Z 004484f1 f   libcpmt:wlocale.obj
 0001:00047516       __unwindfunclet$?do_put@?$money_put@_WV?$ostreambuf_iterator@_WU?$char_traits@_W@std@@@std@@@std@@MBE?AV?$ostreambuf_iterator@_WU?$char_traits@_W@std@@@2@V32@_NAAVios_base@2@_WABV?$basic_string@_WU?$char_traits@_W@std@@V?$allocator@_W@2@@2@@Z$0 00448516 f   libcpmt:wlocale.obj
 0001:0004751e       __ehhandler$?do_put@?$money_put@_WV?$ostreambuf_iterator@_WU?$char_traits@_W@std@@@std@@@std@@MBE?AV?$ostreambuf_iterator@_WU?$char_traits@_W@std@@@2@V32@_NAAVios_base@2@_WABV?$basic_string@_WU?$char_traits@_W@std@@V?$allocator@_W@2@@2@@Z 0044851e f   libcpmt:wlocale.obj
 0001:00047543       __unwindfunclet$?do_get@?$money_get@GV?$istreambuf_iterator@GU?$char_traits@G@std@@@std@@@std@@MBE?AV?$istreambuf_iterator@GU?$char_traits@G@std@@@2@V32@0_NAAVios_base@2@AAHAAO@Z$0 00448543 f   libcpmt:wlocale.obj
 0001:0004754b       __unwindfunclet$?do_get@?$money_get@GV?$istreambuf_iterator@GU?$char_traits@G@std@@@std@@@std@@MBE?AV?$istreambuf_iterator@GU?$char_traits@G@std@@@2@V32@0_NAAVios_base@2@AAHAAO@Z$1 0044854b f   libcpmt:wlocale.obj
 0001:00047553       __ehhandler$?do_get@?$money_get@GV?$istreambuf_iterator@GU?$char_traits@G@std@@@std@@@std@@MBE?AV?$istreambuf_iterator@GU?$char_traits@G@std@@@2@V32@0_NAAVios_base@2@AAHAAO@Z 00448553 f   libcpmt:wlocale.obj
 0001:00047578       __unwindfunclet$?do_get@?$money_get@GV?$istreambuf_iterator@GU?$char_traits@G@std@@@std@@@std@@MBE?AV?$istreambuf_iterator@GU?$char_traits@G@std@@@2@V32@0_NAAVios_base@2@AAHAAV?$basic_string@GU?$char_traits@G@std@@V?$allocator@G@2@@2@@Z$0 00448578 f   libcpmt:wlocale.obj
 0001:00047580       __ehhandler$?do_get@?$money_get@GV?$istreambuf_iterator@GU?$char_traits@G@std@@@std@@@std@@MBE?AV?$istreambuf_iterator@GU?$char_traits@G@std@@@2@V32@0_NAAVios_base@2@AAHAAV?$basic_string@GU?$char_traits@G@std@@V?$allocator@G@2@@2@@Z 00448580 f   libcpmt:wlocale.obj
 0001:000475a5       __unwindfunclet$?do_put@?$money_put@GV?$ostreambuf_iterator@GU?$char_traits@G@std@@@std@@@std@@MBE?AV?$ostreambuf_iterator@GU?$char_traits@G@std@@@2@V32@_NAAVios_base@2@GO@Z$0 004485a5 f   libcpmt:wlocale.obj
 0001:000475ad       __ehhandler$?do_put@?$money_put@GV?$ostreambuf_iterator@GU?$char_traits@G@std@@@std@@@std@@MBE?AV?$ostreambuf_iterator@GU?$char_traits@G@std@@@2@V32@_NAAVios_base@2@GO@Z 004485ad f   libcpmt:wlocale.obj
 0001:000475d2       __unwindfunclet$?do_put@?$money_put@GV?$ostreambuf_iterator@GU?$char_traits@G@std@@@std@@@std@@MBE?AV?$ostreambuf_iterator@GU?$char_traits@G@std@@@2@V32@_NAAVios_base@2@GABV?$basic_string@GU?$char_traits@G@std@@V?$allocator@G@2@@2@@Z$0 004485d2 f   libcpmt:wlocale.obj
 0001:000475da       __ehhandler$?do_put@?$money_put@GV?$ostreambuf_iterator@GU?$char_traits@G@std@@@std@@@std@@MBE?AV?$ostreambuf_iterator@GU?$char_traits@G@std@@@2@V32@_NAAVios_base@2@GABV?$basic_string@GU?$char_traits@G@std@@V?$allocator@G@2@@2@@Z 004485da f   libcpmt:wlocale.obj
 0001:000475ff       __ehhandler$?_Init@?$_Mpunct@D@std@@IAEXABV_Locinfo@2@@Z 004485ff f   libcpmt:xlocale.obj
 0001:0004761a       __unwindfunclet$??0?$_Mpunct@D@std@@QAE@ABV_Locinfo@1@I_N@Z$0 0044861a f   libcpmt:xlocale.obj
 0001:00047622       __ehhandler$??0?$_Mpunct@D@std@@QAE@ABV_Locinfo@1@I_N@Z 00448622 f   libcpmt:xlocale.obj
 0001:0004763d       __unwindfunclet$?do_put@?$time_put@DV?$ostreambuf_iterator@DU?$char_traits@D@std@@@std@@@std@@MBE?AV?$ostreambuf_iterator@DU?$char_traits@D@std@@@2@V32@AAVios_base@2@DPBUtm@@DD@Z$0 0044863d f   libcpmt:xlocale.obj
 0001:00047645       __ehhandler$?do_put@?$time_put@DV?$ostreambuf_iterator@DU?$char_traits@D@std@@@std@@@std@@MBE?AV?$ostreambuf_iterator@DU?$char_traits@D@std@@@2@V32@AAVios_base@2@DPBUtm@@DD@Z 00448645 f   libcpmt:xlocale.obj
 0001:0004766a       __unwindfunclet$?do_transform@?$collate@D@std@@MBE?AV?$basic_string@DU?$char_traits@D@std@@V?$allocator@D@2@@2@PBD0@Z$0 0044866a f   libcpmt:xlocale.obj
 0001:00047683       __ehhandler$?do_transform@?$collate@D@std@@MBE?AV?$basic_string@DU?$char_traits@D@std@@V?$allocator@D@2@@2@PBD0@Z 00448683 f   libcpmt:xlocale.obj
 0001:0004769e       __unwindfunclet$??0?$collate@D@std@@QAE@I@Z$0 0044869e f   libcpmt:xlocale.obj
 0001:000476a9       __ehhandler$??0?$collate@D@std@@QAE@I@Z 004486a9 f   libcpmt:xlocale.obj
 0001:000476d1       __unwindfunclet$??0?$messages@D@std@@QAE@I@Z$0 004486d1 f   libcpmt:xlocale.obj
 0001:000476dc       __ehhandler$??0?$messages@D@std@@QAE@I@Z 004486dc f   libcpmt:xlocale.obj
 0001:00047704       __unwindfunclet$??0?$money_get@DV?$istreambuf_iterator@DU?$char_traits@D@std@@@std@@@std@@QAE@I@Z$0 00448704 f   libcpmt:xlocale.obj
 0001:0004770f       __ehhandler$??0?$money_get@DV?$istreambuf_iterator@DU?$char_traits@D@std@@@std@@@std@@QAE@I@Z 0044870f f   libcpmt:xlocale.obj
 0001:00047737       __unwindfunclet$??0?$money_put@DV?$ostreambuf_iterator@DU?$char_traits@D@std@@@std@@@std@@QAE@I@Z$0 00448737 f   libcpmt:xlocale.obj
 0001:00047742       __ehhandler$??0?$money_put@DV?$ostreambuf_iterator@DU?$char_traits@D@std@@@std@@@std@@QAE@I@Z 00448742 f   libcpmt:xlocale.obj
 0001:0004776a       __ehhandler$?_Init@?$time_get@DV?$istreambuf_iterator@DU?$char_traits@D@std@@@std@@@std@@IAEXABV_Locinfo@2@@Z 0044876a f   libcpmt:xlocale.obj
 0001:00047785       __unwindfunclet$??0?$time_put@DV?$ostreambuf_iterator@DU?$char_traits@D@std@@@std@@@std@@QAE@I@Z$0 00448785 f   libcpmt:xlocale.obj
 0001:00047790       __unwindfunclet$??0?$time_put@DV?$ostreambuf_iterator@DU?$char_traits@D@std@@@std@@@std@@QAE@I@Z$1 00448790 f   libcpmt:xlocale.obj
 0001:0004779e       __ehhandler$??0?$time_put@DV?$ostreambuf_iterator@DU?$char_traits@D@std@@@std@@@std@@QAE@I@Z 0044879e f   libcpmt:xlocale.obj
 0001:000477c6       __unwindfunclet$??0?$_Mpunct@D@std@@QAE@I_N@Z$0 004487c6 f   libcpmt:xlocale.obj
 0001:000477d1       __unwindfunclet$??0?$_Mpunct@D@std@@QAE@I_N@Z$1 004487d1 f   libcpmt:xlocale.obj
 0001:000477dc       __ehhandler$??0?$_Mpunct@D@std@@QAE@I_N@Z 004487dc f   libcpmt:xlocale.obj
 0001:00047804       __unwindfunclet$?_Getcat@?$collate@D@std@@SAIPAPBVfacet@locale@2@@Z$0 00448804 f   libcpmt:xlocale.obj
 0001:0004780e       __ehhandler$?_Getcat@?$collate@D@std@@SAIPAPBVfacet@locale@2@@Z 0044880e f   libcpmt:xlocale.obj
 0001:00047829       __unwindfunclet$?_Getcat@?$messages@D@std@@SAIPAPBVfacet@locale@2@@Z$0 00448829 f   libcpmt:xlocale.obj
 0001:00047833       __ehhandler$?_Getcat@?$messages@D@std@@SAIPAPBVfacet@locale@2@@Z 00448833 f   libcpmt:xlocale.obj
 0001:0004784e       __unwindfunclet$?_Getcat@?$money_get@DV?$istreambuf_iterator@DU?$char_traits@D@std@@@std@@@std@@SAIPAPBVfacet@locale@2@@Z$0 0044884e f   libcpmt:xlocale.obj
 0001:00047858       __ehhandler$?_Getcat@?$money_get@DV?$istreambuf_iterator@DU?$char_traits@D@std@@@std@@@std@@SAIPAPBVfacet@locale@2@@Z 00448858 f   libcpmt:xlocale.obj
 0001:00047873       __unwindfunclet$?_Getcat@?$money_put@DV?$ostreambuf_iterator@DU?$char_traits@D@std@@@std@@@std@@SAIPAPBVfacet@locale@2@@Z$0 00448873 f   libcpmt:xlocale.obj
 0001:0004787d       __ehhandler$?_Getcat@?$money_put@DV?$ostreambuf_iterator@DU?$char_traits@D@std@@@std@@@std@@SAIPAPBVfacet@locale@2@@Z 0044887d f   libcpmt:xlocale.obj
 0001:00047898       __unwindfunclet$??0?$time_get@DV?$istreambuf_iterator@DU?$char_traits@D@std@@@std@@@std@@QAE@ABV_Locinfo@1@I@Z$0 00448898 f   libcpmt:xlocale.obj
 0001:000478a0       __ehhandler$??0?$time_get@DV?$istreambuf_iterator@DU?$char_traits@D@std@@@std@@@std@@QAE@ABV_Locinfo@1@I@Z 004488a0 f   libcpmt:xlocale.obj
 0001:000478bb       __unwindfunclet$?_Getcat@?$time_put@DV?$ostreambuf_iterator@DU?$char_traits@D@std@@@std@@@std@@SAIPAPBVfacet@locale@2@@Z$0 004488bb f   libcpmt:xlocale.obj
 0001:000478c5       __ehhandler$?_Getcat@?$time_put@DV?$ostreambuf_iterator@DU?$char_traits@D@std@@@std@@@std@@SAIPAPBVfacet@locale@2@@Z 004488c5 f   libcpmt:xlocale.obj
 0001:000478e0       __unwindfunclet$??0?$time_get@DV?$istreambuf_iterator@DU?$char_traits@D@std@@@std@@@std@@QAE@I@Z$0 004488e0 f   libcpmt:xlocale.obj
 0001:000478eb       __unwindfunclet$??0?$time_get@DV?$istreambuf_iterator@DU?$char_traits@D@std@@@std@@@std@@QAE@I@Z$1 004488eb f   libcpmt:xlocale.obj
 0001:000478f6       __ehhandler$??0?$time_get@DV?$istreambuf_iterator@DU?$char_traits@D@std@@@std@@@std@@QAE@I@Z 004488f6 f   libcpmt:xlocale.obj
 0001:0004791e       __unwindfunclet$??$use_facet@V?$collate@D@std@@@std@@YAABV?$collate@D@0@ABVlocale@0@@Z$0 0044891e f   libcpmt:xlocale.obj
 0001:00047926       __ehhandler$??$use_facet@V?$collate@D@std@@@std@@YAABV?$collate@D@0@ABVlocale@0@@Z 00448926 f   libcpmt:xlocale.obj
 0001:00047941       __unwindfunclet$??$use_facet@V?$messages@D@std@@@std@@YAABV?$messages@D@0@ABVlocale@0@@Z$0 00448941 f   libcpmt:xlocale.obj
 0001:00047949       __ehhandler$??$use_facet@V?$messages@D@std@@@std@@YAABV?$messages@D@0@ABVlocale@0@@Z 00448949 f   libcpmt:xlocale.obj
 0001:00047964       __unwindfunclet$??$use_facet@V?$money_get@DV?$istreambuf_iterator@DU?$char_traits@D@std@@@std@@@std@@@std@@YAABV?$money_get@DV?$istreambuf_iterator@DU?$char_traits@D@std@@@std@@@0@ABVlocale@0@@Z$0 00448964 f   libcpmt:xlocale.obj
 0001:0004796c       __ehhandler$??$use_facet@V?$money_get@DV?$istreambuf_iterator@DU?$char_traits@D@std@@@std@@@std@@@std@@YAABV?$money_get@DV?$istreambuf_iterator@DU?$char_traits@D@std@@@std@@@0@ABVlocale@0@@Z 0044896c f   libcpmt:xlocale.obj
 0001:00047987       __unwindfunclet$??$use_facet@V?$money_put@DV?$ostreambuf_iterator@DU?$char_traits@D@std@@@std@@@std@@@std@@YAABV?$money_put@DV?$ostreambuf_iterator@DU?$char_traits@D@std@@@std@@@0@ABVlocale@0@@Z$0 00448987 f   libcpmt:xlocale.obj
 0001:0004798f       __ehhandler$??$use_facet@V?$money_put@DV?$ostreambuf_iterator@DU?$char_traits@D@std@@@std@@@std@@@std@@YAABV?$money_put@DV?$ostreambuf_iterator@DU?$char_traits@D@std@@@std@@@0@ABVlocale@0@@Z 0044898f f   libcpmt:xlocale.obj
 0001:000479aa       __unwindfunclet$??$use_facet@V?$time_put@DV?$ostreambuf_iterator@DU?$char_traits@D@std@@@std@@@std@@@std@@YAABV?$time_put@DV?$ostreambuf_iterator@DU?$char_traits@D@std@@@std@@@0@ABVlocale@0@@Z$0 004489aa f   libcpmt:xlocale.obj
 0001:000479b2       __ehhandler$??$use_facet@V?$time_put@DV?$ostreambuf_iterator@DU?$char_traits@D@std@@@std@@@std@@@std@@YAABV?$time_put@DV?$ostreambuf_iterator@DU?$char_traits@D@std@@@std@@@0@ABVlocale@0@@Z 004489b2 f   libcpmt:xlocale.obj
 0001:000479cd       __unwindfunclet$?_Getcat@?$moneypunct@D$0A@@std@@SAIPAPBVfacet@locale@2@@Z$0 004489cd f   libcpmt:xlocale.obj
 0001:000479d7       __ehhandler$?_Getcat@?$moneypunct@D$0A@@std@@SAIPAPBVfacet@locale@2@@Z 004489d7 f   libcpmt:xlocale.obj
 0001:000479f2       __unwindfunclet$?_Getcat@?$moneypunct@D$00@std@@SAIPAPBVfacet@locale@2@@Z$0 004489f2 f   libcpmt:xlocale.obj
 0001:000479fc       __ehhandler$?_Getcat@?$moneypunct@D$00@std@@SAIPAPBVfacet@locale@2@@Z 004489fc f   libcpmt:xlocale.obj
 0001:00047a17       __unwindfunclet$?_Getcat@?$time_get@DV?$istreambuf_iterator@DU?$char_traits@D@std@@@std@@@std@@SAIPAPBVfacet@locale@2@@Z$0 00448a17 f   libcpmt:xlocale.obj
 0001:00047a21       __ehhandler$?_Getcat@?$time_get@DV?$istreambuf_iterator@DU?$char_traits@D@std@@@std@@@std@@SAIPAPBVfacet@locale@2@@Z 00448a21 f   libcpmt:xlocale.obj
 0001:00047a3c       __unwindfunclet$??$use_facet@V?$moneypunct@D$0A@@std@@@std@@YAABV?$moneypunct@D$0A@@0@ABVlocale@0@@Z$0 00448a3c f   libcpmt:xlocale.obj
 0001:00047a44       __ehhandler$??$use_facet@V?$moneypunct@D$0A@@std@@@std@@YAABV?$moneypunct@D$0A@@0@ABVlocale@0@@Z 00448a44 f   libcpmt:xlocale.obj
 0001:00047a5f       __unwindfunclet$??$use_facet@V?$moneypunct@D$00@std@@@std@@YAABV?$moneypunct@D$00@0@ABVlocale@0@@Z$0 00448a5f f   libcpmt:xlocale.obj
 0001:00047a67       __ehhandler$??$use_facet@V?$moneypunct@D$00@std@@@std@@YAABV?$moneypunct@D$00@0@ABVlocale@0@@Z 00448a67 f   libcpmt:xlocale.obj
 0001:00047a82       __unwindfunclet$??$use_facet@V?$time_get@DV?$istreambuf_iterator@DU?$char_traits@D@std@@@std@@@std@@@std@@YAABV?$time_get@DV?$istreambuf_iterator@DU?$char_traits@D@std@@@std@@@0@ABVlocale@0@@Z$0 00448a82 f   libcpmt:xlocale.obj
 0001:00047a8a       __ehhandler$??$use_facet@V?$time_get@DV?$istreambuf_iterator@DU?$char_traits@D@std@@@std@@@std@@@std@@YAABV?$time_get@DV?$istreambuf_iterator@DU?$char_traits@D@std@@@std@@@0@ABVlocale@0@@Z 00448a8a f   libcpmt:xlocale.obj
 0001:00047aa5       __unwindfunclet$?_Makexloc@_Locimp@locale@std@@CAXABV_Locinfo@3@HPAV123@PBV23@@Z$4 00448aa5 f   libcpmt:xlocale.obj
 0001:00047aaf       __unwindfunclet$?_Makexloc@_Locimp@locale@std@@CAXABV_Locinfo@3@HPAV123@PBV23@@Z$5 00448aaf f   libcpmt:xlocale.obj
 0001:00047ab9       __unwindfunclet$?_Makexloc@_Locimp@locale@std@@CAXABV_Locinfo@3@HPAV123@PBV23@@Z$6 00448ab9 f   libcpmt:xlocale.obj
 0001:00047ac3       __ehhandler$?_Makexloc@_Locimp@locale@std@@CAXABV_Locinfo@3@HPAV123@PBV23@@Z 00448ac3 f   libcpmt:xlocale.obj
 0001:00047ade       __unwindfunclet$?_Getmfld@?$money_get@DV?$istreambuf_iterator@DU?$char_traits@D@std@@@std@@@std@@ABE?AV?$basic_string@DU?$char_traits@D@std@@V?$allocator@D@2@@2@AAV?$istreambuf_iterator@DU?$char_traits@D@std@@@2@0_NAAVios_base@2@@Z$0 00448ade f   libcpmt:xlocale.obj
 0001:00047ae6       __unwindfunclet$?_Getmfld@?$money_get@DV?$istreambuf_iterator@DU?$char_traits@D@std@@@std@@@std@@ABE?AV?$basic_string@DU?$char_traits@D@std@@V?$allocator@D@2@@2@AAV?$istreambuf_iterator@DU?$char_traits@D@std@@@2@0_NAAVios_base@2@@Z$1 00448ae6 f   libcpmt:xlocale.obj
 0001:00047aee       __unwindfunclet$?_Getmfld@?$money_get@DV?$istreambuf_iterator@DU?$char_traits@D@std@@@std@@@std@@ABE?AV?$basic_string@DU?$char_traits@D@std@@V?$allocator@D@2@@2@AAV?$istreambuf_iterator@DU?$char_traits@D@std@@@2@0_NAAVios_base@2@@Z$2 00448aee f   libcpmt:xlocale.obj
 0001:00047af6       __unwindfunclet$?_Getmfld@?$money_get@DV?$istreambuf_iterator@DU?$char_traits@D@std@@@std@@@std@@ABE?AV?$basic_string@DU?$char_traits@D@std@@V?$allocator@D@2@@2@AAV?$istreambuf_iterator@DU?$char_traits@D@std@@@2@0_NAAVios_base@2@@Z$3 00448af6 f   libcpmt:xlocale.obj
 0001:00047b0f       __unwindfunclet$?_Getmfld@?$money_get@DV?$istreambuf_iterator@DU?$char_traits@D@std@@@std@@@std@@ABE?AV?$basic_string@DU?$char_traits@D@std@@V?$allocator@D@2@@2@AAV?$istreambuf_iterator@DU?$char_traits@D@std@@@2@0_NAAVios_base@2@@Z$13 00448b0f f   libcpmt:xlocale.obj
 0001:00047b17       __unwindfunclet$?_Getmfld@?$money_get@DV?$istreambuf_iterator@DU?$char_traits@D@std@@@std@@@std@@ABE?AV?$basic_string@DU?$char_traits@D@std@@V?$allocator@D@2@@2@AAV?$istreambuf_iterator@DU?$char_traits@D@std@@@2@0_NAAVios_base@2@@Z$11 00448b17 f   libcpmt:xlocale.obj
 0001:00047b1f       __unwindfunclet$?_Getmfld@?$money_get@DV?$istreambuf_iterator@DU?$char_traits@D@std@@@std@@@std@@ABE?AV?$basic_string@DU?$char_traits@D@std@@V?$allocator@D@2@@2@AAV?$istreambuf_iterator@DU?$char_traits@D@std@@@2@0_NAAVios_base@2@@Z$12 00448b1f f   libcpmt:xlocale.obj
 0001:00047b27       __unwindfunclet$?_Getmfld@?$money_get@DV?$istreambuf_iterator@DU?$char_traits@D@std@@@std@@@std@@ABE?AV?$basic_string@DU?$char_traits@D@std@@V?$allocator@D@2@@2@AAV?$istreambuf_iterator@DU?$char_traits@D@std@@@2@0_NAAVios_base@2@@Z$5 00448b27 f   libcpmt:xlocale.obj
 0001:00047b43       __unwindfunclet$?_Getmfld@?$money_get@DV?$istreambuf_iterator@DU?$char_traits@D@std@@@std@@@std@@ABE?AV?$basic_string@DU?$char_traits@D@std@@V?$allocator@D@2@@2@AAV?$istreambuf_iterator@DU?$char_traits@D@std@@@2@0_NAAVios_base@2@@Z$6 00448b43 f   libcpmt:xlocale.obj
 0001:00047b5f       __unwindfunclet$?_Getmfld@?$money_get@DV?$istreambuf_iterator@DU?$char_traits@D@std@@@std@@@std@@ABE?AV?$basic_string@DU?$char_traits@D@std@@V?$allocator@D@2@@2@AAV?$istreambuf_iterator@DU?$char_traits@D@std@@@2@0_NAAVios_base@2@@Z$7 00448b5f f   libcpmt:xlocale.obj
 0001:00047b6a       __unwindfunclet$?_Getmfld@?$money_get@DV?$istreambuf_iterator@DU?$char_traits@D@std@@@std@@@std@@ABE?AV?$basic_string@DU?$char_traits@D@std@@V?$allocator@D@2@@2@AAV?$istreambuf_iterator@DU?$char_traits@D@std@@@2@0_NAAVios_base@2@@Z$8 00448b6a f   libcpmt:xlocale.obj
 0001:00047b86       __unwindfunclet$?_Getmfld@?$money_get@DV?$istreambuf_iterator@DU?$char_traits@D@std@@@std@@@std@@ABE?AV?$basic_string@DU?$char_traits@D@std@@V?$allocator@D@2@@2@AAV?$istreambuf_iterator@DU?$char_traits@D@std@@@2@0_NAAVios_base@2@@Z$9 00448b86 f   libcpmt:xlocale.obj
 0001:00047ba2       __unwindfunclet$?_Getmfld@?$money_get@DV?$istreambuf_iterator@DU?$char_traits@D@std@@@std@@@std@@ABE?AV?$basic_string@DU?$char_traits@D@std@@V?$allocator@D@2@@2@AAV?$istreambuf_iterator@DU?$char_traits@D@std@@@2@0_NAAVios_base@2@@Z$10 00448ba2 f   libcpmt:xlocale.obj
 0001:00047bad       __unwindfunclet$?_Getmfld@?$money_get@DV?$istreambuf_iterator@DU?$char_traits@D@std@@@std@@@std@@ABE?AV?$basic_string@DU?$char_traits@D@std@@V?$allocator@D@2@@2@AAV?$istreambuf_iterator@DU?$char_traits@D@std@@@2@0_NAAVios_base@2@@Z$4 00448bad f   libcpmt:xlocale.obj
 0001:00047bb5       __ehhandler$?_Getmfld@?$money_get@DV?$istreambuf_iterator@DU?$char_traits@D@std@@@std@@@std@@ABE?AV?$basic_string@DU?$char_traits@D@std@@V?$allocator@D@2@@2@AAV?$istreambuf_iterator@DU?$char_traits@D@std@@@2@0_NAAVios_base@2@@Z 00448bb5 f   libcpmt:xlocale.obj
 0001:00047bdd       __unwindfunclet$?_Putmfld@?$money_put@DV?$ostreambuf_iterator@DU?$char_traits@D@std@@@std@@@std@@ABE?AV?$ostreambuf_iterator@DU?$char_traits@D@std@@@2@V32@_NAAVios_base@2@D1V?$basic_string@DU?$char_traits@D@std@@V?$allocator@D@2@@2@@Z$0 00448bdd f   libcpmt:xlocale.obj
 0001:00047be8       __unwindfunclet$?_Putmfld@?$money_put@DV?$ostreambuf_iterator@DU?$char_traits@D@std@@@std@@@std@@ABE?AV?$ostreambuf_iterator@DU?$char_traits@D@std@@@2@V32@_NAAVios_base@2@D1V?$basic_string@DU?$char_traits@D@std@@V?$allocator@D@2@@2@@Z$1 00448be8 f   libcpmt:xlocale.obj
 0001:00047bf0       __unwindfunclet$?_Putmfld@?$money_put@DV?$ostreambuf_iterator@DU?$char_traits@D@std@@@std@@@std@@ABE?AV?$ostreambuf_iterator@DU?$char_traits@D@std@@@2@V32@_NAAVios_base@2@D1V?$basic_string@DU?$char_traits@D@std@@V?$allocator@D@2@@2@@Z$2 00448bf0 f   libcpmt:xlocale.obj
 0001:00047bf8       __unwindfunclet$?_Putmfld@?$money_put@DV?$ostreambuf_iterator@DU?$char_traits@D@std@@@std@@@std@@ABE?AV?$ostreambuf_iterator@DU?$char_traits@D@std@@@2@V32@_NAAVios_base@2@D1V?$basic_string@DU?$char_traits@D@std@@V?$allocator@D@2@@2@@Z$3 00448bf8 f   libcpmt:xlocale.obj
 0001:00047c00       __unwindfunclet$?_Putmfld@?$money_put@DV?$ostreambuf_iterator@DU?$char_traits@D@std@@@std@@@std@@ABE?AV?$ostreambuf_iterator@DU?$char_traits@D@std@@@2@V32@_NAAVios_base@2@D1V?$basic_string@DU?$char_traits@D@std@@V?$allocator@D@2@@2@@Z$4 00448c00 f   libcpmt:xlocale.obj
 0001:00047c08       __unwindfunclet$?_Putmfld@?$money_put@DV?$ostreambuf_iterator@DU?$char_traits@D@std@@@std@@@std@@ABE?AV?$ostreambuf_iterator@DU?$char_traits@D@std@@@2@V32@_NAAVios_base@2@D1V?$basic_string@DU?$char_traits@D@std@@V?$allocator@D@2@@2@@Z$5 00448c08 f   libcpmt:xlocale.obj
 0001:00047c10       __unwindfunclet$?_Putmfld@?$money_put@DV?$ostreambuf_iterator@DU?$char_traits@D@std@@@std@@@std@@ABE?AV?$ostreambuf_iterator@DU?$char_traits@D@std@@@2@V32@_NAAVios_base@2@D1V?$basic_string@DU?$char_traits@D@std@@V?$allocator@D@2@@2@@Z$6 00448c10 f   libcpmt:xlocale.obj
 0001:00047c18       __unwindfunclet$?_Putmfld@?$money_put@DV?$ostreambuf_iterator@DU?$char_traits@D@std@@@std@@@std@@ABE?AV?$ostreambuf_iterator@DU?$char_traits@D@std@@@2@V32@_NAAVios_base@2@D1V?$basic_string@DU?$char_traits@D@std@@V?$allocator@D@2@@2@@Z$7 00448c18 f   libcpmt:xlocale.obj
 0001:00047c20       __unwindfunclet$?_Putmfld@?$money_put@DV?$ostreambuf_iterator@DU?$char_traits@D@std@@@std@@@std@@ABE?AV?$ostreambuf_iterator@DU?$char_traits@D@std@@@2@V32@_NAAVios_base@2@D1V?$basic_string@DU?$char_traits@D@std@@V?$allocator@D@2@@2@@Z$8 00448c20 f   libcpmt:xlocale.obj
 0001:00047c28       __ehhandler$?_Putmfld@?$money_put@DV?$ostreambuf_iterator@DU?$char_traits@D@std@@@std@@@std@@ABE?AV?$ostreambuf_iterator@DU?$char_traits@D@std@@@2@V32@_NAAVios_base@2@D1V?$basic_string@DU?$char_traits@D@std@@V?$allocator@D@2@@2@@Z 00448c28 f   libcpmt:xlocale.obj
 0001:00047c50       __unwindfunclet$?do_get@?$money_get@DV?$istreambuf_iterator@DU?$char_traits@D@std@@@std@@@std@@MBE?AV?$istreambuf_iterator@DU?$char_traits@D@std@@@2@V32@0_NAAVios_base@2@AAHAAO@Z$0 00448c50 f   libcpmt:xlocale.obj
 0001:00047c58       __unwindfunclet$?do_get@?$money_get@DV?$istreambuf_iterator@DU?$char_traits@D@std@@@std@@@std@@MBE?AV?$istreambuf_iterator@DU?$char_traits@D@std@@@2@V32@0_NAAVios_base@2@AAHAAO@Z$1 00448c58 f   libcpmt:xlocale.obj
 0001:00047c60       __ehhandler$?do_get@?$money_get@DV?$istreambuf_iterator@DU?$char_traits@D@std@@@std@@@std@@MBE?AV?$istreambuf_iterator@DU?$char_traits@D@std@@@2@V32@0_NAAVios_base@2@AAHAAO@Z 00448c60 f   libcpmt:xlocale.obj
 0001:00047c85       __unwindfunclet$?do_get@?$money_get@DV?$istreambuf_iterator@DU?$char_traits@D@std@@@std@@@std@@MBE?AV?$istreambuf_iterator@DU?$char_traits@D@std@@@2@V32@0_NAAVios_base@2@AAHAAV?$basic_string@DU?$char_traits@D@std@@V?$allocator@D@2@@2@@Z$0 00448c85 f   libcpmt:xlocale.obj
 0001:00047c8d       __ehhandler$?do_get@?$money_get@DV?$istreambuf_iterator@DU?$char_traits@D@std@@@std@@@std@@MBE?AV?$istreambuf_iterator@DU?$char_traits@D@std@@@2@V32@0_NAAVios_base@2@AAHAAV?$basic_string@DU?$char_traits@D@std@@V?$allocator@D@2@@2@@Z 00448c8d f   libcpmt:xlocale.obj
 0001:00047cb2       __unwindfunclet$?do_put@?$money_put@DV?$ostreambuf_iterator@DU?$char_traits@D@std@@@std@@@std@@MBE?AV?$ostreambuf_iterator@DU?$char_traits@D@std@@@2@V32@_NAAVios_base@2@DO@Z$0 00448cb2 f   libcpmt:xlocale.obj
 0001:00047cba       __ehhandler$?do_put@?$money_put@DV?$ostreambuf_iterator@DU?$char_traits@D@std@@@std@@@std@@MBE?AV?$ostreambuf_iterator@DU?$char_traits@D@std@@@2@V32@_NAAVios_base@2@DO@Z 00448cba f   libcpmt:xlocale.obj
 0001:00047cdf       __unwindfunclet$?do_put@?$money_put@DV?$ostreambuf_iterator@DU?$char_traits@D@std@@@std@@@std@@MBE?AV?$ostreambuf_iterator@DU?$char_traits@D@std@@@2@V32@_NAAVios_base@2@DABV?$basic_string@DU?$char_traits@D@std@@V?$allocator@D@2@@2@@Z$0 00448cdf f   libcpmt:xlocale.obj
 0001:00047ce7       __ehhandler$?do_put@?$money_put@DV?$ostreambuf_iterator@DU?$char_traits@D@std@@@std@@@std@@MBE?AV?$ostreambuf_iterator@DU?$char_traits@D@std@@@2@V32@_NAAVios_base@2@DABV?$basic_string@DU?$char_traits@D@std@@V?$allocator@D@2@@2@@Z 00448ce7 f   libcpmt:xlocale.obj
 0001:00047d0c       __ehhandler$?CallUnexpected@@YAXPBU_s_ESTypeList@@@Z 00448d0c f   LIBCMT:frame.obj
 0001:00047d27       ??__Einitlocks@std@@YAXXZ  00448d27 f   libcpmt:xlock.obj
 0001:00047d3d       ??__Eclassic_locale@std@@YAXXZ 00448d3d f   libcpmt:locale0.obj
 0001:00047d49       ??__Einitlocks@std@@YAXXZ  00448d49 f   libcpmt:iosptrs.obj
 0001:00047d5f       ??__Einit_atexit@@YAXXZ    00448d5f f   libcpmt:iosptrs.obj
 0001:00047d6b       ??__Finitlocks@std@@YAXXZ  00448d6b f   libcpmt:xlock.obj
 0001:00047d75       ??__Fclassic_locale@std@@YAXXZ 00448d75 f   libcpmt:locale0.obj
 0001:00047d7f       ??__Fnomem@?P@??_Locimp_ctor@_Locimp@locale@std@@CAXPAV123@ABV123@@Z@YAXXZ 00448d7f f   libcpmt:locale.obj
 0001:00047d93       ??__Fnomem@?L@??_Locimp_Addfac@_Locimp@locale@std@@CAXPAV123@PAVfacet@23@I@Z@YAXXZ 00448d93 f   libcpmt:locale.obj
 0001:00047da7       ??__Finitlocks@std@@YAXXZ  00448da7 f   libcpmt:iosptrs.obj
 0001:00047db1       ??__Finit_atexit@@YAXXZ    00448db1 f   libcpmt:iosptrs.obj
 0001:00047dbb       ??__Fnomem@?5???2@YAPAXI@Z@YAXXZ 00448dbb f   LIBCMT:new.obj
